
Projet-Master1.elf:     file format elf32-littlenios2
Projet-Master1.elf
architecture: nios2:r1, flags 0x00000112:
EXEC_P, HAS_SYMS, D_PAGED
start address 0x02000248

Program Header:
    LOAD off    0x00001000 vaddr 0x02000000 paddr 0x02000000 align 2**12
         filesz 0x00000020 memsz 0x00000020 flags r-x
    LOAD off    0x00001020 vaddr 0x02000020 paddr 0x02000020 align 2**12
         filesz 0x000234b0 memsz 0x000234b0 flags r-x
    LOAD off    0x000244d0 vaddr 0x020234d0 paddr 0x02025160 align 2**12
         filesz 0x00001c90 memsz 0x00001c90 flags rw-
    LOAD off    0x00026df0 vaddr 0x02026df0 paddr 0x02026df0 align 2**12
         filesz 0x00000000 memsz 0x0000b440 flags rw-

Sections:
Idx Name          Size      VMA       LMA       File off  Algn
  0 .entry        00000020  02000000  02000000  00001000  2**5
                  CONTENTS, ALLOC, LOAD, READONLY, CODE
  1 .exceptions   00000228  02000020  02000020  00001020  2**2
                  CONTENTS, ALLOC, LOAD, READONLY, CODE
  2 .text         0002267c  02000248  02000248  00001248  2**2
                  CONTENTS, ALLOC, LOAD, READONLY, CODE
  3 .rodata       00000c0c  020228c4  020228c4  000238c4  2**2
                  CONTENTS, ALLOC, LOAD, READONLY, DATA
  4 .rwdata       00001c90  020234d0  02025160  000244d0  2**2
                  CONTENTS, ALLOC, LOAD, DATA, SMALL_DATA
  5 .bss          0000b440  02026df0  02026df0  00026df0  2**2
                  ALLOC, SMALL_DATA
  6 .mem_Nios_PI  00000000  00200000  00200000  00026160  2**0
                  CONTENTS
  7 .sdram_controller 00000000  02032230  02032230  00026160  2**0
                  CONTENTS
  8 .comment      00000023  00000000  00000000  00026160  2**0
                  CONTENTS, READONLY
  9 .debug_aranges 00001320  00000000  00000000  00026188  2**3
                  CONTENTS, READONLY, DEBUGGING
 10 .debug_info   0002ee82  00000000  00000000  000274a8  2**0
                  CONTENTS, READONLY, DEBUGGING
 11 .debug_abbrev 0000b164  00000000  00000000  0005632a  2**0
                  CONTENTS, READONLY, DEBUGGING
 12 .debug_line   0000fcba  00000000  00000000  0006148e  2**0
                  CONTENTS, READONLY, DEBUGGING
 13 .debug_frame  00003ba0  00000000  00000000  00071148  2**2
                  CONTENTS, READONLY, DEBUGGING
 14 .debug_str    00005e8c  00000000  00000000  00074ce8  2**0
                  CONTENTS, READONLY, DEBUGGING
 15 .debug_loc    00009061  00000000  00000000  0007ab74  2**0
                  CONTENTS, READONLY, DEBUGGING
 16 .debug_alt_sim_info 00000030  00000000  00000000  00083bd8  2**2
                  CONTENTS, READONLY, DEBUGGING
 17 .debug_ranges 000014a8  00000000  00000000  00083c08  2**3
                  CONTENTS, READONLY, DEBUGGING
 18 .thread_model 00000006  00000000  00000000  0008a922  2**0
                  CONTENTS, READONLY
 19 .cpu          00000003  00000000  00000000  0008a928  2**0
                  CONTENTS, READONLY
 20 .qsys         00000001  00000000  00000000  0008a92b  2**0
                  CONTENTS, READONLY
 21 .simulation_enabled 00000001  00000000  00000000  0008a92c  2**0
                  CONTENTS, READONLY
 22 .sysid_hash   00000004  00000000  00000000  0008a92d  2**0
                  CONTENTS, READONLY
 23 .sysid_base   00000004  00000000  00000000  0008a931  2**0
                  CONTENTS, READONLY
 24 .sysid_time   00000004  00000000  00000000  0008a935  2**0
                  CONTENTS, READONLY
 25 .stderr_dev   00000009  00000000  00000000  0008a939  2**0
                  CONTENTS, READONLY
 26 .stdin_dev    00000009  00000000  00000000  0008a942  2**0
                  CONTENTS, READONLY
 27 .stdout_dev   00000009  00000000  00000000  0008a94b  2**0
                  CONTENTS, READONLY
 28 .sopc_system_name 00000009  00000000  00000000  0008a954  2**0
                  CONTENTS, READONLY
 29 .quartus_project_dir 00000034  00000000  00000000  0008a95d  2**0
                  CONTENTS, READONLY
 30 .jdi          00005000  00000000  00000000  0008a991  2**0
                  CONTENTS, READONLY
 31 .sopcinfo     0006901b  00000000  00000000  0008f991  2**0
                  CONTENTS, READONLY
SYMBOL TABLE:
02000000 l    d  .entry	00000000 .entry
02000020 l    d  .exceptions	00000000 .exceptions
02000248 l    d  .text	00000000 .text
020228c4 l    d  .rodata	00000000 .rodata
020234d0 l    d  .rwdata	00000000 .rwdata
02026df0 l    d  .bss	00000000 .bss
00200000 l    d  .mem_Nios_PI	00000000 .mem_Nios_PI
02032230 l    d  .sdram_controller	00000000 .sdram_controller
00000000 l    d  .comment	00000000 .comment
00000000 l    d  .debug_aranges	00000000 .debug_aranges
00000000 l    d  .debug_info	00000000 .debug_info
00000000 l    d  .debug_abbrev	00000000 .debug_abbrev
00000000 l    d  .debug_line	00000000 .debug_line
00000000 l    d  .debug_frame	00000000 .debug_frame
00000000 l    d  .debug_str	00000000 .debug_str
00000000 l    d  .debug_loc	00000000 .debug_loc
00000000 l    d  .debug_alt_sim_info	00000000 .debug_alt_sim_info
00000000 l    d  .debug_ranges	00000000 .debug_ranges
00000000 l    df *ABS*	00000000 ../Projet-Master1_bsp//obj/HAL/src/crt0.o
02000290 l       .text	00000000 alt_after_alt_main
00000000 l    df *ABS*	00000000 alt_irq_handler.c
00000000 l    df *ABS*	00000000 alt_instruction_exception_entry.c
00000000 l    df *ABS*	00000000 hello_ucosii.c
00000000 l    df *ABS*	00000000 physics.c
00000000 l    df *ABS*	00000000 s_fmin.c
00000000 l    df *ABS*	00000000 s_fpclassify.c
00000000 l    df *ABS*	00000000 sf_cos.c
02024fe8 l     O .rwdata	00000004 one
00000000 l    df *ABS*	00000000 sf_sin.c
00000000 l    df *ABS*	00000000 w_sqrt.c
00000000 l    df *ABS*	00000000 wf_atan2.c
00000000 l    df *ABS*	00000000 e_sqrt.c
02024fec l     O .rwdata	00000008 one
02024ff4 l     O .rwdata	00000008 tiny
00000000 l    df *ABS*	00000000 ef_atan2.c
02024ffc l     O .rwdata	00000004 tiny
02025000 l     O .rwdata	00000004 zero
02025004 l     O .rwdata	00000004 pi_o_4
02025008 l     O .rwdata	00000004 pi_o_2
0202500c l     O .rwdata	00000004 pi
02025010 l     O .rwdata	00000004 pi_lo
00000000 l    df *ABS*	00000000 ef_rem_pio2.c
02022c08 l     O .rodata	00000318 two_over_pi
02022f20 l     O .rodata	00000080 npio2_hw
02025014 l     O .rwdata	00000004 zero
02025018 l     O .rwdata	00000004 half
0202501c l     O .rwdata	00000004 two8
02025020 l     O .rwdata	00000004 invpio2
02025024 l     O .rwdata	00000004 pio2_1
02025028 l     O .rwdata	00000004 pio2_1t
0202502c l     O .rwdata	00000004 pio2_2
02025030 l     O .rwdata	00000004 pio2_2t
02025034 l     O .rwdata	00000004 pio2_3
02025038 l     O .rwdata	00000004 pio2_3t
00000000 l    df *ABS*	00000000 kf_cos.c
0202503c l     O .rwdata	00000004 one
02025040 l     O .rwdata	00000004 C1
02025044 l     O .rwdata	00000004 C2
02025048 l     O .rwdata	00000004 C3
0202504c l     O .rwdata	00000004 C4
02025050 l     O .rwdata	00000004 C5
02025054 l     O .rwdata	00000004 C6
00000000 l    df *ABS*	00000000 kf_rem_pio2.c
02022fa0 l     O .rodata	0000000c init_jk
02022fac l     O .rodata	0000002c PIo2
02025058 l     O .rwdata	00000004 zero
0202505c l     O .rwdata	00000004 one
02025060 l     O .rwdata	00000004 two8
02025064 l     O .rwdata	00000004 twon8
00000000 l    df *ABS*	00000000 kf_sin.c
02025068 l     O .rwdata	00000004 half
0202506c l     O .rwdata	00000004 S1
02025070 l     O .rwdata	00000004 S2
02025074 l     O .rwdata	00000004 S3
02025078 l     O .rwdata	00000004 S4
0202507c l     O .rwdata	00000004 S5
02025080 l     O .rwdata	00000004 S6
00000000 l    df *ABS*	00000000 s_lib_ver.c
00000000 l    df *ABS*	00000000 s_matherr.c
00000000 l    df *ABS*	00000000 sf_atan.c
02022fd8 l     O .rodata	00000010 atanhi
02022fe8 l     O .rodata	00000010 atanlo
02022ff8 l     O .rodata	0000002c aT
02025088 l     O .rwdata	00000004 one
0202508c l     O .rwdata	00000004 huge
00000000 l    df *ABS*	00000000 sf_fabs.c
00000000 l    df *ABS*	00000000 sf_floor.c
02025090 l     O .rwdata	00000004 huge
00000000 l    df *ABS*	00000000 sf_scalbn.c
02025094 l     O .rwdata	00000004 two25
02025098 l     O .rwdata	00000004 twom25
0202509c l     O .rwdata	00000004 huge
020250a0 l     O .rwdata	00000004 tiny
00000000 l    df *ABS*	00000000 sf_copysign.c
00000000 l    df *ABS*	00000000 lib2-divmod.c
00000000 l    df *ABS*	00000000 adddf3.c
00000000 l    df *ABS*	00000000 divdf3.c
00000000 l    df *ABS*	00000000 eqdf2.c
00000000 l    df *ABS*	00000000 gedf2.c
00000000 l    df *ABS*	00000000 ledf2.c
00000000 l    df *ABS*	00000000 muldf3.c
00000000 l    df *ABS*	00000000 subdf3.c
00000000 l    df *ABS*	00000000 extendsfdf2.c
00000000 l    df *ABS*	00000000 truncdfsf2.c
00000000 l    df *ABS*	00000000 libgcc2.c
00000000 l    df *ABS*	00000000 libgcc2.c
00000000 l    df *ABS*	00000000 errno.c
00000000 l    df *ABS*	00000000 impure.c
02023500 l     O .rwdata	00000424 impure_data
00000000 l    df *ABS*	00000000 memcpy.c
00000000 l    df *ABS*	00000000 memset.c
00000000 l    df *ABS*	00000000 printf.c
00000000 l    df *ABS*	00000000 puts.c
00000000 l    df *ABS*	00000000 strlen.c
00000000 l    df *ABS*	00000000 vfprintf.c
0200a2dc l     F .text	000000f0 __sbprintf
0200c4ec l     F .text	0000020c cvt
0200c6f8 l     F .text	00000140 exponent
0202318a l     O .rodata	00000010 blanks.4403
0202319a l     O .rodata	00000010 zeroes.4404
00000000 l    df *ABS*	00000000 wsetup.c
00000000 l    df *ABS*	00000000 dtoa.c
0200c9d8 l     F .text	000003b4 quorem
00000000 l    df *ABS*	00000000 fflush.c
00000000 l    df *ABS*	00000000 findfp.c
0200ece4 l     F .text	000000f4 std
02026e38 l     O .bss	00000004 __sfp_lock
02026e3c l     O .bss	00000004 __sinit_lock
0200f1e0 l     F .text	00000024 __fp_lock
0200f204 l     F .text	00000024 __fp_unlock
00000000 l    df *ABS*	00000000 mallocr.c
00000000 l    df *ABS*	00000000 fvwrite.c
00000000 l    df *ABS*	00000000 fwalk.c
00000000 l    df *ABS*	00000000 locale.c
02023924 l     O .rwdata	00000038 lconv
0202395c l     O .rwdata	00000020 lc_ctype_charset
0202397c l     O .rwdata	00000020 lc_message_charset
02026e4c l     O .bss	00000004 lc_ctype_cjk_lang
00000000 l    df *ABS*	00000000 makebuf.c
00000000 l    df *ABS*	00000000 mallocr.c
02010534 l     F .text	000003b4 malloc_extend_top
00000000 l    df *ABS*	00000000 memchr.c
00000000 l    df *ABS*	00000000 memmove.c
00000000 l    df *ABS*	00000000 mprec.c
020232ec l     O .rodata	0000000c p05.2768
00000000 l    df *ABS*	00000000 mallocr.c
00000000 l    df *ABS*	00000000 sbrkr.c
00000000 l    df *ABS*	00000000 stdio.c
00000000 l    df *ABS*	00000000 strcmp.c
00000000 l    df *ABS*	00000000 vfprintf.c
020143e0 l     F .text	000000f0 __sbprintf
02023342 l     O .rodata	00000010 blanks.4348
02023352 l     O .rodata	00000010 zeroes.4349
00000000 l    df *ABS*	00000000 writer.c
00000000 l    df *ABS*	00000000 closer.c
00000000 l    df *ABS*	00000000 mallocr.c
00000000 l    df *ABS*	00000000 fclose.c
00000000 l    df *ABS*	00000000 fputwc.c
00000000 l    df *ABS*	00000000 fstatr.c
00000000 l    df *ABS*	00000000 int_errno.c
00000000 l    df *ABS*	00000000 isattyr.c
00000000 l    df *ABS*	00000000 lseekr.c
00000000 l    df *ABS*	00000000 readr.c
00000000 l    df *ABS*	00000000 wbuf.c
00000000 l    df *ABS*	00000000 wcrtomb.c
00000000 l    df *ABS*	00000000 wctomb_r.c
00000000 l    df *ABS*	00000000 libgcc2.c
00000000 l    df *ABS*	00000000 libgcc2.c
00000000 l    df *ABS*	00000000 fixdfsi.c
00000000 l    df *ABS*	00000000 floatsidf.c
00000000 l    df *ABS*	00000000 floatunsidf.c
00000000 l    df *ABS*	00000000 alt_close.c
020170ec l     F .text	0000003c alt_get_errno
00000000 l    df *ABS*	00000000 alt_dev.c
020171f8 l     F .text	0000002c alt_dev_null_write
00000000 l    df *ABS*	00000000 alt_errno.c
00000000 l    df *ABS*	00000000 alt_fstat.c
02017224 l     F .text	0000003c alt_get_errno
00000000 l    df *ABS*	00000000 alt_isatty.c
02017310 l     F .text	0000003c alt_get_errno
00000000 l    df *ABS*	00000000 alt_load.c
020173f0 l     F .text	00000068 alt_load_section
00000000 l    df *ABS*	00000000 alt_lseek.c
020174dc l     F .text	0000003c alt_get_errno
00000000 l    df *ABS*	00000000 alt_main.c
00000000 l    df *ABS*	00000000 alt_read.c
020176a8 l     F .text	0000003c alt_get_errno
00000000 l    df *ABS*	00000000 alt_release_fd.c
00000000 l    df *ABS*	00000000 alt_sbrk.c
020250d4 l     O .rwdata	00000004 heap_end
00000000 l    df *ABS*	00000000 alt_write.c
020178f4 l     F .text	0000003c alt_get_errno
00000000 l    df *ABS*	00000000 alt_env_lock.c
020250d8 l     O .rwdata	00000004 lockid
02026e70 l     O .bss	00000004 locks
00000000 l    df *ABS*	00000000 alt_malloc_lock.c
020250dc l     O .rwdata	00000004 lockid
02026e78 l     O .bss	00000004 locks
00000000 l    df *ABS*	00000000 os_core.c
02019324 l     F .text	00000048 OS_InitMisc
0201936c l     F .text	0000006c OS_InitRdyList
020194d8 l     F .text	000000e4 OS_InitTCBList
02019244 l     F .text	000000e0 OS_InitEventList
020193d8 l     F .text	00000080 OS_InitTaskIdle
02019458 l     F .text	00000080 OS_InitTaskStat
02019748 l     F .text	00000074 OS_SchedNew
00000000 l    df *ABS*	00000000 os_dbg.c
00000000 l    df *ABS*	00000000 os_flag.c
0201b458 l     F .text	000000f4 OS_FlagTaskRdy
0201b218 l     F .text	00000160 OS_FlagBlock
00000000 l    df *ABS*	00000000 os_mbox.c
00000000 l    df *ABS*	00000000 os_mem.c
00000000 l    df *ABS*	00000000 os_q.c
00000000 l    df *ABS*	00000000 os_sem.c
00000000 l    df *ABS*	00000000 os_task.c
00000000 l    df *ABS*	00000000 os_time.c
00000000 l    df *ABS*	00000000 alt_sys_init.c
0201ffc4 l     F .text	00000034 alt_dev_reg
02023f4c l     O .rwdata	0000106c jtag_uart
02024fb8 l     O .rwdata	0000002c accelerometer_spi_0
00000000 l    df *ABS*	00000000 altera_avalon_jtag_uart_fd.c
00000000 l    df *ABS*	00000000 altera_avalon_jtag_uart_init.c
0202033c l     F .text	000002a8 altera_avalon_jtag_uart_irq
020205e4 l     F .text	00000104 altera_avalon_jtag_uart_timeout
00000000 l    df *ABS*	00000000 altera_avalon_jtag_uart_ioctl.c
00000000 l    df *ABS*	00000000 altera_avalon_jtag_uart_read.c
00000000 l    df *ABS*	00000000 altera_avalon_jtag_uart_write.c
00000000 l    df *ABS*	00000000 altera_avalon_timer_sc.c
02020dc0 l     F .text	0000007c alt_avalon_timer_sc_irq
00000000 l    df *ABS*	00000000 altera_up_avalon_accelerometer_spi.c
00000000 l    df *ABS*	00000000 alt_alarm_start.c
00000000 l    df *ABS*	00000000 alt_dcache_flush_all.c
00000000 l    df *ABS*	00000000 alt_dev_llist_insert.c
020213d4 l     F .text	0000003c alt_get_errno
00000000 l    df *ABS*	00000000 alt_do_ctors.c
00000000 l    df *ABS*	00000000 alt_do_dtors.c
00000000 l    df *ABS*	00000000 alt_find_dev.c
00000000 l    df *ABS*	00000000 alt_icache_flush_all.c
00000000 l    df *ABS*	00000000 alt_io_redirect.c
02021638 l     F .text	000000c4 alt_open_fd
00000000 l    df *ABS*	00000000 alt_irq_register.c
00000000 l    df *ABS*	00000000 alt_irq_vars.c
00000000 l    df *ABS*	00000000 alt_open.c
020218f8 l     F .text	0000003c alt_get_errno
02021934 l     F .text	000000c4 alt_file_locked
00000000 l    df *ABS*	00000000 alt_tick.c
00000000 l    df *ABS*	00000000 altera_nios2_gen2_irq.c
00000000 l    df *ABS*	00000000 os_cpu_a.o
00000040 l       *ABS*	00000000 OSCtxSw_SWITCH_PC
00000000 l    df *ABS*	00000000 os_cpu_c.c
00000014 l       *ABS*	00000000 OSTCBNext_OFFSET
00000032 l       *ABS*	00000000 OSTCBPrio_OFFSET
00000000 l       *ABS*	00000000 OSTCBStkPtr_OFFSET
00000000 l    df *ABS*	00000000 alt_find_file.c
00000000 l    df *ABS*	00000000 alt_get_fd.c
00000000 l    df *ABS*	00000000 alt_icache_flush.c
00000000 l    df *ABS*	00000000 atexit.c
00000000 l    df *ABS*	00000000 exit.c
00000000 l    df *ABS*	00000000 memcmp.c
00000000 l    df *ABS*	00000000 __atexit.c
00000000 l    df *ABS*	00000000 __call_atexit.c
02026ee0 l     O .bss	00000004 __atexit_lock
00000000 l    df *ABS*	00000000 alt_exit.c
02026edc g     O .bss	00000004 alt_instruction_exception_handler
02012fec g     F .text	000000b0 _mprec_log10
0202512a g     O .rwdata	00000002 OSTaskNameSize
0201316c g     F .text	00000134 __any_on
02015ec8 g     F .text	00000060 _isatty_r
020232c4 g     O .rodata	00000028 __mprec_tinytens
020175ec g     F .text	000000bc alt_main
02026df4 g     O .bss	00000004 MailBox9
0200a098 g     F .text	00000118 _puts_r
02032130 g     O .bss	00000100 alt_irq
02026df8 g     O .bss	00000004 MailBox6
02015f28 g     F .text	00000070 _lseek_r
0201c740 g     F .text	000000cc OS_MemInit
0200471c g     F .text	00000174 sqrt
02025160 g       *ABS*	00000000 __flash_rwdata_start
0201ff64 g     F .text	00000060 OSTimeSet
020086d8 g     F .text	00000088 .hidden __eqdf2
02017f98 g     F .text	00000610 OSEventPendMulti
02032230 g       *ABS*	00000000 __alt_heap_start
02021f40 g     F .text	00000024 OSTaskCreateHook
02026f0c g     O .bss	00002000 task1_stk
0200a030 g     F .text	00000068 printf
02025102 g     O .rwdata	00000002 OSMboxEn
02018600 g     F .text	0000004c OSIntEnter
020161b0 g     F .text	000000d4 _wcrtomb_r
02014070 g     F .text	000000a0 __sseek
0200f088 g     F .text	000000d8 __sinit
02016008 g     F .text	00000168 __swbuf_r
02025112 g     O .rwdata	00000002 OSQEn
02010164 g     F .text	00000084 _setlocale_r
0200edd8 g     F .text	000000a4 __sfmoreglue
02017c6c g     F .text	000000cc __malloc_unlock
02021fa8 g     F .text	00000020 OSTaskStatHook
02026e80 g     O .bss	00000001 OSLockNesting
02025150 g     O .rwdata	00000002 OSDataSize
02026e81 g     O .bss	00000001 OSRunning
02011620 g     F .text	00000208 memmove
02021fe8 g     F .text	00000020 OSInitHookBegin
02025148 g     O .rwdata	00000002 OSTmrSize
0200f054 g     F .text	00000034 _cleanup
02024fe4 g     O .rwdata	00000004 accel_name
02011828 g     F .text	00000130 _Balloc
02026dfc g     O .bss	00000004 MailBox13
02026e84 g     O .bss	00000004 OSIdleCtr
02008760 g     F .text	000000dc .hidden __gtdf2
02021cf0 g     F .text	00000024 altera_nios2_gen2_irq_init
02021dc0 g       .text	00000000 OSStartTsk
02009c60 g     F .text	00000020 __errno
02019a78 g     F .text	000002d4 OS_TCBInit
02000000 g     F .entry	0000001c __reset
0200532c g     F .text	00000674 __ieee754_rem_pio2f
00200000 g       *ABS*	00000000 __alt_mem_mem_Nios_PI
02020ffc g     F .text	000000cc alt_up_accelerometer_spi_read_x_axis
0202514e g     O .rwdata	00000002 OSTmrWheelTblSize
02000020 g       *ABS*	00000000 __flash_exceptions_start
020250ee g     O .rwdata	00000002 OSEventSize
02026e88 g     O .bss	00000001 OSPrioHighRdy
02015e60 g     F .text	00000068 _fstat_r
02021f64 g     F .text	00000024 OSTaskDelHook
02026e5c g     O .bss	00000004 errno
02013f8c g     F .text	00000030 __seofread
02021da0 g       .text	00000000 OSStartHighRdy
0201ea0c g     F .text	000001e4 OSTaskCreateExt
02000000 g       *ABS*	00000000 __alt_mem_sdram_controller
0201ad60 g     F .text	00000060 OSFlagPendGetFlagsRdy
0202512e g     O .rwdata	00000002 OSTaskStatStkSize
02019edc g     F .text	00000308 OSFlagAccept
0201cd78 g     F .text	000000b8 OSQFlush
0201c80c g     F .text	00000140 OSQAccept
02026e68 g     O .bss	00000004 alt_argv
0202cfe4 g       *ABS*	00000000 _gp
0201e860 g     F .text	000001ac OSTaskCreate
020041f4 g     F .text	000000f4 damping
0201e370 g     F .text	000004f0 OSTaskChangePrio
02026e7c g     O .bss	00000004 alt_heapsem
02003670 g     F .text	000000cc task4
02019d4c g     F .text	00000190 OSDebugInit
0201ebf0 g     F .text	00000344 OSTaskDel
02023dcc g     O .rwdata	00000180 alt_fd_list
0202ef0c g     O .bss	00000370 OSFlagTbl
02019024 g     F .text	000000b8 OS_EventTaskRemove
02021574 g     F .text	00000090 alt_find_dev
02009c80 g     F .text	00000188 memcpy
02025118 g     O .rwdata	00000002 OSRdyTblSize
02026e00 g     O .bss	00000004 MailBox3
0200f010 g     F .text	00000044 _cleanup_r
02016f68 g     F .text	000000dc .hidden __floatsidf
020216fc g     F .text	0000007c alt_io_redirect
0200883c g     F .text	000000f4 .hidden __ltdf2
020228c4 g       *ABS*	00000000 __DTOR_END__
0200a1b0 g     F .text	00000038 puts
020222e0 g     F .text	0000009c alt_exception_cause_generated_bad_addr
02017d38 g     F .text	00000120 OSEventNameGet
020250fc g     O .rwdata	00000002 OSFlagMax
02004394 g     F .text	00000104 __fpclassifyd
02012ed0 g     F .text	0000011c __ratio
0201864c g     F .text	000000f8 OSIntExit
020144d0 g     F .text	00000050 __vfiprintf_internal
02025136 g     O .rwdata	00000002 OSTCBSize
02026e89 g     O .bss	00000001 OSPrioCur
02020840 g     F .text	000002bc altera_avalon_jtag_uart_read
02009fcc g     F .text	00000064 _printf_r
02007488 g     F .text	00000064 .hidden __udivsi3
0201734c g     F .text	000000a4 isatty
0202511c g     O .rwdata	00000002 OSStkWidth
020231d4 g     O .rodata	000000c8 __mprec_tens
02025110 g     O .rwdata	00000002 OSPtrSize
020101e8 g     F .text	00000024 __locale_charset
020250f0 g     O .rwdata	00000002 OSEventTblSize
02021d14 g       .text	00000000 OSCtxSw
02022250 g     F .text	00000090 alt_icache_flush
02026e50 g     O .bss	00000004 __malloc_top_pad
02026e8c g     O .bss	00000004 OSTCBList
02026e60 g     O .bss	00000004 alt_fd_list_lock
020250ac g     O .rwdata	00000004 __mb_cur_max
02010270 g     F .text	00000028 _localeconv_r
02011e70 g     F .text	00000058 __i2b
0200f9d4 g     F .text	000005dc __sfvwrite_r
0202f27c g     O .bss	00000c30 OSMemTbl
02026e90 g     O .bss	00000001 OSTickStepState
02013e90 g     F .text	00000060 _sbrk_r
02025114 g     O .rwdata	00000002 OSQMax
0202feac g     O .bss	00000800 OSTaskStatStk
0201c37c g     F .text	000000f0 OSMemNameGet
02006f48 g     F .text	00000058 fabsf
02028f0c g     O .bss	00002000 task4_stk
020250f4 g     O .rwdata	00000002 OSFlagEn
02015f98 g     F .text	00000070 _read_r
0202513a g     O .rwdata	00000002 OSTimeTickHookEn
0201d228 g     F .text	00000168 OSQPost
0201b54c g     F .text	000000a4 OS_FlagUnlink
020250cc g     O .rwdata	00000004 alt_max_fd
02019610 g     F .text	00000068 OS_MemCopy
02019678 g     F .text	000000d0 OS_Sched
02015a18 g     F .text	0000012c _fclose_r
0201c28c g     F .text	000000f0 OSMemGet
0201bfa8 g     F .text	00000110 OSMboxQuery
0201f21c g     F .text	000001b4 OSTaskNameSet
0200ec90 g     F .text	00000054 fflush
02026e54 g     O .bss	00000004 __malloc_max_sbrked_mem
02026e94 g     O .bss	00000004 OSCtxSwCtr
02021fc8 g     F .text	00000020 OSTimeTickHook
02021778 g     F .text	00000180 alt_irq_register
020250fe g     O .rwdata	00000002 OSFlagNameSize
02026e04 g     O .bss	00000004 AnimationFlagGrp
02009944 g     F .text	00000110 .hidden __extendsfdf2
020190dc g     F .text	00000100 OS_EventTaskRemoveMulti
02007544 g     F .text	000008ac .hidden __adddf3
02018ed4 g     F .text	00000150 OS_EventTaskWaitMulti
02012a8c g     F .text	00000204 __b2d
02025116 g     O .rwdata	00000002 OSQSize
020169b0 g     F .text	00000538 .hidden __umoddi3
02017518 g     F .text	000000d4 lseek
0201dcd8 g     F .text	0000020c OSSemPend
02025084 g     O .rwdata	00000004 __fdlib_version
02003c44 g     F .text	00000064 momentum
020250a8 g     O .rwdata	00000004 _global_impure_ptr
020132a0 g     F .text	00000bf0 _realloc_r
02006a04 g     F .text	0000016c __kernel_sinf
02025100 g     O .rwdata	00000002 OSLowestPrio
02032230 g       *ABS*	00000000 __bss_end
02022048 g     F .text	00000024 OSTCBInitHook
02025146 g     O .rwdata	00000002 OSTmrCfgTicksPerSec
02021be8 g     F .text	00000108 alt_tick
0201bd3c g     F .text	00000110 OSMboxPost
02016438 g     F .text	00000578 .hidden __udivdi3
02015d70 g     F .text	00000088 _fputwc_r
020250e8 g     O .rwdata	00000002 OSEventEn
0202329c g     O .rodata	00000028 __mprec_bigtens
02011b68 g     F .text	0000018c __s2b
02025142 g     O .rwdata	00000002 OSTmrCfgNameSize
02017044 g     F .text	000000a8 .hidden __floatunsidf
02012608 g     F .text	00000114 __mcmp
02000330 g     F .text	00000054 x_uncompress
0200f228 g     F .text	00000040 __fp_lock_all
02026e08 g     O .bss	00000004 MailBox5
0201b378 g     F .text	000000e0 OS_FlagInit
02021b4c g     F .text	0000009c alt_alarm_stop
02025124 g     O .rwdata	00000002 OSTaskIdleStkSize
02004498 g     F .text	00000140 cosf
02026ed0 g     O .bss	00000004 alt_irq_active
0201d910 g     F .text	000000b0 OSSemAccept
0201c580 g     F .text	000000d8 OSMemPut
0201c0b8 g     F .text	000001d4 OSMemCreate
02026e98 g     O .bss	00000004 OSIdleCtrMax
020000fc g     F .exceptions	000000d8 alt_irq_handler
02023da4 g     O .rwdata	00000028 alt_dev_null
02025138 g     O .rwdata	00000002 OSTicksPerSec
02021d14 g       .text	00000000 OSIntCtxSw
0202138c g     F .text	00000048 alt_dcache_flush_all
02011cf4 g     F .text	00000090 __hi0bits
02016ee8 g     F .text	00000080 .hidden __fixdfsi
020059a0 g     F .text	000001c4 __kernel_cosf
02026e9c g     O .bss	00000004 OSTCBFreeList
02025160 g       *ABS*	00000000 __ram_rwdata_end
0201dee4 g     F .text	0000016c OSSemPendAbort
020250c4 g     O .rwdata	00000008 alt_dev_list
02017930 g     F .text	000000f8 write
02026e0c g     O .bss	00000004 ActivateTask4Grp
0202513c g     O .rwdata	00000002 OSVersionNbr
020234d0 g       *ABS*	00000000 __ram_rodata_end
02017260 g     F .text	000000b0 fstat
0200883c g     F .text	000000f4 .hidden __ledf2
020250e4 g     O .rwdata	00000004 OSEndiannessTest
02012298 g     F .text	00000178 __pow5mult
02014520 g     F .text	000012c4 ___vfiprintf_internal_r
02026e40 g     O .bss	00000004 __nlocale_changed
020074ec g     F .text	00000058 .hidden __umodsi3
020250f6 g     O .rwdata	00000002 OSFlagGrpSize
02032230 g       *ABS*	00000000 end
02020200 g     F .text	0000013c altera_avalon_jtag_uart_init
020198e0 g     F .text	000000cc OS_TaskStat
020001d4 g     F .exceptions	00000074 alt_instruction_exception_entry
020228c4 g       *ABS*	00000000 __CTOR_LIST__
04000000 g       *ABS*	00000000 __alt_stack_pointer
02020e3c g     F .text	00000074 alt_avalon_timer_sc_init
02009bfc g     F .text	00000064 .hidden __clzsi2
02020afc g     F .text	000002c4 altera_avalon_jtag_uart_write
0200f160 g     F .text	00000020 __sfp_lock_acquire
02011464 g     F .text	000001bc memchr
020195bc g     F .text	00000054 OS_MemClr
0200a41c g     F .text	000020d0 ___vfprintf_internal_r
02021de4 g     F .text	0000015c OSTaskStkInit
020003e4 g     F .text	000003c0 task1
020234d0 g     O .rwdata	00000030 whole_list
0200f2a8 g     F .text	00000560 _free_r
0201020c g     F .text	00000020 __locale_mb_cur_max
02018c2c g     F .text	00000198 OS_EventTaskRdy
020226a4 g     F .text	000001ec __call_exitprocs
02026ea0 g     O .bss	00000001 OSCPUUsage
02026e44 g     O .bss	00000004 __mlocale_changed
020250b4 g     O .rwdata	00000004 __malloc_sbrk_base
02000248 g     F .text	0000004c _start
020007a4 g     F .text	000024f8 task2
02026ed4 g     O .bss	00000004 _alt_tick_rate
0201ce30 g     F .text	0000028c OSQPend
0201fadc g     F .text	00000104 OSTimeDly
02003aec g     F .text	00000158 borderCollide
02012410 g     F .text	000001f8 __lshift
02026ed8 g     O .bss	00000004 _alt_nticks
020176e4 g     F .text	000000fc read
02020030 g     F .text	0000006c alt_sys_init
02020eec g     F .text	00000044 alt_up_accelerometer_spi_read_address_register
02022534 g     F .text	00000170 __register_exitproc
02026ea1 g     O .bss	00000001 OSTaskCtr
02026e10 g     O .bss	00000004 MailBox10
02026e14 g     O .bss	00000004 MailBox2
0201fbe0 g     F .text	00000154 OSTimeDlyHMSM
02011ec8 g     F .text	000003d0 __multiply
020206e8 g     F .text	00000068 altera_avalon_jtag_uart_close
020234d0 g       *ABS*	00000000 __ram_rwdata_start
020228c4 g       *ABS*	00000000 __ram_rodata_start
02026ee4 g     O .bss	00000028 __malloc_current_mallinfo
020250ea g     O .rwdata	00000002 OSEventMax
02012c90 g     F .text	00000240 __d2b
0201e050 g     F .text	00000110 OSSemPost
020187d0 g     F .text	000000dc OSSchedUnlock
020042e8 g     F .text	000000ac fmin
0202009c g     F .text	00000060 altera_avalon_jtag_uart_read_fd
02022174 g     F .text	000000dc alt_get_fd
02026ea4 g     O .bss	00000004 OSMemFreeList
0201891c g     F .text	000000b0 OSStatInit
0201b154 g     F .text	000000c4 OSFlagQuery
020210c8 g     F .text	000000cc alt_up_accelerometer_spi_read_y_axis
02025120 g     O .rwdata	00000002 OSTaskCreateExtEn
02015854 g     F .text	00000060 _close_r
02026e18 g     O .bss	00000004 MailBox12
02022400 g     F .text	00000134 memcmp
02018c0c g     F .text	00000020 OS_Dummy
0202015c g     F .text	00000050 altera_avalon_jtag_uart_close_fd
02032230 g       *ABS*	00000000 __alt_stack_base
020201ac g     F .text	00000054 altera_avalon_jtag_uart_ioctl_fd
0200c838 g     F .text	000001a0 __swsetup_r
020306ac g     O .bss	000001e0 OSQTbl
02007df0 g     F .text	000008e8 .hidden __divdf3
0200ee7c g     F .text	00000194 __sfp
0201309c g     F .text	000000d0 __copybits
0202399c g     O .rwdata	00000408 __malloc_av_
0200f1c0 g     F .text	00000020 __sinit_lock_release
02026ea8 g     O .bss	00000004 OSTCBHighRdy
02008930 g     F .text	00000718 .hidden __muldf3
02013ef0 g     F .text	0000009c __sread
02026eac g     O .bss	00000004 OSQFreeList
0202206c g     F .text	00000108 alt_find_file
02021410 g     F .text	000000a4 alt_dev_llist_insert
02017b4c g     F .text	00000120 __malloc_lock
02017844 g     F .text	000000b0 sbrk
02007104 g     F .text	00000214 scalbnf
02017e58 g     F .text	00000140 OSEventNameSet
0200ec08 g     F .text	00000088 _fflush_r
020158b4 g     F .text	00000164 _calloc_r
02026eb0 g     O .bss	00000001 OSRdyGrp
02026df0 g       *ABS*	00000000 __bss_start
02009e08 g     F .text	000001c4 memset
0200373c g     F .text	0000023c main
02026e6c g     O .bss	00000004 alt_envp
02026e1c g     O .bss	00000004 MailBox8
02026e58 g     O .bss	00000004 __malloc_max_total_mem
020040f0 g     F .text	00000104 moveBall
020200fc g     F .text	00000060 altera_avalon_jtag_uart_write_fd
02016170 g     F .text	00000040 __swbuf
02023380 g     O .rodata	00000100 OSUnMapTbl
0202511a g     O .rwdata	00000002 OSSemEn
0201adc0 g     F .text	00000394 OSFlagPost
02014110 g     F .text	00000054 __sclose
02006b70 g     F .text	00000068 matherr
04000000 g       *ABS*	00000000 __alt_heap_limit
02015b44 g     F .text	00000038 fclose
02018dc4 g     F .text	00000110 OS_EventTaskWait
0202af0c g     O .bss	00002000 task2_stk
02009a54 g     F .text	000001a8 .hidden __truncdfsf2
020199ac g     F .text	000000cc OS_TaskStatStkChk
0201ef34 g     F .text	00000150 OSTaskDelReq
0200cd8c g     F .text	00001b78 _dtoa_r
020108e8 g     F .text	00000b7c _malloc_r
020163c0 g     F .text	00000078 __ascii_wctomb
020250d0 g     O .rwdata	00000004 alt_errno
020188ac g     F .text	00000070 OSStart
0202cf0c g     O .bss	00002000 task3_stk
02017aec g     F .text	00000060 __env_unlock
0200ffb0 g     F .text	000000d8 _fwalk
0201f3d0 g     F .text	000001d4 OSTaskResume
0201c658 g     F .text	000000e8 OSMemQuery
0202512c g     O .rwdata	00000002 OSTaskStatEn
02025106 g     O .rwdata	00000002 OSMemMax
0201d390 g     F .text	00000170 OSQPostFront
02007390 g     F .text	00000084 .hidden __divsi3
02026eb1 g     O .bss	00000003 OSRdyTbl
020250e0 g     O .rwdata	00000002 OSDebugEn
0200f808 g     F .text	000001cc _malloc_trim_r
02026e20 g     O .bss	00000004 MailBox4
020228c4 g       *ABS*	00000000 __CTOR_END__
02026e24 g     O .bss	00000004 MailBox7
020250f8 g     O .rwdata	00000002 OSFlagNodeSize
02025140 g     O .rwdata	00000002 OSTmrCfgMax
02014164 g     F .text	00000140 strcmp
0201c94c g     F .text	000001ac OSQCreate
0201f084 g     F .text	00000198 OSTaskNameGet
020228c4 g       *ABS*	00000000 __flash_rodata_start
0201d500 g     F .text	0000020c OSQPostOpt
020189cc g     F .text	00000220 OSTimeTick
02025128 g     O .rwdata	00000002 OSTaskMax
020228c4 g       *ABS*	00000000 __DTOR_LIST__
0201d9c0 g     F .text	000000d8 OSSemCreate
0202514c g     O .rwdata	00000002 OSTmrWheelSize
020086d8 g     F .text	00000088 .hidden __nedf2
02025122 g     O .rwdata	00000002 OSTaskDelEn
0201e160 g     F .text	00000110 OSSemQuery
0201caf8 g     F .text	00000280 OSQDel
0201d0bc g     F .text	0000016c OSQPendAbort
0201fff8 g     F .text	00000038 alt_irq_init
020177e0 g     F .text	00000064 alt_release_fd
02007318 g     F .text	00000078 copysignf
02023024 g     O .rodata	00000100 .hidden __clz_tab
02026e48 g     O .bss	00000004 _PathLocale
0202237c g     F .text	0000003c atexit
020157e4 g     F .text	00000070 _write_r
02018744 g     F .text	0000008c OSSchedLock
02010298 g     F .text	00000040 setlocale
0201a1e4 g     F .text	00000108 OSFlagCreate
020250a4 g     O .rwdata	00000004 _impure_ptr
02026e64 g     O .bss	00000004 alt_argc
0200e904 g     F .text	00000304 __sflush_r
02004890 g     F .text	00000040 atan2f
02021514 g     F .text	00000060 _do_dtors
02010250 g     F .text	00000020 __locale_cjk_lang
020250f2 g     O .rwdata	00000002 OSEventMultiEn
0201a2ec g     F .text	00000248 OSFlagDel
02026eb4 g     O .bss	00000004 OSEventFreeList
02000020 g       .exceptions	00000000 alt_irq_entry
0201bbd0 g     F .text	0000016c OSMboxPendAbort
02026df0 g     O .bss	00000004 accel_spi
020129c0 g     F .text	000000cc __ulp
02026e28 g     O .bss	00000004 MailBox11
0202513e g     O .rwdata	00000002 OSTmrEn
0201a7a8 g     F .text	000005b8 OSFlagPend
0200f268 g     F .text	00000040 __fp_unlock_all
020250bc g     O .rwdata	00000008 alt_fs_list
020197bc g     F .text	00000074 OS_StrCopy
020045d8 g     F .text	00000144 sinf
02025108 g     O .rwdata	00000002 OSMemNameSize
02022008 g     F .text	00000020 OSInitHookEnd
02000020 g       *ABS*	00000000 __ram_exceptions_start
02020eb0 g     F .text	0000003c alt_up_accelerometer_spi_open_dev
02025134 g     O .rwdata	00000002 OSTCBPrioTblMax
020102d8 g     F .text	00000030 localeconv
020048d0 g     F .text	00000648 __ieee754_sqrt
02025130 g     O .rwdata	00000002 OSTaskStatStkChkEn
0201b688 g     F .text	000000d4 OSMboxCreate
02025104 g     O .rwdata	00000002 OSMemEn
0202510e g     O .rwdata	00000002 OSMutexEn
02025160 g       *ABS*	00000000 _edata
02003d68 g     F .text	00000388 collide_calc
02032230 g       *ABS*	00000000 _end
02026eb8 g     O .bss	00000001 OSIntNesting
02015b7c g     F .text	000001f4 __fputwc
02000248 g       *ABS*	00000000 __ram_exceptions_end
02020750 g     F .text	000000f0 altera_avalon_jtag_uart_ioctl
0201fd34 g     F .text	000001d4 OSTimeDlyResume
0201a65c g     F .text	0000014c OSFlagNameSet
0201b99c g     F .text	00000234 OSMboxPend
02003978 g     F .text	00000174 whole_collide
0201f5a4 g     F .text	000001c0 OSTaskStkChk
0202510a g     O .rwdata	00000002 OSMemSize
02013fbc g     F .text	000000b4 __swrite
020250b0 g     O .rwdata	00000004 __malloc_trim_threshold
0201022c g     F .text	00000024 __locale_msgcharset
02026ebc g     O .bss	00000004 OSTCBCur
020223b8 g     F .text	00000048 exit
0202510c g     O .rwdata	00000002 OSMemTblSize
02010088 g     F .text	000000dc _fwalk_reent
02026e2c g     O .bss	00000004 MailBox1
0201271c g     F .text	000002a4 __mdiff
02007414 g     F .text	00000074 .hidden __modsi3
02021194 g     F .text	000000cc alt_up_accelerometer_spi_read_z_axis
0201b5f0 g     F .text	00000098 OSMboxAccept
04000000 g       *ABS*	00000000 __alt_data_end
02000020 g     F .exceptions	00000000 alt_exception
0200f180 g     F .text	00000020 __sfp_lock_release
020185a8 g     F .text	00000058 OSInit
02006bd8 g     F .text	00000370 atanf
0201f948 g     F .text	00000124 OSTaskQuery
0201d868 g     F .text	000000a8 OS_QInit
02019830 g     F .text	00000054 OS_StrLen
0201c46c g     F .text	00000114 OSMemNameSet
02000294 g     F .text	0000009c compress
02025126 g     O .rwdata	00000002 OSTaskProfileEn
02026ec0 g     O .bss	00000004 OSTime
02026e30 g     O .bss	00000004 isActiveFlagGrp
0203088c g     O .bss	00000800 OSTaskIdleStk
02022890 g     F .text	00000034 _exit
02000384 g     F .text	00000060 y_uncompress
0201be4c g     F .text	0000015c OSMboxPostOpt
02005b64 g     F .text	00000ea0 __kernel_rem_pio2f
02021260 g     F .text	0000012c alt_alarm_start
0201a534 g     F .text	00000128 OSFlagNameGet
02003ca8 g     F .text	000000c0 detect_collide
0201ff08 g     F .text	0000005c OSTimeGet
02020f30 g     F .text	00000068 alt_up_accelerometer_spi_read
02020f98 g     F .text	00000064 alt_up_accelerometer_spi_write
02010308 g     F .text	0000022c __smakebuf_r
0200a1e8 g     F .text	000000f4 strlen
02021f88 g     F .text	00000020 OSTaskSwHook
020219f8 g     F .text	00000154 open
0203108c g     O .bss	00000b40 OSEventTbl
02008760 g     F .text	000000dc .hidden __gedf2
02031bcc g     O .bss	00000510 OSTCBTbl
0201e270 g     F .text	00000100 OSSemSet
020250b8 g     O .rwdata	00000004 __wctomb
02026e34 g     O .bss	00000004 StartGameGrp
020142a4 g     F .text	0000013c __sprint_r
02021604 g     F .text	00000034 alt_icache_flush_all
02006fa0 g     F .text	00000164 floorf
02025154 g     O .rwdata	00000004 alt_priority_mask
0201da98 g     F .text	00000240 OSSemDel
02026ec4 g     O .bss	00000004 OSFlagFreeList
02002c9c g     F .text	000009d4 task3
020250ec g     O .rwdata	00000002 OSEventNameSize
0201b75c g     F .text	00000240 OSMboxDel
0200a3cc g     F .text	00000050 __vfprintf_internal
02026ec8 g     O .bss	00000001 OSStatRdy
020320dc g     O .bss	00000054 OSTCBPrioTbl
0201635c g     F .text	00000064 _wctomb_r
02017a28 g     F .text	000000c4 __env_lock
02025132 g     O .rwdata	00000002 OSTaskSwHookEn
02009048 g     F .text	000008fc .hidden __subdf3
02011d84 g     F .text	000000ec __lo0bits
02025158 g     O .rwdata	00000008 alt_alarm_list
020250fa g     O .rwdata	00000002 OSFlagWidth
020214b4 g     F .text	00000060 _do_ctors
02016284 g     F .text	000000d8 wcrtomb
02017128 g     F .text	000000d0 close
02026e74 g     O .bss	00000004 alt_envsem
02026ecc g     O .bss	00000004 OSIdleCtrRun
02018bec g     F .text	00000020 OSVersion
02025144 g     O .rwdata	00000002 OSTmrCfgWheelSize
02017458 g     F .text	00000084 alt_load
0201fa6c g     F .text	00000070 OS_TaskStkClr
0202511e g     O .rwdata	00000002 OSTaskCreateEn
020191dc g     F .text	00000068 OS_EventWaitListInit
02015df8 g     F .text	00000068 fputwc
02022028 g     F .text	00000020 OSTaskIdleHook
0200f1a0 g     F .text	00000020 __sinit_lock_acquire
020119d4 g     F .text	00000194 __multadd
0201f764 g     F .text	000001e4 OSTaskSuspend
02011958 g     F .text	0000007c _Bfree
02004f18 g     F .text	00000414 __ieee754_atan2f
02019884 g     F .text	0000005c OS_TaskIdle
0202514a g     O .rwdata	00000002 OSTmrTblSize
0201d70c g     F .text	0000015c OSQQuery



Disassembly of section .entry:

02000000 <__reset>:
#if NIOS2_ICACHE_SIZE > 0 && defined(ALT_ALLOW_CODE_AT_RESET) && (!defined(ALT_SIM_OPTIMIZE) || defined(NIOS2_ECC_PRESENT))
    /* Assume the instruction cache size is always a power of two. */
#if NIOS2_ICACHE_SIZE > 0x8000
    movhi r2, %hi(NIOS2_ICACHE_SIZE)
#else
    movui r2, NIOS2_ICACHE_SIZE
 2000000:	00840014 	movui	r2,4096
#endif

0:
    initi r2
 2000004:	1001483a 	initi	r2
    addi r2, r2, -NIOS2_ICACHE_LINE_SIZE
 2000008:	10bff804 	addi	r2,r2,-32
    bgt r2, zero, 0b
 200000c:	00bffd16 	blt	zero,r2,2000004 <__reset+0x4>
 * Jump to the _start entry point in the .text section if reset code
 * is allowed or if optimizing for RTL simulation.
 */
#if defined(ALT_ALLOW_CODE_AT_RESET) || defined(ALT_SIM_OPTIMIZE)
    /* Jump to the _start entry point in the .text section. */
    movhi r1, %hi(_start)
 2000010:	00408034 	movhi	at,512
    ori r1, r1, %lo(_start)
 2000014:	08409214 	ori	at,at,584
    jmp r1
 2000018:	0800683a 	jmp	at
 200001c:	00000000 	call	0 <OSTCBStkPtr_OFFSET>

Disassembly of section .exceptions:

02000020 <alt_exception>:

#else /* ALT_EXCEPTION_STACK disabled */
        /* 
         * Reserve space on normal stack for registers about to be pushed.
         */
        addi  sp, sp, -76
 2000020:	deffed04 	addi	sp,sp,-76
         * documentation for details).
         *
         * Leave a gap in the stack frame at 4(sp) for the muldiv handler to
         * store zero into.
         */
        stw   ra,  0(sp)
 2000024:	dfc00015 	stw	ra,0(sp)
        stw   r1,   8(sp)
 2000028:	d8400215 	stw	at,8(sp)
        stw   r2,  12(sp)
 200002c:	d8800315 	stw	r2,12(sp)
        stw   r3,  16(sp)
 2000030:	d8c00415 	stw	r3,16(sp)
        stw   r4,  20(sp)
 2000034:	d9000515 	stw	r4,20(sp)
        stw   r5,  24(sp)
 2000038:	d9400615 	stw	r5,24(sp)
        stw   r6,  28(sp)
 200003c:	d9800715 	stw	r6,28(sp)
        stw   r7,  32(sp)
 2000040:	d9c00815 	stw	r7,32(sp)
        rdctl r5, estatus   /* Read early to avoid usage stall */
 2000044:	000b307a 	rdctl	r5,estatus
        stw   r8,  36(sp)
 2000048:	da000915 	stw	r8,36(sp)
        stw   r9,  40(sp)
 200004c:	da400a15 	stw	r9,40(sp)
        stw   r10, 44(sp)
 2000050:	da800b15 	stw	r10,44(sp)
        stw   r11, 48(sp)
 2000054:	dac00c15 	stw	r11,48(sp)
        stw   r12, 52(sp)
 2000058:	db000d15 	stw	r12,52(sp)
        stw   r13, 56(sp)
 200005c:	db400e15 	stw	r13,56(sp)
        stw   r14, 60(sp)
 2000060:	db800f15 	stw	r14,60(sp)
        stw   r15, 64(sp)
 2000064:	dbc01015 	stw	r15,64(sp)
        /*
         * ea-4 contains the address of the instruction being executed
         * when the exception occured. For interrupt exceptions, we will
         * will be re-issue the isntruction. Store it in 72(sp)
         */
        stw   r5,  68(sp)  /* estatus */
 2000068:	d9401115 	stw	r5,68(sp)
        addi  r15, ea, -4  /* instruction that caused exception */
 200006c:	ebffff04 	addi	r15,ea,-4
        stw   r15,  72(sp)
 2000070:	dbc01215 	stw	r15,72(sp)
#else
        /*
         * Test to see if the exception was a software exception or caused 
         * by an external interrupt, and vector accordingly.
         */
        rdctl r4, ipending
 2000074:	0009313a 	rdctl	r4,ipending
        andi  r2, r5, 1
 2000078:	2880004c 	andi	r2,r5,1
        beq   r2, zero, .Lnot_irq
 200007c:	10000326 	beq	r2,zero,200008c <alt_exception+0x6c>
        beq   r4, zero, .Lnot_irq
 2000080:	20000226 	beq	r4,zero,200008c <alt_exception+0x6c>
        /*
         * Now that all necessary registers have been preserved, call 
         * alt_irq_handler() to process the interrupts.
         */

        call alt_irq_handler
 2000084:	20000fc0 	call	20000fc <alt_irq_handler>

        .section .exceptions.irqreturn, "xa"

        br    .Lexception_exit
 2000088:	00000706 	br	20000a8 <alt_exception+0x88>
         * upon completion, so we write ea (address of instruction *after*
         * the one where the exception occured) into 72(sp). The actual
         * instruction that caused the exception is written in r2, which these
         * handlers will utilize.
         */
        stw ea, 72(sp) /* EA is PC+4 so will skip over instruction causing exception */
 200008c:	df401215 	stw	ea,72(sp)
.Lunknown_16bit:
        addi.n r4, r4, 2 /* Need PC+2 to skip over instruction causing exception */
        stw r4, 72(sp)

#else /* CDX is not Enabled and all instructions are 32bits */
        ldw r2, -4(ea) /* Instruction value that caused exception */
 2000090:	e8bfff17 	ldw	r2,-4(ea)
         * debugger is present) or go into an infinite loop since the
         * handling behavior is undefined; in that case we will not return here.
         */

        /* Load exception-causing address as first argument (r4) */
        addi   r4, ea, -4
 2000094:	e93fff04 	addi	r4,ea,-4

        /* Call the instruction-exception entry */
        call   alt_instruction_exception_entry
 2000098:	20001d40 	call	20001d4 <alt_instruction_exception_entry>
         * instruction
         *
         * Return code was 0: Skip. The instruction after the exception is
         * already stored in 72(sp).
         */
        bne   r2, r0, .Lexception_exit
 200009c:	1000021e 	bne	r2,zero,20000a8 <alt_exception+0x88>

        /*
         * Otherwise, modify 72(sp) to re-issue the instruction that caused the
         * exception.
         */
        addi  r15, ea, -4  /* instruction that caused exception */
 20000a0:	ebffff04 	addi	r15,ea,-4
        stw   r15,  72(sp)
 20000a4:	dbc01215 	stw	r15,72(sp)
        /* 
         * Restore the saved registers, so that all general purpose registers 
         * have been restored to their state at the time the interrupt occured.
         */

        ldw   r5,  68(sp)
 20000a8:	d9401117 	ldw	r5,68(sp)
        ldw   ea,  72(sp)  /* This becomes the PC once eret is executed */
 20000ac:	df401217 	ldw	ea,72(sp)
        ldw   ra,   0(sp)
 20000b0:	dfc00017 	ldw	ra,0(sp)

        wrctl estatus, r5
 20000b4:	2801707a 	wrctl	estatus,r5

        ldw   r1,   8(sp)
 20000b8:	d8400217 	ldw	at,8(sp)
        ldw   r2,  12(sp)
 20000bc:	d8800317 	ldw	r2,12(sp)
        ldw   r3,  16(sp)
 20000c0:	d8c00417 	ldw	r3,16(sp)
        ldw   r4,  20(sp)
 20000c4:	d9000517 	ldw	r4,20(sp)
        ldw   r5,  24(sp)
 20000c8:	d9400617 	ldw	r5,24(sp)
        ldw   r6,  28(sp)
 20000cc:	d9800717 	ldw	r6,28(sp)
        ldw   r7,  32(sp)
 20000d0:	d9c00817 	ldw	r7,32(sp)

#if defined(ALT_EXCEPTION_STACK) && defined(ALT_STACK_CHECK)
        ldw   et, %gprel(alt_exception_old_stack_limit)(gp)
#endif

        ldw   r8,  36(sp)
 20000d4:	da000917 	ldw	r8,36(sp)
        ldw   r9,  40(sp)
 20000d8:	da400a17 	ldw	r9,40(sp)
        ldw   r10, 44(sp)
 20000dc:	da800b17 	ldw	r10,44(sp)
        ldw   r11, 48(sp)
 20000e0:	dac00c17 	ldw	r11,48(sp)
        ldw   r12, 52(sp)
 20000e4:	db000d17 	ldw	r12,52(sp)
        ldw   r13, 56(sp)
 20000e8:	db400e17 	ldw	r13,56(sp)
        ldw   r14, 60(sp)
 20000ec:	db800f17 	ldw	r14,60(sp)
        ldw   r15, 64(sp)
 20000f0:	dbc01017 	ldw	r15,64(sp)
        stw   et, %gprel(alt_stack_limit_value)(gp)
        stw   zero, %gprel(alt_exception_old_stack_limit)(gp)
#endif /* ALT_STACK_CHECK */
        ldw   sp,  76(sp)
#else /* ALT_EXCEPTION_STACK disabled */
        addi  sp, sp, 76
 20000f4:	dec01304 	addi	sp,sp,76

        /*
         * Return to the interrupted instruction.
         */

        eret
 20000f8:	ef80083a 	eret

020000fc <alt_irq_handler>:
 * instruction is present if the macro ALT_CI_INTERRUPT_VECTOR defined.
 */

void alt_irq_handler (void) __attribute__ ((section (".exceptions")));
void alt_irq_handler (void)
{
 20000fc:	defff904 	addi	sp,sp,-28
 2000100:	dfc00615 	stw	ra,24(sp)
 2000104:	df000515 	stw	fp,20(sp)
 2000108:	df000504 	addi	fp,sp,20
  
  /*
   * Notify the operating system that we are at interrupt level.
   */ 
  
  ALT_OS_INT_ENTER();
 200010c:	20186000 	call	2018600 <OSIntEnter>
#ifndef NIOS2_EIC_PRESENT
static ALT_INLINE alt_u32 ALT_ALWAYS_INLINE alt_irq_pending (void)
{
  alt_u32 active;

  NIOS2_READ_IPENDING (active);
 2000110:	0005313a 	rdctl	r2,ipending
 2000114:	e0bffe15 	stw	r2,-8(fp)

  return active;
 2000118:	e0bffe17 	ldw	r2,-8(fp)
   * Consider the case where the high priority interupt is asserted during
   * the interrupt entry sequence for a lower priority interrupt to see why
   * this is the case.
   */

  active = alt_irq_pending ();
 200011c:	e0bffb15 	stw	r2,-20(fp)

  do
  {
    i = 0;
 2000120:	e03ffd15 	stw	zero,-12(fp)
    mask = 1;
 2000124:	00800044 	movi	r2,1
 2000128:	e0bffc15 	stw	r2,-16(fp)
     * called to clear the interrupt condition.
     */

    do
    {
      if (active & mask)
 200012c:	e0fffb17 	ldw	r3,-20(fp)
 2000130:	e0bffc17 	ldw	r2,-16(fp)
 2000134:	1884703a 	and	r2,r3,r2
 2000138:	10001526 	beq	r2,zero,2000190 <alt_irq_handler+0x94>
      { 
#ifdef ALT_ENHANCED_INTERRUPT_API_PRESENT
        alt_irq[i].handler(alt_irq[i].context); 
#else
        alt_irq[i].handler(alt_irq[i].context, i); 
 200013c:	008080f4 	movhi	r2,515
 2000140:	10884c04 	addi	r2,r2,8496
 2000144:	e0fffd17 	ldw	r3,-12(fp)
 2000148:	180690fa 	slli	r3,r3,3
 200014c:	10c5883a 	add	r2,r2,r3
 2000150:	10c00017 	ldw	r3,0(r2)
 2000154:	008080f4 	movhi	r2,515
 2000158:	10884c04 	addi	r2,r2,8496
 200015c:	e13ffd17 	ldw	r4,-12(fp)
 2000160:	200890fa 	slli	r4,r4,3
 2000164:	1105883a 	add	r2,r2,r4
 2000168:	10800104 	addi	r2,r2,4
 200016c:	10800017 	ldw	r2,0(r2)
 2000170:	e17ffd17 	ldw	r5,-12(fp)
 2000174:	1009883a 	mov	r4,r2
 2000178:	183ee83a 	callr	r3
#endif
        break;
 200017c:	0001883a 	nop
#ifndef NIOS2_EIC_PRESENT
static ALT_INLINE alt_u32 ALT_ALWAYS_INLINE alt_irq_pending (void)
{
  alt_u32 active;

  NIOS2_READ_IPENDING (active);
 2000180:	0005313a 	rdctl	r2,ipending
 2000184:	e0bfff15 	stw	r2,-4(fp)

  return active;
 2000188:	e0bfff17 	ldw	r2,-4(fp)
 200018c:	00000706 	br	20001ac <alt_irq_handler+0xb0>
      }
      mask <<= 1;
 2000190:	e0bffc17 	ldw	r2,-16(fp)
 2000194:	1085883a 	add	r2,r2,r2
 2000198:	e0bffc15 	stw	r2,-16(fp)
      i++;
 200019c:	e0bffd17 	ldw	r2,-12(fp)
 20001a0:	10800044 	addi	r2,r2,1
 20001a4:	e0bffd15 	stw	r2,-12(fp)

    } while (1);
 20001a8:	003fe006 	br	200012c <alt_irq_handler+0x30>

    active = alt_irq_pending ();
 20001ac:	e0bffb15 	stw	r2,-20(fp)
    
  } while (active);
 20001b0:	e0bffb17 	ldw	r2,-20(fp)
 20001b4:	103fda1e 	bne	r2,zero,2000120 <alt_irq_handler+0x24>

  /*
   * Notify the operating system that interrupt processing is complete.
   */ 

  ALT_OS_INT_EXIT();
 20001b8:	201864c0 	call	201864c <OSIntExit>
}
 20001bc:	0001883a 	nop
 20001c0:	e037883a 	mov	sp,fp
 20001c4:	dfc00117 	ldw	ra,4(sp)
 20001c8:	df000017 	ldw	fp,0(sp)
 20001cc:	dec00204 	addi	sp,sp,8
 20001d0:	f800283a 	ret

020001d4 <alt_instruction_exception_entry>:
 * that handler if it has been registered. Absent a handler, it will
 * break break or hang as discussed below.
 */
int 
alt_instruction_exception_entry (alt_u32 exception_pc)
{
 20001d4:	defffb04 	addi	sp,sp,-20
 20001d8:	dfc00415 	stw	ra,16(sp)
 20001dc:	df000315 	stw	fp,12(sp)
 20001e0:	df000304 	addi	fp,sp,12
 20001e4:	e13fff15 	stw	r4,-4(fp)
 * NIOS2_EXCEPTION_CAUSE_NOT_PRESENT. Your handling routine should
 * check the validity of the cause argument before proceeding.
 */
#ifdef NIOS2_HAS_EXTRA_EXCEPTION_INFO
  /* Get exception cause & "badaddr" */
  NIOS2_READ_EXCEPTION(cause);
 20001e8:	000531fa 	rdctl	r2,exception
 20001ec:	e0bffd15 	stw	r2,-12(fp)
  cause = ( (cause & NIOS2_EXCEPTION_REG_CAUSE_MASK) >>
 20001f0:	e0bffd17 	ldw	r2,-12(fp)
 20001f4:	10801f0c 	andi	r2,r2,124
 20001f8:	1004d0ba 	srli	r2,r2,2
 20001fc:	e0bffd15 	stw	r2,-12(fp)
              NIOS2_EXCEPTION_REG_CAUSE_OFST );

  NIOS2_READ_BADADDR(badaddr);
 2000200:	0005333a 	rdctl	r2,badaddr
 2000204:	e0bffe15 	stw	r2,-8(fp)
#else
  cause = NIOS2_EXCEPTION_CAUSE_NOT_PRESENT;
  badaddr = 0;
#endif /* NIOS2_HAS_EXTRA_EXCEPTION_INFO */

  if(alt_instruction_exception_handler) {
 2000208:	d0a7be17 	ldw	r2,-24840(gp)
 200020c:	10000726 	beq	r2,zero,200022c <alt_instruction_exception_entry+0x58>
     * Call handler. Its return value indicates whether the exception-causing
     * instruction should be re-issued. The code that called us,
     * alt_eceptions_entry.S, will look at this value and adjust the ea
     * register as necessary
     */
    return alt_instruction_exception_handler(cause, exception_pc, badaddr);
 2000210:	d0a7be17 	ldw	r2,-24840(gp)
 2000214:	e0fffd17 	ldw	r3,-12(fp)
 2000218:	e1bffe17 	ldw	r6,-8(fp)
 200021c:	e17fff17 	ldw	r5,-4(fp)
 2000220:	1809883a 	mov	r4,r3
 2000224:	103ee83a 	callr	r2
 2000228:	00000206 	br	2000234 <alt_instruction_exception_entry+0x60>
   *    (a peripheral which negates its interrupt output before its
   *    interrupt handler has been executed will cause spurious interrupts)
   */
  else {
#ifdef NIOS2_HAS_DEBUG_STUB
    NIOS2_BREAK();
 200022c:	003da03a 	break	0
      ;
#endif /* NIOS2_HAS_DEBUG_STUB */
  }

  /* We should not get here. Remove compiler warning. */
  return NIOS2_EXCEPTION_RETURN_REISSUE_INST;
 2000230:	0005883a 	mov	r2,zero
}
 2000234:	e037883a 	mov	sp,fp
 2000238:	dfc00117 	ldw	ra,4(sp)
 200023c:	df000017 	ldw	fp,0(sp)
 2000240:	dec00204 	addi	sp,sp,8
 2000244:	f800283a 	ret

Disassembly of section .text:

02000248 <_start>:

    /* Assume the data cache size is always a power of two. */
#if NIOS2_DCACHE_SIZE > 0x8000
    movhi r2, %hi(NIOS2_DCACHE_SIZE)
#else
    movui r2, NIOS2_DCACHE_SIZE
 2000248:	00820014 	movui	r2,2048
#endif

0:
    initd 0(r2)
 200024c:	10000033 	initd	0(r2)
#ifdef NIOS2_ECC_PRESENT
    addi r2, r2, -4
#else
    addi r2, r2, -NIOS2_DCACHE_LINE_SIZE
 2000250:	10bff804 	addi	r2,r2,-32
#endif
    bgt r2, zero, 0b
 2000254:	00bffd16 	blt	zero,r2,200024c <_start+0x4>

    /*
     * Now that the caches are initialized, set up the stack pointer and global pointer.
     * The values provided by the linker are assumed to be correctly aligned.
     */
    movhi sp, %hi(__alt_stack_pointer)
 2000258:	06c10034 	movhi	sp,1024
    ori sp, sp, %lo(__alt_stack_pointer)
 200025c:	dec00014 	ori	sp,sp,0
    movhi gp, %hi(_gp)
 2000260:	068080b4 	movhi	gp,514
    ori gp, gp, %lo(_gp)
 2000264:	d6b3f914 	ori	gp,gp,53220
 */
#ifndef ALT_SIM_OPTIMIZE
    /* Log that the BSS is about to be cleared. */
    ALT_LOG_PUTS(alt_log_msg_bss)

    movhi r2, %hi(__bss_start)
 2000268:	008080b4 	movhi	r2,514
    ori r2, r2, %lo(__bss_start)
 200026c:	109b7c14 	ori	r2,r2,28144

    movhi r3, %hi(__bss_end)
 2000270:	00c080f4 	movhi	r3,515
    ori r3, r3, %lo(__bss_end)
 2000274:	18c88c14 	ori	r3,r3,8752

    beq r2, r3, 1f
 2000278:	10c00326 	beq	r2,r3,2000288 <_start+0x40>

0:
    stw zero, (r2)
 200027c:	10000015 	stw	zero,0(r2)
    addi r2, r2, 4
 2000280:	10800104 	addi	r2,r2,4
    bltu r2, r3, 0b
 2000284:	10fffd36 	bltu	r2,r3,200027c <_start+0x34>
     * section aren't defined until alt_load() has been called).
     */
    mov   et, zero
#endif

    call alt_load
 2000288:	20174580 	call	2017458 <alt_load>

    /* Log that alt_main is about to be called. */
    ALT_LOG_PUTS(alt_log_msg_alt_main)

    /* Call the C entry point. It should never return. */
    call alt_main
 200028c:	20175ec0 	call	20175ec <alt_main>

02000290 <alt_after_alt_main>:

    /* Wait in infinite loop in case alt_main does return. */
alt_after_alt_main:
    br alt_after_alt_main
 2000290:	003fff06 	br	2000290 <alt_after_alt_main>

02000294 <compress>:
#define START_THE_GAME (OS_FLAGS) 0x0001

const char * accel_name = ACCELEROMETER_SPI_0_NAME;
alt_up_accelerometer_spi_dev * accel_spi = NULL;

int compress(int x, int y) {
 2000294:	defff904 	addi	sp,sp,-28
 2000298:	df000615 	stw	fp,24(sp)
 200029c:	df000604 	addi	fp,sp,24
 20002a0:	e13ffe15 	stw	r4,-8(fp)
 20002a4:	e17fff15 	stw	r5,-4(fp)
	int sign_x;
	int base_x = abs(x);
 20002a8:	e0bffe17 	ldw	r2,-8(fp)
 20002ac:	1000010e 	bge	r2,zero,20002b4 <compress+0x20>
 20002b0:	0085c83a 	sub	r2,zero,r2
 20002b4:	e0bffc15 	stw	r2,-16(fp)
	if (x >= 0)
 20002b8:	e0bffe17 	ldw	r2,-8(fp)
 20002bc:	10000216 	blt	r2,zero,20002c8 <compress+0x34>
		sign_x = 0;
 20002c0:	e03ffa15 	stw	zero,-24(fp)
 20002c4:	00000206 	br	20002d0 <compress+0x3c>
	else
		sign_x = 1;
 20002c8:	00800044 	movi	r2,1
 20002cc:	e0bffa15 	stw	r2,-24(fp)

	int sign_y;
	int base_y = abs(y);
 20002d0:	e0bfff17 	ldw	r2,-4(fp)
 20002d4:	1000010e 	bge	r2,zero,20002dc <compress+0x48>
 20002d8:	0085c83a 	sub	r2,zero,r2
 20002dc:	e0bffd15 	stw	r2,-12(fp)
	if (y >= 0)
 20002e0:	e0bfff17 	ldw	r2,-4(fp)
 20002e4:	10000216 	blt	r2,zero,20002f0 <compress+0x5c>
		sign_y = 0;
 20002e8:	e03ffb15 	stw	zero,-20(fp)
 20002ec:	00000206 	br	20002f8 <compress+0x64>
	else
		sign_y = 1;
 20002f0:	00800044 	movi	r2,1
 20002f4:	e0bffb15 	stw	r2,-20(fp)

	return (sign_y << 20) + (base_y << 11) + (sign_x << 10) + base_x;
 20002f8:	e0bffb17 	ldw	r2,-20(fp)
 20002fc:	1006953a 	slli	r3,r2,20
 2000300:	e0bffd17 	ldw	r2,-12(fp)
 2000304:	100492fa 	slli	r2,r2,11
 2000308:	1887883a 	add	r3,r3,r2
 200030c:	e0bffa17 	ldw	r2,-24(fp)
 2000310:	100492ba 	slli	r2,r2,10
 2000314:	1887883a 	add	r3,r3,r2
 2000318:	e0bffc17 	ldw	r2,-16(fp)
 200031c:	1885883a 	add	r2,r3,r2
}
 2000320:	e037883a 	mov	sp,fp
 2000324:	df000017 	ldw	fp,0(sp)
 2000328:	dec00104 	addi	sp,sp,4
 200032c:	f800283a 	ret

02000330 <x_uncompress>:

int x_uncompress(int number) {
 2000330:	defffc04 	addi	sp,sp,-16
 2000334:	df000315 	stw	fp,12(sp)
 2000338:	df000304 	addi	fp,sp,12
 200033c:	e13fff15 	stw	r4,-4(fp)
	int sign_x = (number & 0x400) >> 10;
 2000340:	e0bfff17 	ldw	r2,-4(fp)
 2000344:	1081000c 	andi	r2,r2,1024
 2000348:	1005d2ba 	srai	r2,r2,10
 200034c:	e0bffd15 	stw	r2,-12(fp)
	int base_x = (number) & 0x3FF;
 2000350:	e0bfff17 	ldw	r2,-4(fp)
 2000354:	1080ffcc 	andi	r2,r2,1023
 2000358:	e0bffe15 	stw	r2,-8(fp)
	if (sign_x == 0)
 200035c:	e0bffd17 	ldw	r2,-12(fp)
 2000360:	1000021e 	bne	r2,zero,200036c <x_uncompress+0x3c>
		return base_x;
 2000364:	e0bffe17 	ldw	r2,-8(fp)
 2000368:	00000206 	br	2000374 <x_uncompress+0x44>
	else
		return -base_x;
 200036c:	e0bffe17 	ldw	r2,-8(fp)
 2000370:	0085c83a 	sub	r2,zero,r2
}
 2000374:	e037883a 	mov	sp,fp
 2000378:	df000017 	ldw	fp,0(sp)
 200037c:	dec00104 	addi	sp,sp,4
 2000380:	f800283a 	ret

02000384 <y_uncompress>:

int y_uncompress(int number) {
 2000384:	defffc04 	addi	sp,sp,-16
 2000388:	df000315 	stw	fp,12(sp)
 200038c:	df000304 	addi	fp,sp,12
 2000390:	e13fff15 	stw	r4,-4(fp)
	int sign_y = (number & 0x100000) >> 20;
 2000394:	e0bfff17 	ldw	r2,-4(fp)
 2000398:	1080042c 	andhi	r2,r2,16
 200039c:	1005d53a 	srai	r2,r2,20
 20003a0:	e0bffd15 	stw	r2,-12(fp)
	int base_y = (number & 0xFF800) >> 11;
 20003a4:	e0ffff17 	ldw	r3,-4(fp)
 20003a8:	00800434 	movhi	r2,16
 20003ac:	10be0004 	addi	r2,r2,-2048
 20003b0:	1884703a 	and	r2,r3,r2
 20003b4:	1005d2fa 	srai	r2,r2,11
 20003b8:	e0bffe15 	stw	r2,-8(fp)
	if (sign_y == 0)
 20003bc:	e0bffd17 	ldw	r2,-12(fp)
 20003c0:	1000021e 	bne	r2,zero,20003cc <y_uncompress+0x48>
		return base_y;
 20003c4:	e0bffe17 	ldw	r2,-8(fp)
 20003c8:	00000206 	br	20003d4 <y_uncompress+0x50>
	else
		return -base_y;
 20003cc:	e0bffe17 	ldw	r2,-8(fp)
 20003d0:	0085c83a 	sub	r2,zero,r2
}
 20003d4:	e037883a 	mov	sp,fp
 20003d8:	df000017 	ldw	fp,0(sp)
 20003dc:	dec00104 	addi	sp,sp,4
 20003e0:	f800283a 	ret

020003e4 <task1>:

/*  */

void task1(void* pdata) {
 20003e4:	deffe704 	addi	sp,sp,-100
 20003e8:	dfc01815 	stw	ra,96(sp)
 20003ec:	df001715 	stw	fp,92(sp)
 20003f0:	df001704 	addi	fp,sp,92
 20003f4:	e13fff15 	stw	r4,-4(fp)

	INT8U err;
	int shoot = 0;
 20003f8:	e03fea15 	stw	zero,-88(fp)
	int x_axis, y_axis;

	//volatile int * MTL_controller = (int *) MTL_IP_BASE;
	int count_old = 0;
 20003fc:	e03ff115 	stw	zero,-60(fp)
	int count = 0;
 2000400:	e03feb15 	stw	zero,-84(fp)

	int x1_gesture_start, x1_gesture_stop, x2_gesture_start, x2_gesture_stop;
	int y1_gesture_start, y1_gesture_stop, y2_gesture_start, y2_gesture_stop;

	int gesture_detected = 0;
 2000404:	e03ff015 	stw	zero,-64(fp)

	while (1) {

		DEBUG_PRINT("[Task 1] wait for isActive\n");
 2000408:	010080b4 	movhi	r4,514
 200040c:	210a3804 	addi	r4,r4,10464
 2000410:	200a1b00 	call	200a1b0 <puts>
		OSFlagPend(isActiveFlagGrp, IS_ACTIVE,
 2000414:	d0e79317 	ldw	r3,-25012(gp)
 2000418:	e0bff804 	addi	r2,fp,-32
 200041c:	d8800015 	stw	r2,0(sp)
 2000420:	000f883a 	mov	r7,zero
 2000424:	01802084 	movi	r6,130
 2000428:	01400044 	movi	r5,1
 200042c:	1809883a 	mov	r4,r3
 2000430:	201a7a80 	call	201a7a8 <OSFlagPend>
				OS_FLAG_WAIT_SET_ALL + OS_FLAG_CONSUME, 0, &err); // wait for a flag and consume it
		DEBUG_PRINT("[Task 1] flag consumed \n");
 2000434:	010080b4 	movhi	r4,514
 2000438:	210a3f04 	addi	r4,r4,10492
 200043c:	200a1b00 	call	200a1b0 <puts>
		IOWR(MTL_IP_BASE, 13, 0);
 2000440:	0007883a 	mov	r3,zero
 2000444:	008000b4 	movhi	r2,2
 2000448:	10800d04 	addi	r2,r2,52
 200044c:	10c00035 	stwio	r3,0(r2)
		/*
		 * Tant que le mouvement n'est pas termin : On effectue la dtection
		 */
		while (!gesture_detected)
 2000450:	00005106 	br	2000598 <task1+0x1b4>
		{
			count_old = count;
 2000454:	e0bfeb17 	ldw	r2,-84(fp)
 2000458:	e0bff115 	stw	r2,-60(fp)
			count = IORD(MTL_IP_BASE, 10); // rcupre le nombre de doigts prsent sur l'cran
 200045c:	008000b4 	movhi	r2,2
 2000460:	10800a04 	addi	r2,r2,40
 2000464:	10800037 	ldwio	r2,0(r2)
 2000468:	e0bfeb15 	stw	r2,-84(fp)
			int pos1 = IORD(MTL_IP_BASE, 11);
 200046c:	008000b4 	movhi	r2,2
 2000470:	10800b04 	addi	r2,r2,44
 2000474:	10800037 	ldwio	r2,0(r2)
 2000478:	e0bff215 	stw	r2,-56(fp)
			int pos2 = IORD(MTL_IP_BASE, 12);
 200047c:	008000b4 	movhi	r2,2
 2000480:	10800c04 	addi	r2,r2,48
 2000484:	10800037 	ldwio	r2,0(r2)
 2000488:	e0bff315 	stw	r2,-52(fp)
			if (count_old == 1 && count == 2) // si on passe de 1  deux doigts
 200048c:	e0bff117 	ldw	r2,-60(fp)
 2000490:	10800058 	cmpnei	r2,r2,1
 2000494:	1000121e 	bne	r2,zero,20004e0 <task1+0xfc>
 2000498:	e0bfeb17 	ldw	r2,-84(fp)
 200049c:	10800098 	cmpnei	r2,r2,2
 20004a0:	10000f1e 	bne	r2,zero,20004e0 <task1+0xfc>
					{
				DEBUG_PRINT("[Task 1] start gesture\n");
 20004a4:	010080b4 	movhi	r4,514
 20004a8:	210a4504 	addi	r4,r4,10516
 20004ac:	200a1b00 	call	200a1b0 <puts>
				x1_gesture_start = pos1 & 0x0003FF;
 20004b0:	e0bff217 	ldw	r2,-56(fp)
 20004b4:	1080ffcc 	andi	r2,r2,1023
 20004b8:	e0bfec15 	stw	r2,-80(fp)
				y1_gesture_start = pos1 >> 10;
 20004bc:	e0bff217 	ldw	r2,-56(fp)
 20004c0:	1005d2ba 	srai	r2,r2,10
 20004c4:	e0bfee15 	stw	r2,-72(fp)

				x2_gesture_start = pos2 & 0x0003FF;
 20004c8:	e0bff317 	ldw	r2,-52(fp)
 20004cc:	1080ffcc 	andi	r2,r2,1023
 20004d0:	e0bff415 	stw	r2,-48(fp)
				y2_gesture_start = pos2 >> 10;
 20004d4:	e0bff317 	ldw	r2,-52(fp)
 20004d8:	1005d2ba 	srai	r2,r2,10
 20004dc:	e0bff515 	stw	r2,-44(fp)
			}
			if (count_old == 2 && count == 1) // si on pass de 2  1 doigt
 20004e0:	e0bff117 	ldw	r2,-60(fp)
 20004e4:	10800098 	cmpnei	r2,r2,2
 20004e8:	1000261e 	bne	r2,zero,2000584 <task1+0x1a0>
 20004ec:	e0bfeb17 	ldw	r2,-84(fp)
 20004f0:	10800058 	cmpnei	r2,r2,1
 20004f4:	1000231e 	bne	r2,zero,2000584 <task1+0x1a0>
					{
				DEBUG_PRINT("[Task 1] stop gesture\n");
 20004f8:	010080b4 	movhi	r4,514
 20004fc:	210a4b04 	addi	r4,r4,10540
 2000500:	200a1b00 	call	200a1b0 <puts>

				x1_gesture_stop = pos1 & 0x0003FF;
 2000504:	e0bff217 	ldw	r2,-56(fp)
 2000508:	1080ffcc 	andi	r2,r2,1023
 200050c:	e0bff615 	stw	r2,-40(fp)
				y1_gesture_stop = pos1 >> 10;
 2000510:	e0bff217 	ldw	r2,-56(fp)
 2000514:	1005d2ba 	srai	r2,r2,10
 2000518:	e0bff715 	stw	r2,-36(fp)

				x2_gesture_stop = pos2 & 0x0003FF;
 200051c:	e0bff317 	ldw	r2,-52(fp)
 2000520:	1080ffcc 	andi	r2,r2,1023
 2000524:	e0bfed15 	stw	r2,-76(fp)
				y2_gesture_stop = pos2 >> 10;
 2000528:	e0bff317 	ldw	r2,-52(fp)
 200052c:	1005d2ba 	srai	r2,r2,10
 2000530:	e0bfef15 	stw	r2,-68(fp)
				gesture_detected = (x1_gesture_start - 30 <= x1_gesture_stop
 2000534:	e0bfec17 	ldw	r2,-80(fp)
 2000538:	10bff884 	addi	r2,r2,-30
						&& x1_gesture_stop <= x1_gesture_start + 30)
						&& (y1_gesture_start - 30 <= y1_gesture_stop
 200053c:	e0fff617 	ldw	r3,-40(fp)
 2000540:	18800e16 	blt	r3,r2,200057c <task1+0x198>
				y1_gesture_stop = pos1 >> 10;

				x2_gesture_stop = pos2 & 0x0003FF;
				y2_gesture_stop = pos2 >> 10;
				gesture_detected = (x1_gesture_start - 30 <= x1_gesture_stop
						&& x1_gesture_stop <= x1_gesture_start + 30)
 2000544:	e0bfec17 	ldw	r2,-80(fp)
 2000548:	10c00784 	addi	r3,r2,30
 200054c:	e0bff617 	ldw	r2,-40(fp)
 2000550:	18800a16 	blt	r3,r2,200057c <task1+0x198>
						&& (y1_gesture_start - 30 <= y1_gesture_stop
 2000554:	e0bfee17 	ldw	r2,-72(fp)
 2000558:	10bff884 	addi	r2,r2,-30
 200055c:	e0fff717 	ldw	r3,-36(fp)
 2000560:	18800616 	blt	r3,r2,200057c <task1+0x198>
								&& y1_gesture_stop <= y1_gesture_start + 30);
 2000564:	e0bfee17 	ldw	r2,-72(fp)
 2000568:	10c00784 	addi	r3,r2,30
 200056c:	e0bff717 	ldw	r2,-36(fp)
 2000570:	18800216 	blt	r3,r2,200057c <task1+0x198>

				x2_gesture_stop = pos2 & 0x0003FF;
				y2_gesture_stop = pos2 >> 10;
				gesture_detected = (x1_gesture_start - 30 <= x1_gesture_stop
						&& x1_gesture_stop <= x1_gesture_start + 30)
						&& (y1_gesture_start - 30 <= y1_gesture_stop
 2000574:	00800044 	movi	r2,1
 2000578:	00000106 	br	2000580 <task1+0x19c>
 200057c:	0005883a 	mov	r2,zero
				x1_gesture_stop = pos1 & 0x0003FF;
				y1_gesture_stop = pos1 >> 10;

				x2_gesture_stop = pos2 & 0x0003FF;
				y2_gesture_stop = pos2 >> 10;
				gesture_detected = (x1_gesture_start - 30 <= x1_gesture_stop
 2000580:	e0bff015 	stw	r2,-64(fp)
						&& x1_gesture_stop <= x1_gesture_start + 30)
						&& (y1_gesture_start - 30 <= y1_gesture_stop
								&& y1_gesture_stop <= y1_gesture_start + 30);
			}

			OSTimeDlyHMSM(0,0,0,50);
 2000584:	01c00c84 	movi	r7,50
 2000588:	000d883a 	mov	r6,zero
 200058c:	000b883a 	mov	r5,zero
 2000590:	0009883a 	mov	r4,zero
 2000594:	201fbe00 	call	201fbe0 <OSTimeDlyHMSM>
		DEBUG_PRINT("[Task 1] flag consumed \n");
		IOWR(MTL_IP_BASE, 13, 0);
		/*
		 * Tant que le mouvement n'est pas termin : On effectue la dtection
		 */
		while (!gesture_detected)
 2000598:	e0bff017 	ldw	r2,-64(fp)
 200059c:	103fad26 	beq	r2,zero,2000454 <task1+0x70>

			//*(MTL_controller + 5) = (y1_gesture_start << 10) + x1_gesture_start;
			//*(MTL_controller + 6) = (y2_gesture_start << 10) + x2_gesture_start;
			//*(MTL_controller + 7) = (y2_gesture_stop << 10) + x2_gesture_stop;
		}
		IOWR(MTL_IP_BASE, 13, 1);
 20005a0:	00c00044 	movi	r3,1
 20005a4:	008000b4 	movhi	r2,2
 20005a8:	10800d04 	addi	r2,r2,52
 20005ac:	10c00035 	stwio	r3,0(r2)

		count_old = 0;
 20005b0:	e03ff115 	stw	zero,-60(fp)
		count = 0;
 20005b4:	e03feb15 	stw	zero,-84(fp)
		shoot = 0;
 20005b8:	e03fea15 	stw	zero,-88(fp)
		int x = 446;
 20005bc:	00806f84 	movi	r2,446
 20005c0:	e0bffb15 	stw	r2,-20(fp)
		int y = 263;
 20005c4:	008041c4 	movi	r2,263
 20005c8:	e0bffc15 	stw	r2,-16(fp)
		IOWR(MTL_IP_BASE, 11, (y << 10) + x);
 20005cc:	e0bffc17 	ldw	r2,-16(fp)
 20005d0:	100692ba 	slli	r3,r2,10
 20005d4:	e0bffb17 	ldw	r2,-20(fp)
 20005d8:	1887883a 	add	r3,r3,r2
 20005dc:	008000b4 	movhi	r2,2
 20005e0:	10800b04 	addi	r2,r2,44
 20005e4:	10c00035 	stwio	r3,0(r2)
		OSTimeDlyHMSM(0, 0, 0, 500);
 20005e8:	01c07d04 	movi	r7,500
 20005ec:	000d883a 	mov	r6,zero
 20005f0:	000b883a 	mov	r5,zero
 20005f4:	0009883a 	mov	r4,zero
 20005f8:	201fbe00 	call	201fbe0 <OSTimeDlyHMSM>

		while (!shoot) {
 20005fc:	00003506 	br	20006d4 <task1+0x2f0>
			count_old = count;
 2000600:	e0bfeb17 	ldw	r2,-84(fp)
 2000604:	e0bff115 	stw	r2,-60(fp)
			count = IORD(MTL_IP_BASE, 10);
 2000608:	008000b4 	movhi	r2,2
 200060c:	10800a04 	addi	r2,r2,40
 2000610:	10800037 	ldwio	r2,0(r2)
 2000614:	e0bfeb15 	stw	r2,-84(fp)
			if (count_old == 0 && count == 1)
 2000618:	e0bff117 	ldw	r2,-60(fp)
 200061c:	1000061e 	bne	r2,zero,2000638 <task1+0x254>
 2000620:	e0bfeb17 	ldw	r2,-84(fp)
 2000624:	10800058 	cmpnei	r2,r2,1
 2000628:	1000031e 	bne	r2,zero,2000638 <task1+0x254>
				shoot = 1;
 200062c:	00800044 	movi	r2,1
 2000630:	e0bfea15 	stw	r2,-88(fp)
 2000634:	00002206 	br	20006c0 <task1+0x2dc>
			else {
				alt_up_accelerometer_spi_read_y_axis(accel_spi, &y_axis);
 2000638:	d0a78317 	ldw	r2,-25076(gp)
 200063c:	e0fffa04 	addi	r3,fp,-24
 2000640:	180b883a 	mov	r5,r3
 2000644:	1009883a 	mov	r4,r2
 2000648:	20210c80 	call	20210c8 <alt_up_accelerometer_spi_read_y_axis>
				alt_up_accelerometer_spi_read_x_axis(accel_spi, &x_axis);
 200064c:	d0a78317 	ldw	r2,-25076(gp)
 2000650:	e0fff904 	addi	r3,fp,-28
 2000654:	180b883a 	mov	r5,r3
 2000658:	1009883a 	mov	r4,r2
 200065c:	2020ffc0 	call	2020ffc <alt_up_accelerometer_spi_read_x_axis>
				//printf("Accelerometer : (%d, %d)\n",x_axis, y_axis);
				y += -(x_axis) / 10;
 2000660:	e0bff917 	ldw	r2,-28(fp)
 2000664:	0085c83a 	sub	r2,zero,r2
 2000668:	01400284 	movi	r5,10
 200066c:	1009883a 	mov	r4,r2
 2000670:	20073900 	call	2007390 <__divsi3>
 2000674:	1007883a 	mov	r3,r2
 2000678:	e0bffc17 	ldw	r2,-16(fp)
 200067c:	1885883a 	add	r2,r3,r2
 2000680:	e0bffc15 	stw	r2,-16(fp)
				x += y_axis / 10;
 2000684:	e0bffa17 	ldw	r2,-24(fp)
 2000688:	01400284 	movi	r5,10
 200068c:	1009883a 	mov	r4,r2
 2000690:	20073900 	call	2007390 <__divsi3>
 2000694:	1007883a 	mov	r3,r2
 2000698:	e0bffb17 	ldw	r2,-20(fp)
 200069c:	1885883a 	add	r2,r3,r2
 20006a0:	e0bffb15 	stw	r2,-20(fp)
				IOWR(MTL_IP_BASE, 11, (y << 10) + x);
 20006a4:	e0bffc17 	ldw	r2,-16(fp)
 20006a8:	100692ba 	slli	r3,r2,10
 20006ac:	e0bffb17 	ldw	r2,-20(fp)
 20006b0:	1887883a 	add	r3,r3,r2
 20006b4:	008000b4 	movhi	r2,2
 20006b8:	10800b04 	addi	r2,r2,44
 20006bc:	10c00035 	stwio	r3,0(r2)
				// play with the accelerometer

			}
			OSTimeDlyHMSM(0, 0, 0, 50);
 20006c0:	01c00c84 	movi	r7,50
 20006c4:	000d883a 	mov	r6,zero
 20006c8:	000b883a 	mov	r5,zero
 20006cc:	0009883a 	mov	r4,zero
 20006d0:	201fbe00 	call	201fbe0 <OSTimeDlyHMSM>
		int x = 446;
		int y = 263;
		IOWR(MTL_IP_BASE, 11, (y << 10) + x);
		OSTimeDlyHMSM(0, 0, 0, 500);

		while (!shoot) {
 20006d4:	e0bfea17 	ldw	r2,-88(fp)
 20006d8:	103fc926 	beq	r2,zero,2000600 <task1+0x21c>
				// play with the accelerometer

			}
			OSTimeDlyHMSM(0, 0, 0, 50);
		}
		IOWR(MTL_IP_BASE, 13, 0);
 20006dc:	0007883a 	mov	r3,zero
 20006e0:	008000b4 	movhi	r2,2
 20006e4:	10800d04 	addi	r2,r2,52
 20006e8:	10c00035 	stwio	r3,0(r2)

		int x_dir = (x2_gesture_stop - x1_gesture_start);
 20006ec:	e0ffed17 	ldw	r3,-76(fp)
 20006f0:	e0bfec17 	ldw	r2,-80(fp)
 20006f4:	1885c83a 	sub	r2,r3,r2
 20006f8:	e0bffd15 	stw	r2,-12(fp)
		int y_dir = (y2_gesture_stop - y1_gesture_start);
 20006fc:	e0ffef17 	ldw	r3,-68(fp)
 2000700:	e0bfee17 	ldw	r2,-72(fp)
 2000704:	1885c83a 	sub	r2,r3,r2
 2000708:	e0bffe15 	stw	r2,-8(fp)
		DEBUG_PRINT("[Task 1] Send value : (%d, %d) - (%d, %d)\n", x_dir, y_dir,
 200070c:	e0fffd17 	ldw	r3,-12(fp)
 2000710:	e13ffe17 	ldw	r4,-8(fp)
 2000714:	e17ffb17 	ldw	r5,-20(fp)
 2000718:	e0bffc17 	ldw	r2,-16(fp)
 200071c:	d8800015 	stw	r2,0(sp)
 2000720:	280f883a 	mov	r7,r5
 2000724:	200d883a 	mov	r6,r4
 2000728:	180b883a 	mov	r5,r3
 200072c:	010080b4 	movhi	r4,514
 2000730:	210a5104 	addi	r4,r4,10564
 2000734:	200a0300 	call	200a030 <printf>
				x, y);
		OSMboxPost(MailBox1, &x_dir);
 2000738:	d0a79217 	ldw	r2,-25016(gp)
 200073c:	e0fffd04 	addi	r3,fp,-12
 2000740:	180b883a 	mov	r5,r3
 2000744:	1009883a 	mov	r4,r2
 2000748:	201bd3c0 	call	201bd3c <OSMboxPost>
		OSMboxPost(MailBox2, &y_dir);
 200074c:	d0a78c17 	ldw	r2,-25040(gp)
 2000750:	e0fffe04 	addi	r3,fp,-8
 2000754:	180b883a 	mov	r5,r3
 2000758:	1009883a 	mov	r4,r2
 200075c:	201bd3c0 	call	201bd3c <OSMboxPost>
		OSMboxPost(MailBox10, &x);
 2000760:	d0a78b17 	ldw	r2,-25044(gp)
 2000764:	e0fffb04 	addi	r3,fp,-20
 2000768:	180b883a 	mov	r5,r3
 200076c:	1009883a 	mov	r4,r2
 2000770:	201bd3c0 	call	201bd3c <OSMboxPost>
		OSMboxPost(MailBox11, &y);
 2000774:	d0a79117 	ldw	r2,-25020(gp)
 2000778:	e0fffc04 	addi	r3,fp,-16
 200077c:	180b883a 	mov	r5,r3
 2000780:	1009883a 	mov	r4,r2
 2000784:	201bd3c0 	call	201bd3c <OSMboxPost>
		gesture_detected = 0;
 2000788:	e03ff015 	stw	zero,-64(fp)
		OSTimeDlyHMSM(0, 0, 0, 500);
 200078c:	01c07d04 	movi	r7,500
 2000790:	000d883a 	mov	r6,zero
 2000794:	000b883a 	mov	r5,zero
 2000798:	0009883a 	mov	r4,zero
 200079c:	201fbe00 	call	201fbe0 <OSTimeDlyHMSM>
	}
 20007a0:	003f1906 	br	2000408 <task1+0x24>

020007a4 <task2>:
}

void task2(void* pdata) {
 20007a4:	deff3304 	addi	sp,sp,-820
 20007a8:	dfc0cc15 	stw	ra,816(sp)
 20007ac:	df00cb15 	stw	fp,812(sp)
 20007b0:	dd40ca15 	stw	r21,808(sp)
 20007b4:	dd00c915 	stw	r20,804(sp)
 20007b8:	dcc0c815 	stw	r19,800(sp)
 20007bc:	dc80c715 	stw	r18,796(sp)
 20007c0:	dc40c615 	stw	r17,792(sp)
 20007c4:	dc00c515 	stw	r16,788(sp)
 20007c8:	df00cb04 	addi	fp,sp,812
 20007cc:	e13ff915 	stw	r4,-28(fp)

	INT8U err;
	INT8U opt_task2;
	volatile int * display = (int *) MTL_IP_BASE;
 20007d0:	008000b4 	movhi	r2,2
 20007d4:	e0bf3d15 	stw	r2,-780(fp)

	float ball[10][2] = {
 20007d8:	008080b4 	movhi	r2,514
 20007dc:	108a8904 	addi	r2,r2,10788
 20007e0:	e0ff4c04 	addi	r3,fp,-720
 20007e4:	1009883a 	mov	r4,r2
 20007e8:	00801404 	movi	r2,80
 20007ec:	100d883a 	mov	r6,r2
 20007f0:	200b883a 	mov	r5,r4
 20007f4:	1809883a 	mov	r4,r3
 20007f8:	2009c800 	call	2009c80 <memcpy>
			{ 626.0, 263.0 }, // black
			{ 603.0, 249.0 }, { 603.0, 277.0 }, { 626.0, 290.0 },
			{ 626.0, 236.0 }, { 649.0, 222.0 }, { 649.0, 249.0 },
			{ 649.0, 277.0 }, { 649.0, 304.0 } };

	IOWR(display, 1, ((int ) (ball[0][1]) << 10) + (int ) (ball[0][0]));
 20007fc:	e0bf3d17 	ldw	r2,-780(fp)
 2000800:	10800104 	addi	r2,r2,4
 2000804:	e0ff4d17 	ldw	r3,-716(fp)
 2000808:	1807fe72 	custom	249,r3,r3,zero
 200080c:	180892ba 	slli	r4,r3,10
 2000810:	e0ff4c17 	ldw	r3,-720(fp)
 2000814:	1807fe72 	custom	249,r3,r3,zero
 2000818:	20c7883a 	add	r3,r4,r3
 200081c:	10c00035 	stwio	r3,0(r2)
	IOWR(display, 2, ((int ) (ball[1][1]) << 10) + (int ) (ball[1][0]));
 2000820:	e0bf3d17 	ldw	r2,-780(fp)
 2000824:	10800204 	addi	r2,r2,8
 2000828:	e0ff4f17 	ldw	r3,-708(fp)
 200082c:	1807fe72 	custom	249,r3,r3,zero
 2000830:	180892ba 	slli	r4,r3,10
 2000834:	e0ff4e17 	ldw	r3,-712(fp)
 2000838:	1807fe72 	custom	249,r3,r3,zero
 200083c:	20c7883a 	add	r3,r4,r3
 2000840:	10c00035 	stwio	r3,0(r2)
	IOWR(display, 3, ((int ) (ball[2][1]) << 10) + (int ) (ball[2][0]));
 2000844:	e0bf3d17 	ldw	r2,-780(fp)
 2000848:	10800304 	addi	r2,r2,12
 200084c:	e0ff5117 	ldw	r3,-700(fp)
 2000850:	1807fe72 	custom	249,r3,r3,zero
 2000854:	180892ba 	slli	r4,r3,10
 2000858:	e0ff5017 	ldw	r3,-704(fp)
 200085c:	1807fe72 	custom	249,r3,r3,zero
 2000860:	20c7883a 	add	r3,r4,r3
 2000864:	10c00035 	stwio	r3,0(r2)
	IOWR(display, 4, ((int ) (ball[3][1]) << 10) + (int ) (ball[3][0]));
 2000868:	e0bf3d17 	ldw	r2,-780(fp)
 200086c:	10800404 	addi	r2,r2,16
 2000870:	e0ff5317 	ldw	r3,-692(fp)
 2000874:	1807fe72 	custom	249,r3,r3,zero
 2000878:	180892ba 	slli	r4,r3,10
 200087c:	e0ff5217 	ldw	r3,-696(fp)
 2000880:	1807fe72 	custom	249,r3,r3,zero
 2000884:	20c7883a 	add	r3,r4,r3
 2000888:	10c00035 	stwio	r3,0(r2)
	IOWR(display, 5, ((int ) (ball[4][1]) << 10) + (int ) (ball[4][0]));
 200088c:	e0bf3d17 	ldw	r2,-780(fp)
 2000890:	10800504 	addi	r2,r2,20
 2000894:	e0ff5517 	ldw	r3,-684(fp)
 2000898:	1807fe72 	custom	249,r3,r3,zero
 200089c:	180892ba 	slli	r4,r3,10
 20008a0:	e0ff5417 	ldw	r3,-688(fp)
 20008a4:	1807fe72 	custom	249,r3,r3,zero
 20008a8:	20c7883a 	add	r3,r4,r3
 20008ac:	10c00035 	stwio	r3,0(r2)
	IOWR(display, 6, ((int ) (ball[5][1]) << 10) + (int ) (ball[5][0]));
 20008b0:	e0bf3d17 	ldw	r2,-780(fp)
 20008b4:	10800604 	addi	r2,r2,24
 20008b8:	e0ff5717 	ldw	r3,-676(fp)
 20008bc:	1807fe72 	custom	249,r3,r3,zero
 20008c0:	180892ba 	slli	r4,r3,10
 20008c4:	e0ff5617 	ldw	r3,-680(fp)
 20008c8:	1807fe72 	custom	249,r3,r3,zero
 20008cc:	20c7883a 	add	r3,r4,r3
 20008d0:	10c00035 	stwio	r3,0(r2)
	IOWR(display, 7, ((int ) (ball[6][1]) << 10) + (int ) (ball[6][0]));
 20008d4:	e0bf3d17 	ldw	r2,-780(fp)
 20008d8:	10800704 	addi	r2,r2,28
 20008dc:	e0ff5917 	ldw	r3,-668(fp)
 20008e0:	1807fe72 	custom	249,r3,r3,zero
 20008e4:	180892ba 	slli	r4,r3,10
 20008e8:	e0ff5817 	ldw	r3,-672(fp)
 20008ec:	1807fe72 	custom	249,r3,r3,zero
 20008f0:	20c7883a 	add	r3,r4,r3
 20008f4:	10c00035 	stwio	r3,0(r2)
	IOWR(display, 8, ((int ) (ball[7][1]) << 10) + (int ) (ball[7][0]));
 20008f8:	e0bf3d17 	ldw	r2,-780(fp)
 20008fc:	10800804 	addi	r2,r2,32
 2000900:	e0ff5b17 	ldw	r3,-660(fp)
 2000904:	1807fe72 	custom	249,r3,r3,zero
 2000908:	180892ba 	slli	r4,r3,10
 200090c:	e0ff5a17 	ldw	r3,-664(fp)
 2000910:	1807fe72 	custom	249,r3,r3,zero
 2000914:	20c7883a 	add	r3,r4,r3
 2000918:	10c00035 	stwio	r3,0(r2)
	IOWR(display, 9, ((int ) (ball[8][1]) << 10) + (int ) (ball[8][0]));
 200091c:	e0bf3d17 	ldw	r2,-780(fp)
 2000920:	10800904 	addi	r2,r2,36
 2000924:	e0ff5d17 	ldw	r3,-652(fp)
 2000928:	1807fe72 	custom	249,r3,r3,zero
 200092c:	180892ba 	slli	r4,r3,10
 2000930:	e0ff5c17 	ldw	r3,-656(fp)
 2000934:	1807fe72 	custom	249,r3,r3,zero
 2000938:	20c7883a 	add	r3,r4,r3
 200093c:	10c00035 	stwio	r3,0(r2)
	IOWR(display, 10, ((int ) (ball[9][1]) << 10) + (int ) (ball[9][0]));
 2000940:	e0bf3d17 	ldw	r2,-780(fp)
 2000944:	10800a04 	addi	r2,r2,40
 2000948:	e0ff5f17 	ldw	r3,-644(fp)
 200094c:	1807fe72 	custom	249,r3,r3,zero
 2000950:	180892ba 	slli	r4,r3,10
 2000954:	e0ff5e17 	ldw	r3,-648(fp)
 2000958:	1807fe72 	custom	249,r3,r3,zero
 200095c:	20c7883a 	add	r3,r4,r3
 2000960:	10c00035 	stwio	r3,0(r2)

	int collision[45][2] = { { 0, 0 }, { 0, 0 }, { 0, 0 }, { 0, 0 }, { 0, 0 }, {
 2000964:	e0bf6004 	addi	r2,fp,-640
 2000968:	00c05a04 	movi	r3,360
 200096c:	180d883a 	mov	r6,r3
 2000970:	000b883a 	mov	r5,zero
 2000974:	1009883a 	mov	r4,r2
 2000978:	2009e080 	call	2009e08 <memset>
			{ 0, 0 }, { 0, 0 }, { 0, 0 }, { 0, 0 }, { 0, 0 }, { 0, 0 },
			{ 0, 0 }, { 0, 0 }, { 0, 0 }, { 0, 0 }, { 0, 0 }, { 0, 0 },
			{ 0, 0 }, { 0, 0 }, { 0, 0 } };

	while (1) {
		opt_task2 = OS_FLAG_SET;
 200097c:	00800044 	movi	r2,1
 2000980:	e0bf3e05 	stb	r2,-776(fp)
		OSFlagPost(AnimationFlagGrp, ANIMATION, opt_task2, &err);
 2000984:	d0a78817 	ldw	r2,-25056(gp)
 2000988:	e0ff3e03 	ldbu	r3,-776(fp)
 200098c:	e13f4b04 	addi	r4,fp,-724
 2000990:	200f883a 	mov	r7,r4
 2000994:	180d883a 	mov	r6,r3
 2000998:	01400044 	movi	r5,1
 200099c:	1009883a 	mov	r4,r2
 20009a0:	201adc00 	call	201adc0 <OSFlagPost>
		int *vector_x = OSMboxPend(MailBox4, 0, &err);
 20009a4:	d0a78f17 	ldw	r2,-25028(gp)
 20009a8:	e0ff4b04 	addi	r3,fp,-724
 20009ac:	180d883a 	mov	r6,r3
 20009b0:	000b883a 	mov	r5,zero
 20009b4:	1009883a 	mov	r4,r2
 20009b8:	201b99c0 	call	201b99c <OSMboxPend>
 20009bc:	e0bf3f15 	stw	r2,-772(fp)
		int *vector_y = OSMboxPend(MailBox5, 0, &err);
 20009c0:	d0a78917 	ldw	r2,-25052(gp)
 20009c4:	e0ff4b04 	addi	r3,fp,-724
 20009c8:	180d883a 	mov	r6,r3
 20009cc:	000b883a 	mov	r5,zero
 20009d0:	1009883a 	mov	r4,r2
 20009d4:	201b99c0 	call	201b99c <OSMboxPend>
 20009d8:	e0bf4015 	stw	r2,-768(fp)

		int *effect_x = OSMboxPend(MailBox12, 0, &err);
 20009dc:	d0a78d17 	ldw	r2,-25036(gp)
 20009e0:	e0ff4b04 	addi	r3,fp,-724
 20009e4:	180d883a 	mov	r6,r3
 20009e8:	000b883a 	mov	r5,zero
 20009ec:	1009883a 	mov	r4,r2
 20009f0:	201b99c0 	call	201b99c <OSMboxPend>
 20009f4:	e0bf4115 	stw	r2,-764(fp)
		int *effect_y = OSMboxPend(MailBox13, 0, &err);
 20009f8:	d0a78617 	ldw	r2,-25064(gp)
 20009fc:	e0ff4b04 	addi	r3,fp,-724
 2000a00:	180d883a 	mov	r6,r3
 2000a04:	000b883a 	mov	r5,zero
 2000a08:	1009883a 	mov	r4,r2
 2000a0c:	201b99c0 	call	201b99c <OSMboxPend>
 2000a10:	e0bf4215 	stw	r2,-760(fp)

		int *nbr_ball = OSMboxPend(MailBox8, 0, &err);
 2000a14:	d0a78e17 	ldw	r2,-25032(gp)
 2000a18:	e0ff4b04 	addi	r3,fp,-724
 2000a1c:	180d883a 	mov	r6,r3
 2000a20:	000b883a 	mov	r5,zero
 2000a24:	1009883a 	mov	r4,r2
 2000a28:	201b99c0 	call	201b99c <OSMboxPend>
 2000a2c:	e0bf4315 	stw	r2,-756(fp)

		int *reset = OSMboxPend(MailBox7,0, &err);
 2000a30:	d0a79017 	ldw	r2,-25024(gp)
 2000a34:	e0ff4b04 	addi	r3,fp,-724
 2000a38:	180d883a 	mov	r6,r3
 2000a3c:	000b883a 	mov	r5,zero
 2000a40:	1009883a 	mov	r4,r2
 2000a44:	201b99c0 	call	201b99c <OSMboxPend>
 2000a48:	e0bf4415 	stw	r2,-752(fp)

		if(*reset == 1){
 2000a4c:	e0bf4417 	ldw	r2,-752(fp)
 2000a50:	10800017 	ldw	r2,0(r2)
 2000a54:	10800058 	cmpnei	r2,r2,1
 2000a58:	1000931e 	bne	r2,zero,2000ca8 <task2+0x504>
			DEBUG_PRINT("Reset ball\n");
 2000a5c:	010080b4 	movhi	r4,514
 2000a60:	210a5c04 	addi	r4,r4,10608
 2000a64:	200a1b00 	call	200a1b0 <puts>
			ball[0][0] = 266.0;
 2000a68:	0090e174 	movhi	r2,17285
 2000a6c:	e0bf4c15 	stw	r2,-720(fp)
			ball[0][1] = 263.0;
 2000a70:	0090e134 	movhi	r2,17284
 2000a74:	10a00004 	addi	r2,r2,-32768
 2000a78:	e0bf4d15 	stw	r2,-716(fp)
			ball[1][0] = 626.0;
 2000a7c:	00910774 	movhi	r2,17437
 2000a80:	10a00004 	addi	r2,r2,-32768
 2000a84:	e0bf4e15 	stw	r2,-712(fp)
			ball[1][1] = 263.0;
 2000a88:	0090e134 	movhi	r2,17284
 2000a8c:	10a00004 	addi	r2,r2,-32768
 2000a90:	e0bf4f15 	stw	r2,-708(fp)
			ball[2][0] = 603.0;
 2000a94:	009105f4 	movhi	r2,17431
 2000a98:	10b00004 	addi	r2,r2,-16384
 2000a9c:	e0bf5015 	stw	r2,-704(fp)
			ball[2][1] = 249.0;
 2000aa0:	0090de74 	movhi	r2,17273
 2000aa4:	e0bf5115 	stw	r2,-700(fp)
			ball[3][0] = 603.0;
 2000aa8:	009105f4 	movhi	r2,17431
 2000aac:	10b00004 	addi	r2,r2,-16384
 2000ab0:	e0bf5215 	stw	r2,-696(fp)
			ball[3][1] = 277.0;
 2000ab4:	0090e2f4 	movhi	r2,17291
 2000ab8:	10a00004 	addi	r2,r2,-32768
 2000abc:	e0bf5315 	stw	r2,-692(fp)
			ball[4][0] = 626.0;
 2000ac0:	00910774 	movhi	r2,17437
 2000ac4:	10a00004 	addi	r2,r2,-32768
 2000ac8:	e0bf5415 	stw	r2,-688(fp)
			ball[4][1] = 290.0;
 2000acc:	0090e474 	movhi	r2,17297
 2000ad0:	e0bf5515 	stw	r2,-684(fp)
			ball[5][0] = 626.0;
 2000ad4:	00910774 	movhi	r2,17437
 2000ad8:	10a00004 	addi	r2,r2,-32768
 2000adc:	e0bf5615 	stw	r2,-680(fp)
			ball[5][1] = 236.0;
 2000ae0:	0090db34 	movhi	r2,17260
 2000ae4:	e0bf5715 	stw	r2,-676(fp)
			ball[6][0] = 649.0;
 2000ae8:	009108b4 	movhi	r2,17442
 2000aec:	10900004 	addi	r2,r2,16384
 2000af0:	e0bf5815 	stw	r2,-672(fp)
			ball[6][1] = 222.0;
 2000af4:	0090d7b4 	movhi	r2,17246
 2000af8:	e0bf5915 	stw	r2,-668(fp)
			ball[7][0] = 649.0;
 2000afc:	009108b4 	movhi	r2,17442
 2000b00:	10900004 	addi	r2,r2,16384
 2000b04:	e0bf5a15 	stw	r2,-664(fp)
			ball[7][1] = 249.0;
 2000b08:	0090de74 	movhi	r2,17273
 2000b0c:	e0bf5b15 	stw	r2,-660(fp)
			ball[8][0] = 649.0;
 2000b10:	009108b4 	movhi	r2,17442
 2000b14:	10900004 	addi	r2,r2,16384
 2000b18:	e0bf5c15 	stw	r2,-656(fp)
			ball[8][1] = 277.0;
 2000b1c:	0090e2f4 	movhi	r2,17291
 2000b20:	10a00004 	addi	r2,r2,-32768
 2000b24:	e0bf5d15 	stw	r2,-652(fp)
			ball[9][0] = 649.0;
 2000b28:	009108b4 	movhi	r2,17442
 2000b2c:	10900004 	addi	r2,r2,16384
 2000b30:	e0bf5e15 	stw	r2,-648(fp)
			ball[9][1] = 304.0;
 2000b34:	0090e634 	movhi	r2,17304
 2000b38:	e0bf5f15 	stw	r2,-644(fp)

			IOWR(display, 1, ((int ) (ball[0][1]) << 10) + (int ) (ball[0][0]));
 2000b3c:	e0bf3d17 	ldw	r2,-780(fp)
 2000b40:	10800104 	addi	r2,r2,4
 2000b44:	e0ff4d17 	ldw	r3,-716(fp)
 2000b48:	1807fe72 	custom	249,r3,r3,zero
 2000b4c:	180892ba 	slli	r4,r3,10
 2000b50:	e0ff4c17 	ldw	r3,-720(fp)
 2000b54:	1807fe72 	custom	249,r3,r3,zero
 2000b58:	20c7883a 	add	r3,r4,r3
 2000b5c:	10c00035 	stwio	r3,0(r2)
			IOWR(display, 2, ((int ) (ball[1][1]) << 10) + (int ) (ball[1][0]));
 2000b60:	e0bf3d17 	ldw	r2,-780(fp)
 2000b64:	10800204 	addi	r2,r2,8
 2000b68:	e0ff4f17 	ldw	r3,-708(fp)
 2000b6c:	1807fe72 	custom	249,r3,r3,zero
 2000b70:	180892ba 	slli	r4,r3,10
 2000b74:	e0ff4e17 	ldw	r3,-712(fp)
 2000b78:	1807fe72 	custom	249,r3,r3,zero
 2000b7c:	20c7883a 	add	r3,r4,r3
 2000b80:	10c00035 	stwio	r3,0(r2)
			IOWR(display, 3, ((int ) (ball[2][1]) << 10) + (int ) (ball[2][0]));
 2000b84:	e0bf3d17 	ldw	r2,-780(fp)
 2000b88:	10800304 	addi	r2,r2,12
 2000b8c:	e0ff5117 	ldw	r3,-700(fp)
 2000b90:	1807fe72 	custom	249,r3,r3,zero
 2000b94:	180892ba 	slli	r4,r3,10
 2000b98:	e0ff5017 	ldw	r3,-704(fp)
 2000b9c:	1807fe72 	custom	249,r3,r3,zero
 2000ba0:	20c7883a 	add	r3,r4,r3
 2000ba4:	10c00035 	stwio	r3,0(r2)
			IOWR(display, 4, ((int ) (ball[3][1]) << 10) + (int ) (ball[3][0]));
 2000ba8:	e0bf3d17 	ldw	r2,-780(fp)
 2000bac:	10800404 	addi	r2,r2,16
 2000bb0:	e0ff5317 	ldw	r3,-692(fp)
 2000bb4:	1807fe72 	custom	249,r3,r3,zero
 2000bb8:	180892ba 	slli	r4,r3,10
 2000bbc:	e0ff5217 	ldw	r3,-696(fp)
 2000bc0:	1807fe72 	custom	249,r3,r3,zero
 2000bc4:	20c7883a 	add	r3,r4,r3
 2000bc8:	10c00035 	stwio	r3,0(r2)
			IOWR(display, 5, ((int ) (ball[4][1]) << 10) + (int ) (ball[4][0]));
 2000bcc:	e0bf3d17 	ldw	r2,-780(fp)
 2000bd0:	10800504 	addi	r2,r2,20
 2000bd4:	e0ff5517 	ldw	r3,-684(fp)
 2000bd8:	1807fe72 	custom	249,r3,r3,zero
 2000bdc:	180892ba 	slli	r4,r3,10
 2000be0:	e0ff5417 	ldw	r3,-688(fp)
 2000be4:	1807fe72 	custom	249,r3,r3,zero
 2000be8:	20c7883a 	add	r3,r4,r3
 2000bec:	10c00035 	stwio	r3,0(r2)
			IOWR(display, 6, ((int ) (ball[5][1]) << 10) + (int ) (ball[5][0]));
 2000bf0:	e0bf3d17 	ldw	r2,-780(fp)
 2000bf4:	10800604 	addi	r2,r2,24
 2000bf8:	e0ff5717 	ldw	r3,-676(fp)
 2000bfc:	1807fe72 	custom	249,r3,r3,zero
 2000c00:	180892ba 	slli	r4,r3,10
 2000c04:	e0ff5617 	ldw	r3,-680(fp)
 2000c08:	1807fe72 	custom	249,r3,r3,zero
 2000c0c:	20c7883a 	add	r3,r4,r3
 2000c10:	10c00035 	stwio	r3,0(r2)
			IOWR(display, 7, ((int ) (ball[6][1]) << 10) + (int ) (ball[6][0]));
 2000c14:	e0bf3d17 	ldw	r2,-780(fp)
 2000c18:	10800704 	addi	r2,r2,28
 2000c1c:	e0ff5917 	ldw	r3,-668(fp)
 2000c20:	1807fe72 	custom	249,r3,r3,zero
 2000c24:	180892ba 	slli	r4,r3,10
 2000c28:	e0ff5817 	ldw	r3,-672(fp)
 2000c2c:	1807fe72 	custom	249,r3,r3,zero
 2000c30:	20c7883a 	add	r3,r4,r3
 2000c34:	10c00035 	stwio	r3,0(r2)
			IOWR(display, 8, ((int ) (ball[7][1]) << 10) + (int ) (ball[7][0]));
 2000c38:	e0bf3d17 	ldw	r2,-780(fp)
 2000c3c:	10800804 	addi	r2,r2,32
 2000c40:	e0ff5b17 	ldw	r3,-660(fp)
 2000c44:	1807fe72 	custom	249,r3,r3,zero
 2000c48:	180892ba 	slli	r4,r3,10
 2000c4c:	e0ff5a17 	ldw	r3,-664(fp)
 2000c50:	1807fe72 	custom	249,r3,r3,zero
 2000c54:	20c7883a 	add	r3,r4,r3
 2000c58:	10c00035 	stwio	r3,0(r2)
			IOWR(display, 9, ((int ) (ball[8][1]) << 10) + (int ) (ball[8][0]));
 2000c5c:	e0bf3d17 	ldw	r2,-780(fp)
 2000c60:	10800904 	addi	r2,r2,36
 2000c64:	e0ff5d17 	ldw	r3,-652(fp)
 2000c68:	1807fe72 	custom	249,r3,r3,zero
 2000c6c:	180892ba 	slli	r4,r3,10
 2000c70:	e0ff5c17 	ldw	r3,-656(fp)
 2000c74:	1807fe72 	custom	249,r3,r3,zero
 2000c78:	20c7883a 	add	r3,r4,r3
 2000c7c:	10c00035 	stwio	r3,0(r2)
			IOWR(display, 10, ((int ) (ball[9][1]) << 10) + (int ) (ball[9][0]));
 2000c80:	e0bf3d17 	ldw	r2,-780(fp)
 2000c84:	10800a04 	addi	r2,r2,40
 2000c88:	e0ff5f17 	ldw	r3,-644(fp)
 2000c8c:	1807fe72 	custom	249,r3,r3,zero
 2000c90:	180892ba 	slli	r4,r3,10
 2000c94:	e0ff5e17 	ldw	r3,-648(fp)
 2000c98:	1807fe72 	custom	249,r3,r3,zero
 2000c9c:	20c7883a 	add	r3,r4,r3
 2000ca0:	10c00035 	stwio	r3,0(r2)
 2000ca4:	003f3506 	br	200097c <task2+0x1d8>
		}
		else{

			int number_of_ball = *nbr_ball;
 2000ca8:	e0bf4317 	ldw	r2,-756(fp)
 2000cac:	10800017 	ldw	r2,0(r2)
 2000cb0:	e0bfba15 	stw	r2,-280(fp)

			float x = (float) *vector_x;
 2000cb4:	e0bf3f17 	ldw	r2,-772(fp)
 2000cb8:	10800017 	ldw	r2,0(r2)
 2000cbc:	1005feb2 	custom	250,r2,r2,zero
 2000cc0:	e0bf4515 	stw	r2,-748(fp)
			float y = (float) *vector_y;
 2000cc4:	e0bf4017 	ldw	r2,-768(fp)
 2000cc8:	10800017 	ldw	r2,0(r2)
 2000ccc:	1005feb2 	custom	250,r2,r2,zero
 2000cd0:	e0bf4615 	stw	r2,-744(fp)

			float length = sqrt(x * x + y * y);
 2000cd4:	e0ff4517 	ldw	r3,-748(fp)
 2000cd8:	e0bf4517 	ldw	r2,-748(fp)
 2000cdc:	1887ff32 	custom	252,r3,r3,r2
 2000ce0:	e13f4617 	ldw	r4,-744(fp)
 2000ce4:	e0bf4617 	ldw	r2,-744(fp)
 2000ce8:	2085ff32 	custom	252,r2,r4,r2
 2000cec:	1885ff72 	custom	253,r2,r3,r2
 2000cf0:	1009883a 	mov	r4,r2
 2000cf4:	20099440 	call	2009944 <__extendsfdf2>
 2000cf8:	100b883a 	mov	r5,r2
 2000cfc:	180d883a 	mov	r6,r3
 2000d00:	2809883a 	mov	r4,r5
 2000d04:	300b883a 	mov	r5,r6
 2000d08:	200471c0 	call	200471c <sqrt>
 2000d0c:	100b883a 	mov	r5,r2
 2000d10:	180d883a 	mov	r6,r3
 2000d14:	2809883a 	mov	r4,r5
 2000d18:	300b883a 	mov	r5,r6
 2000d1c:	2009a540 	call	2009a54 <__truncdfsf2>
 2000d20:	1007883a 	mov	r3,r2
 2000d24:	e0ff4715 	stw	r3,-740(fp)
			float direction[] = { x / length, y / length };
 2000d28:	e0ff4517 	ldw	r3,-748(fp)
 2000d2c:	e0bf4717 	ldw	r2,-740(fp)
 2000d30:	1885fff2 	custom	255,r2,r3,r2
 2000d34:	e0bfbb15 	stw	r2,-276(fp)
 2000d38:	e0ff4617 	ldw	r3,-744(fp)
 2000d3c:	e0bf4717 	ldw	r2,-740(fp)
 2000d40:	1885fff2 	custom	255,r2,r3,r2
 2000d44:	e0bfbc15 	stw	r2,-272(fp)
			float speed = fmin(length / 2.0, 400.0);
 2000d48:	e13f4717 	ldw	r4,-740(fp)
 2000d4c:	20099440 	call	2009944 <__extendsfdf2>
 2000d50:	1011883a 	mov	r8,r2
 2000d54:	1813883a 	mov	r9,r3
 2000d58:	000d883a 	mov	r6,zero
 2000d5c:	01d00034 	movhi	r7,16384
 2000d60:	4009883a 	mov	r4,r8
 2000d64:	480b883a 	mov	r5,r9
 2000d68:	2007df00 	call	2007df0 <__divdf3>
 2000d6c:	1009883a 	mov	r4,r2
 2000d70:	180b883a 	mov	r5,r3
 2000d74:	2005883a 	mov	r2,r4
 2000d78:	2807883a 	mov	r3,r5
 2000d7c:	000d883a 	mov	r6,zero
 2000d80:	01d01e74 	movhi	r7,16505
 2000d84:	1009883a 	mov	r4,r2
 2000d88:	180b883a 	mov	r5,r3
 2000d8c:	20042e80 	call	20042e8 <fmin>
 2000d90:	100b883a 	mov	r5,r2
 2000d94:	180d883a 	mov	r6,r3
 2000d98:	2809883a 	mov	r4,r5
 2000d9c:	300b883a 	mov	r5,r6
 2000da0:	2009a540 	call	2009a54 <__truncdfsf2>
 2000da4:	1007883a 	mov	r3,r2
 2000da8:	e0ff3b15 	stw	r3,-788(fp)

			float velocity[10][2] = { { direction[0] * speed / 80.0, direction[1]
 2000dac:	e0bfe504 	addi	r2,fp,-108
 2000db0:	00c01404 	movi	r3,80
 2000db4:	180d883a 	mov	r6,r3
 2000db8:	000b883a 	mov	r5,zero
 2000dbc:	1009883a 	mov	r4,r2
 2000dc0:	2009e080 	call	2009e08 <memset>
 2000dc4:	e0ffbb17 	ldw	r3,-276(fp)
 2000dc8:	e0bf3b17 	ldw	r2,-788(fp)
 2000dcc:	1887ff32 	custom	252,r3,r3,r2
 2000dd0:	0090a834 	movhi	r2,17056
 2000dd4:	1885fff2 	custom	255,r2,r3,r2
 2000dd8:	e0bfe515 	stw	r2,-108(fp)
 2000ddc:	e0ffbc17 	ldw	r3,-272(fp)
					* speed / 80.0 }, { 0.0, 0.0 }, { 0.0, 0.0 }, { 0.0, 0.0 }, {
 2000de0:	e0bf3b17 	ldw	r2,-788(fp)
 2000de4:	1887ff32 	custom	252,r3,r3,r2

			float length = sqrt(x * x + y * y);
			float direction[] = { x / length, y / length };
			float speed = fmin(length / 2.0, 400.0);

			float velocity[10][2] = { { direction[0] * speed / 80.0, direction[1]
 2000de8:	0090a834 	movhi	r2,17056
 2000dec:	1885fff2 	custom	255,r2,r3,r2
 2000df0:	e0bfe615 	stw	r2,-104(fp)
					* speed / 80.0 }, { 0.0, 0.0 }, { 0.0, 0.0 }, { 0.0, 0.0 }, {
					0.0, 0.0 }, { 0.0, 0.0 }, { 0.0, 0.0 }, { 0.0, 0.0 },
					{ 0.0, 0.0 }, { 0.0, 0.0 } };

			DEBUG_PRINT(
 2000df4:	e0bf3f17 	ldw	r2,-772(fp)
 2000df8:	15000017 	ldw	r20,0(r2)
 2000dfc:	e0bf4017 	ldw	r2,-768(fp)
 2000e00:	15400017 	ldw	r21,0(r2)
 2000e04:	e13f3b17 	ldw	r4,-788(fp)
 2000e08:	20099440 	call	2009944 <__extendsfdf2>
 2000e0c:	1025883a 	mov	r18,r2
 2000e10:	1827883a 	mov	r19,r3
					"[Task 2] Launch animation : (%d, %d) - initial speed : %f - initial velocity : (%f, %f) - (%d)",
					*vector_x, *vector_y, speed, velocity[0][0], velocity[0][1], number_of_ball);
 2000e14:	e0bfe517 	ldw	r2,-108(fp)
			float velocity[10][2] = { { direction[0] * speed / 80.0, direction[1]
					* speed / 80.0 }, { 0.0, 0.0 }, { 0.0, 0.0 }, { 0.0, 0.0 }, {
					0.0, 0.0 }, { 0.0, 0.0 }, { 0.0, 0.0 }, { 0.0, 0.0 },
					{ 0.0, 0.0 }, { 0.0, 0.0 } };

			DEBUG_PRINT(
 2000e18:	1009883a 	mov	r4,r2
 2000e1c:	20099440 	call	2009944 <__extendsfdf2>
 2000e20:	1021883a 	mov	r16,r2
 2000e24:	1823883a 	mov	r17,r3
					"[Task 2] Launch animation : (%d, %d) - initial speed : %f - initial velocity : (%f, %f) - (%d)",
					*vector_x, *vector_y, speed, velocity[0][0], velocity[0][1], number_of_ball);
 2000e28:	e0bfe617 	ldw	r2,-104(fp)
			float velocity[10][2] = { { direction[0] * speed / 80.0, direction[1]
					* speed / 80.0 }, { 0.0, 0.0 }, { 0.0, 0.0 }, { 0.0, 0.0 }, {
					0.0, 0.0 }, { 0.0, 0.0 }, { 0.0, 0.0 }, { 0.0, 0.0 },
					{ 0.0, 0.0 }, { 0.0, 0.0 } };

			DEBUG_PRINT(
 2000e2c:	1009883a 	mov	r4,r2
 2000e30:	20099440 	call	2009944 <__extendsfdf2>
 2000e34:	1009883a 	mov	r4,r2
 2000e38:	180b883a 	mov	r5,r3
 2000e3c:	e0bfba17 	ldw	r2,-280(fp)
 2000e40:	d8800515 	stw	r2,20(sp)
 2000e44:	d9000315 	stw	r4,12(sp)
 2000e48:	d9400415 	stw	r5,16(sp)
 2000e4c:	dc000115 	stw	r16,4(sp)
 2000e50:	dc400215 	stw	r17,8(sp)
 2000e54:	dcc00015 	stw	r19,0(sp)
 2000e58:	900f883a 	mov	r7,r18
 2000e5c:	a80d883a 	mov	r6,r21
 2000e60:	a00b883a 	mov	r5,r20
 2000e64:	010080b4 	movhi	r4,514
 2000e68:	210a5f04 	addi	r4,r4,10620
 2000e6c:	200a0300 	call	200a030 <printf>
					"[Task 2] Launch animation : (%d, %d) - initial speed : %f - initial velocity : (%f, %f) - (%d)",
					*vector_x, *vector_y, speed, velocity[0][0], velocity[0][1], number_of_ball);
			DEBUG_PRINT(" effect : (%d, %d)\n", *effect_x, *effect_y);
 2000e70:	e0bf4117 	ldw	r2,-764(fp)
 2000e74:	10c00017 	ldw	r3,0(r2)
 2000e78:	e0bf4217 	ldw	r2,-760(fp)
 2000e7c:	10800017 	ldw	r2,0(r2)
 2000e80:	100d883a 	mov	r6,r2
 2000e84:	180b883a 	mov	r5,r3
 2000e88:	010080b4 	movhi	r4,514
 2000e8c:	210a7704 	addi	r4,r4,10716
 2000e90:	200a0300 	call	200a030 <printf>

			int border_collision[10][4] = { { 0, 0, 0, 0 }, { 0, 0, 0, 0 }, { 0, 0,
 2000e94:	e0bfbd04 	addi	r2,fp,-268
 2000e98:	00c02804 	movi	r3,160
 2000e9c:	180d883a 	mov	r6,r3
 2000ea0:	000b883a 	mov	r5,zero
 2000ea4:	1009883a 	mov	r4,r2
 2000ea8:	2009e080 	call	2009e08 <memset>
					0, 0 }, { 0, 0, 0, 0 }, { 0, 0, 0, 0 }, { 0, 0, 0, 0 }, { 0, 0,
					0, 0 }, { 0, 0, 0, 0 }, { 0, 0, 0, 0 }, { 0, 0, 0, 0 } };
			float theta = atan2f((*effect_x - 446), (*effect_y - 263)); //+(3.14/2);
 2000eac:	e0bf4117 	ldw	r2,-764(fp)
 2000eb0:	10800017 	ldw	r2,0(r2)
 2000eb4:	10bf9084 	addi	r2,r2,-446
 2000eb8:	1007feb2 	custom	250,r3,r2,zero
 2000ebc:	e0bf4217 	ldw	r2,-760(fp)
 2000ec0:	10800017 	ldw	r2,0(r2)
 2000ec4:	10bfbe44 	addi	r2,r2,-263
 2000ec8:	1005feb2 	custom	250,r2,r2,zero
 2000ecc:	100b883a 	mov	r5,r2
 2000ed0:	1809883a 	mov	r4,r3
 2000ed4:	20048900 	call	2004890 <atan2f>
 2000ed8:	e0bf4815 	stw	r2,-736(fp)
			DEBUG_PRINT("theta : %f\n", theta);
 2000edc:	e13f4817 	ldw	r4,-736(fp)
 2000ee0:	20099440 	call	2009944 <__extendsfdf2>
 2000ee4:	100d883a 	mov	r6,r2
 2000ee8:	180f883a 	mov	r7,r3
 2000eec:	300b883a 	mov	r5,r6
 2000ef0:	380d883a 	mov	r6,r7
 2000ef4:	010080b4 	movhi	r4,514
 2000ef8:	210a7c04 	addi	r4,r4,10736
 2000efc:	200a0300 	call	200a030 <printf>
			int delay = 0;
 2000f00:	e03f4915 	stw	zero,-732(fp)
			float delta = 0;
 2000f04:	e03f3c15 	stw	zero,-784(fp)
			float dist = sqrtf(
 2000f08:	e0bf4117 	ldw	r2,-764(fp)
 2000f0c:	10800017 	ldw	r2,0(r2)
 2000f10:	10ff9084 	addi	r3,r2,-446
 2000f14:	e0bf4117 	ldw	r2,-764(fp)
 2000f18:	10800017 	ldw	r2,0(r2)
 2000f1c:	10bf9084 	addi	r2,r2,-446
 2000f20:	1887383a 	mul	r3,r3,r2
 2000f24:	e0bf4217 	ldw	r2,-760(fp)
 2000f28:	10800017 	ldw	r2,0(r2)
 2000f2c:	113fbe44 	addi	r4,r2,-263
 2000f30:	e0bf4217 	ldw	r2,-760(fp)
 2000f34:	10800017 	ldw	r2,0(r2)
 2000f38:	10bfbe44 	addi	r2,r2,-263
 2000f3c:	2085383a 	mul	r2,r4,r2
 2000f40:	1885883a 	add	r2,r3,r2
 2000f44:	1005feb2 	custom	250,r2,r2,zero
 2000f48:	1005fef2 	custom	251,r2,r2,zero
 2000f4c:	e0bf4a15 	stw	r2,-728(fp)
					(*effect_x - 446) * (*effect_x - 446)
							+ (*effect_y - 263) * (*effect_y - 263));
			while (speed >= 0.1) {
 2000f50:	00072d06 	br	2002c08 <task2+0x2464>
				//Border Collide

				borderCollide(ball[0], border_collision[0], velocity[0]);
 2000f54:	e13fe504 	addi	r4,fp,-108
 2000f58:	e0ffbd04 	addi	r3,fp,-268
 2000f5c:	e0bf4c04 	addi	r2,fp,-720
 2000f60:	200d883a 	mov	r6,r4
 2000f64:	180b883a 	mov	r5,r3
 2000f68:	1009883a 	mov	r4,r2
 2000f6c:	2003aec0 	call	2003aec <borderCollide>
				borderCollide(ball[1], border_collision[1], velocity[1]);
 2000f70:	e0bfe504 	addi	r2,fp,-108
 2000f74:	11000204 	addi	r4,r2,8
 2000f78:	e0bfbd04 	addi	r2,fp,-268
 2000f7c:	10c00404 	addi	r3,r2,16
 2000f80:	e0bf4c04 	addi	r2,fp,-720
 2000f84:	10800204 	addi	r2,r2,8
 2000f88:	200d883a 	mov	r6,r4
 2000f8c:	180b883a 	mov	r5,r3
 2000f90:	1009883a 	mov	r4,r2
 2000f94:	2003aec0 	call	2003aec <borderCollide>
				borderCollide(ball[2], border_collision[2], velocity[2]);
 2000f98:	e0bfe504 	addi	r2,fp,-108
 2000f9c:	11000404 	addi	r4,r2,16
 2000fa0:	e0bfbd04 	addi	r2,fp,-268
 2000fa4:	10c00804 	addi	r3,r2,32
 2000fa8:	e0bf4c04 	addi	r2,fp,-720
 2000fac:	10800404 	addi	r2,r2,16
 2000fb0:	200d883a 	mov	r6,r4
 2000fb4:	180b883a 	mov	r5,r3
 2000fb8:	1009883a 	mov	r4,r2
 2000fbc:	2003aec0 	call	2003aec <borderCollide>
				borderCollide(ball[3], border_collision[3], velocity[3]);
 2000fc0:	e0bfe504 	addi	r2,fp,-108
 2000fc4:	11000604 	addi	r4,r2,24
 2000fc8:	e0bfbd04 	addi	r2,fp,-268
 2000fcc:	10c00c04 	addi	r3,r2,48
 2000fd0:	e0bf4c04 	addi	r2,fp,-720
 2000fd4:	10800604 	addi	r2,r2,24
 2000fd8:	200d883a 	mov	r6,r4
 2000fdc:	180b883a 	mov	r5,r3
 2000fe0:	1009883a 	mov	r4,r2
 2000fe4:	2003aec0 	call	2003aec <borderCollide>
				borderCollide(ball[4], border_collision[4], velocity[4]);
 2000fe8:	e0bfe504 	addi	r2,fp,-108
 2000fec:	11000804 	addi	r4,r2,32
 2000ff0:	e0bfbd04 	addi	r2,fp,-268
 2000ff4:	10c01004 	addi	r3,r2,64
 2000ff8:	e0bf4c04 	addi	r2,fp,-720
 2000ffc:	10800804 	addi	r2,r2,32
 2001000:	200d883a 	mov	r6,r4
 2001004:	180b883a 	mov	r5,r3
 2001008:	1009883a 	mov	r4,r2
 200100c:	2003aec0 	call	2003aec <borderCollide>
				borderCollide(ball[5], border_collision[5], velocity[5]);
 2001010:	e0bfe504 	addi	r2,fp,-108
 2001014:	11000a04 	addi	r4,r2,40
 2001018:	e0bfbd04 	addi	r2,fp,-268
 200101c:	10c01404 	addi	r3,r2,80
 2001020:	e0bf4c04 	addi	r2,fp,-720
 2001024:	10800a04 	addi	r2,r2,40
 2001028:	200d883a 	mov	r6,r4
 200102c:	180b883a 	mov	r5,r3
 2001030:	1009883a 	mov	r4,r2
 2001034:	2003aec0 	call	2003aec <borderCollide>
				borderCollide(ball[6], border_collision[6], velocity[6]);
 2001038:	e0bfe504 	addi	r2,fp,-108
 200103c:	11000c04 	addi	r4,r2,48
 2001040:	e0bfbd04 	addi	r2,fp,-268
 2001044:	10c01804 	addi	r3,r2,96
 2001048:	e0bf4c04 	addi	r2,fp,-720
 200104c:	10800c04 	addi	r2,r2,48
 2001050:	200d883a 	mov	r6,r4
 2001054:	180b883a 	mov	r5,r3
 2001058:	1009883a 	mov	r4,r2
 200105c:	2003aec0 	call	2003aec <borderCollide>
				borderCollide(ball[7], border_collision[7], velocity[7]);
 2001060:	e0bfe504 	addi	r2,fp,-108
 2001064:	11000e04 	addi	r4,r2,56
 2001068:	e0bfbd04 	addi	r2,fp,-268
 200106c:	10c01c04 	addi	r3,r2,112
 2001070:	e0bf4c04 	addi	r2,fp,-720
 2001074:	10800e04 	addi	r2,r2,56
 2001078:	200d883a 	mov	r6,r4
 200107c:	180b883a 	mov	r5,r3
 2001080:	1009883a 	mov	r4,r2
 2001084:	2003aec0 	call	2003aec <borderCollide>
				borderCollide(ball[8], border_collision[8], velocity[8]);
 2001088:	e0bfe504 	addi	r2,fp,-108
 200108c:	11001004 	addi	r4,r2,64
 2001090:	e0bfbd04 	addi	r2,fp,-268
 2001094:	10c02004 	addi	r3,r2,128
 2001098:	e0bf4c04 	addi	r2,fp,-720
 200109c:	10801004 	addi	r2,r2,64
 20010a0:	200d883a 	mov	r6,r4
 20010a4:	180b883a 	mov	r5,r3
 20010a8:	1009883a 	mov	r4,r2
 20010ac:	2003aec0 	call	2003aec <borderCollide>
				borderCollide(ball[9], border_collision[9], velocity[9]);
 20010b0:	e0bfe504 	addi	r2,fp,-108
 20010b4:	11001204 	addi	r4,r2,72
 20010b8:	e0bfbd04 	addi	r2,fp,-268
 20010bc:	10c02404 	addi	r3,r2,144
 20010c0:	e0bf4c04 	addi	r2,fp,-720
 20010c4:	10801204 	addi	r2,r2,72
 20010c8:	200d883a 	mov	r6,r4
 20010cc:	180b883a 	mov	r5,r3
 20010d0:	1009883a 	mov	r4,r2
 20010d4:	2003aec0 	call	2003aec <borderCollide>

				//Move the ball

				//Move the ball
				//   printf("(Delta,theta), (%f,%f)\n",delta,theta);moveBall(ball[0], velocity[0],delta,1);
				if (theta > 0 && theta > 0.4 && dist > 20) {
 20010d8:	e0bf4817 	ldw	r2,-736(fp)
 20010dc:	0007883a 	mov	r3,zero
 20010e0:	10c5f972 	custom	229,r2,r2,r3
 20010e4:	10003d26 	beq	r2,zero,20011dc <task2+0xa38>
 20010e8:	e13f4817 	ldw	r4,-736(fp)
 20010ec:	20099440 	call	2009944 <__extendsfdf2>
 20010f0:	1011883a 	mov	r8,r2
 20010f4:	1813883a 	mov	r9,r3
 20010f8:	01a666b4 	movhi	r6,39322
 20010fc:	31a66684 	addi	r6,r6,-26214
 2001100:	01cff6b4 	movhi	r7,16346
 2001104:	39e66644 	addi	r7,r7,-26215
 2001108:	4009883a 	mov	r4,r8
 200110c:	480b883a 	mov	r5,r9
 2001110:	20087600 	call	2008760 <__gedf2>
 2001114:	0080310e 	bge	zero,r2,20011dc <task2+0xa38>
 2001118:	e0ff4a17 	ldw	r3,-728(fp)
 200111c:	00906834 	movhi	r2,16800
 2001120:	1885f972 	custom	229,r2,r3,r2
 2001124:	10002d26 	beq	r2,zero,20011dc <task2+0xa38>
					if (delta < theta) {
 2001128:	e0ff3c17 	ldw	r3,-784(fp)
 200112c:	e0bf4817 	ldw	r2,-736(fp)
 2001130:	1885f9f2 	custom	231,r2,r3,r2
 2001134:	10007126 	beq	r2,zero,20012fc <task2+0xb58>
						//printf("(Delta,theta), (%f,%f)\n",delta,theta);
						delta = delta + (0.00012667 * dist);
 2001138:	e13f3c17 	ldw	r4,-784(fp)
 200113c:	20099440 	call	2009944 <__extendsfdf2>
 2001140:	1021883a 	mov	r16,r2
 2001144:	1823883a 	mov	r17,r3
 2001148:	e13f4a17 	ldw	r4,-728(fp)
 200114c:	20099440 	call	2009944 <__extendsfdf2>
 2001150:	1011883a 	mov	r8,r2
 2001154:	1813883a 	mov	r9,r3
 2001158:	0180f234 	movhi	r6,968
 200115c:	31b82a84 	addi	r6,r6,-8022
 2001160:	01cfc874 	movhi	r7,16161
 2001164:	39e695c4 	addi	r7,r7,-26025
 2001168:	4009883a 	mov	r4,r8
 200116c:	480b883a 	mov	r5,r9
 2001170:	20089300 	call	2008930 <__muldf3>
 2001174:	1009883a 	mov	r4,r2
 2001178:	180b883a 	mov	r5,r3
 200117c:	2005883a 	mov	r2,r4
 2001180:	2807883a 	mov	r3,r5
 2001184:	100d883a 	mov	r6,r2
 2001188:	180f883a 	mov	r7,r3
 200118c:	8009883a 	mov	r4,r16
 2001190:	880b883a 	mov	r5,r17
 2001194:	20075440 	call	2007544 <__adddf3>
 2001198:	1009883a 	mov	r4,r2
 200119c:	180b883a 	mov	r5,r3
 20011a0:	2005883a 	mov	r2,r4
 20011a4:	2807883a 	mov	r3,r5
 20011a8:	1009883a 	mov	r4,r2
 20011ac:	180b883a 	mov	r5,r3
 20011b0:	2009a540 	call	2009a54 <__truncdfsf2>
 20011b4:	1007883a 	mov	r3,r2
 20011b8:	e0ff3c15 	stw	r3,-784(fp)
						moveBall(ball[0], velocity[0], delta, 1);
 20011bc:	e0ffe504 	addi	r3,fp,-108
 20011c0:	e0bf4c04 	addi	r2,fp,-720
 20011c4:	01c00044 	movi	r7,1
 20011c8:	e1bf3c17 	ldw	r6,-784(fp)
 20011cc:	180b883a 	mov	r5,r3
 20011d0:	1009883a 	mov	r4,r2
 20011d4:	20040f00 	call	20040f0 <moveBall>
				//Move the ball

				//Move the ball
				//   printf("(Delta,theta), (%f,%f)\n",delta,theta);moveBall(ball[0], velocity[0],delta,1);
				if (theta > 0 && theta > 0.4 && dist > 20) {
					if (delta < theta) {
 20011d8:	00004806 	br	20012fc <task2+0xb58>
						//printf("(Delta,theta), (%f,%f)\n",delta,theta);
						delta = delta + (0.00012667 * dist);
						moveBall(ball[0], velocity[0], delta, 1);
					}
				} else if (theta < 0 && theta < -0.4 && dist > 20) {
 20011dc:	e0bf4817 	ldw	r2,-736(fp)
 20011e0:	0007883a 	mov	r3,zero
 20011e4:	10c5f9f2 	custom	231,r2,r2,r3
 20011e8:	10003d26 	beq	r2,zero,20012e0 <task2+0xb3c>
 20011ec:	e13f4817 	ldw	r4,-736(fp)
 20011f0:	20099440 	call	2009944 <__extendsfdf2>
 20011f4:	1011883a 	mov	r8,r2
 20011f8:	1813883a 	mov	r9,r3
 20011fc:	01a666b4 	movhi	r6,39322
 2001200:	31a66684 	addi	r6,r6,-26214
 2001204:	01eff6b4 	movhi	r7,49114
 2001208:	39e66644 	addi	r7,r7,-26215
 200120c:	4009883a 	mov	r4,r8
 2001210:	480b883a 	mov	r5,r9
 2001214:	200883c0 	call	200883c <__ledf2>
 2001218:	1000310e 	bge	r2,zero,20012e0 <task2+0xb3c>
 200121c:	e0ff4a17 	ldw	r3,-728(fp)
 2001220:	00906834 	movhi	r2,16800
 2001224:	1885f972 	custom	229,r2,r3,r2
 2001228:	10002d26 	beq	r2,zero,20012e0 <task2+0xb3c>
					if (delta > theta) {
 200122c:	e0ff3c17 	ldw	r3,-784(fp)
 2001230:	e0bf4817 	ldw	r2,-736(fp)
 2001234:	1885f972 	custom	229,r2,r3,r2
 2001238:	10003026 	beq	r2,zero,20012fc <task2+0xb58>
						//printf("(Delta,theta), (%f,%f)\n",delta,theta);
						moveBall(ball[0], velocity[0], delta, 1);
 200123c:	e0ffe504 	addi	r3,fp,-108
 2001240:	e0bf4c04 	addi	r2,fp,-720
 2001244:	01c00044 	movi	r7,1
 2001248:	e1bf3c17 	ldw	r6,-784(fp)
 200124c:	180b883a 	mov	r5,r3
 2001250:	1009883a 	mov	r4,r2
 2001254:	20040f00 	call	20040f0 <moveBall>

						delta = delta - (0.00012667 * dist);
 2001258:	e13f3c17 	ldw	r4,-784(fp)
 200125c:	20099440 	call	2009944 <__extendsfdf2>
 2001260:	1021883a 	mov	r16,r2
 2001264:	1823883a 	mov	r17,r3
 2001268:	e13f4a17 	ldw	r4,-728(fp)
 200126c:	20099440 	call	2009944 <__extendsfdf2>
 2001270:	1011883a 	mov	r8,r2
 2001274:	1813883a 	mov	r9,r3
 2001278:	0180f234 	movhi	r6,968
 200127c:	31b82a84 	addi	r6,r6,-8022
 2001280:	01cfc874 	movhi	r7,16161
 2001284:	39e695c4 	addi	r7,r7,-26025
 2001288:	4009883a 	mov	r4,r8
 200128c:	480b883a 	mov	r5,r9
 2001290:	20089300 	call	2008930 <__muldf3>
 2001294:	1009883a 	mov	r4,r2
 2001298:	180b883a 	mov	r5,r3
 200129c:	2005883a 	mov	r2,r4
 20012a0:	2807883a 	mov	r3,r5
 20012a4:	100d883a 	mov	r6,r2
 20012a8:	180f883a 	mov	r7,r3
 20012ac:	8009883a 	mov	r4,r16
 20012b0:	880b883a 	mov	r5,r17
 20012b4:	20090480 	call	2009048 <__subdf3>
 20012b8:	1009883a 	mov	r4,r2
 20012bc:	180b883a 	mov	r5,r3
 20012c0:	2005883a 	mov	r2,r4
 20012c4:	2807883a 	mov	r3,r5
 20012c8:	1009883a 	mov	r4,r2
 20012cc:	180b883a 	mov	r5,r3
 20012d0:	2009a540 	call	2009a54 <__truncdfsf2>
 20012d4:	1007883a 	mov	r3,r2
 20012d8:	e0ff3c15 	stw	r3,-784(fp)
						//printf("(Delta,theta), (%f,%f)\n",delta,theta);
						delta = delta + (0.00012667 * dist);
						moveBall(ball[0], velocity[0], delta, 1);
					}
				} else if (theta < 0 && theta < -0.4 && dist > 20) {
					if (delta > theta) {
 20012dc:	00000706 	br	20012fc <task2+0xb58>
						moveBall(ball[0], velocity[0], delta, 1);

						delta = delta - (0.00012667 * dist);
					}
				} else {
					moveBall(ball[0], velocity[0], 0, 0);
 20012e0:	e0ffe504 	addi	r3,fp,-108
 20012e4:	e0bf4c04 	addi	r2,fp,-720
 20012e8:	000f883a 	mov	r7,zero
 20012ec:	000d883a 	mov	r6,zero
 20012f0:	180b883a 	mov	r5,r3
 20012f4:	1009883a 	mov	r4,r2
 20012f8:	20040f00 	call	20040f0 <moveBall>
				}
				moveBall(ball[1], velocity[1], 0, 0);
 20012fc:	e0bfe504 	addi	r2,fp,-108
 2001300:	10c00204 	addi	r3,r2,8
 2001304:	e0bf4c04 	addi	r2,fp,-720
 2001308:	10800204 	addi	r2,r2,8
 200130c:	000f883a 	mov	r7,zero
 2001310:	000d883a 	mov	r6,zero
 2001314:	180b883a 	mov	r5,r3
 2001318:	1009883a 	mov	r4,r2
 200131c:	20040f00 	call	20040f0 <moveBall>
				moveBall(ball[2], velocity[2], 0, 0);
 2001320:	e0bfe504 	addi	r2,fp,-108
 2001324:	10c00404 	addi	r3,r2,16
 2001328:	e0bf4c04 	addi	r2,fp,-720
 200132c:	10800404 	addi	r2,r2,16
 2001330:	000f883a 	mov	r7,zero
 2001334:	000d883a 	mov	r6,zero
 2001338:	180b883a 	mov	r5,r3
 200133c:	1009883a 	mov	r4,r2
 2001340:	20040f00 	call	20040f0 <moveBall>
				moveBall(ball[3], velocity[3], 0, 0);
 2001344:	e0bfe504 	addi	r2,fp,-108
 2001348:	10c00604 	addi	r3,r2,24
 200134c:	e0bf4c04 	addi	r2,fp,-720
 2001350:	10800604 	addi	r2,r2,24
 2001354:	000f883a 	mov	r7,zero
 2001358:	000d883a 	mov	r6,zero
 200135c:	180b883a 	mov	r5,r3
 2001360:	1009883a 	mov	r4,r2
 2001364:	20040f00 	call	20040f0 <moveBall>
				moveBall(ball[4], velocity[4], 0, 0);
 2001368:	e0bfe504 	addi	r2,fp,-108
 200136c:	10c00804 	addi	r3,r2,32
 2001370:	e0bf4c04 	addi	r2,fp,-720
 2001374:	10800804 	addi	r2,r2,32
 2001378:	000f883a 	mov	r7,zero
 200137c:	000d883a 	mov	r6,zero
 2001380:	180b883a 	mov	r5,r3
 2001384:	1009883a 	mov	r4,r2
 2001388:	20040f00 	call	20040f0 <moveBall>
				moveBall(ball[5], velocity[5], 0, 0);
 200138c:	e0bfe504 	addi	r2,fp,-108
 2001390:	10c00a04 	addi	r3,r2,40
 2001394:	e0bf4c04 	addi	r2,fp,-720
 2001398:	10800a04 	addi	r2,r2,40
 200139c:	000f883a 	mov	r7,zero
 20013a0:	000d883a 	mov	r6,zero
 20013a4:	180b883a 	mov	r5,r3
 20013a8:	1009883a 	mov	r4,r2
 20013ac:	20040f00 	call	20040f0 <moveBall>
				moveBall(ball[6], velocity[6], 0, 0);
 20013b0:	e0bfe504 	addi	r2,fp,-108
 20013b4:	10c00c04 	addi	r3,r2,48
 20013b8:	e0bf4c04 	addi	r2,fp,-720
 20013bc:	10800c04 	addi	r2,r2,48
 20013c0:	000f883a 	mov	r7,zero
 20013c4:	000d883a 	mov	r6,zero
 20013c8:	180b883a 	mov	r5,r3
 20013cc:	1009883a 	mov	r4,r2
 20013d0:	20040f00 	call	20040f0 <moveBall>
				moveBall(ball[7], velocity[7], 0, 0);
 20013d4:	e0bfe504 	addi	r2,fp,-108
 20013d8:	10c00e04 	addi	r3,r2,56
 20013dc:	e0bf4c04 	addi	r2,fp,-720
 20013e0:	10800e04 	addi	r2,r2,56
 20013e4:	000f883a 	mov	r7,zero
 20013e8:	000d883a 	mov	r6,zero
 20013ec:	180b883a 	mov	r5,r3
 20013f0:	1009883a 	mov	r4,r2
 20013f4:	20040f00 	call	20040f0 <moveBall>
				moveBall(ball[8], velocity[8], 0, 0);
 20013f8:	e0bfe504 	addi	r2,fp,-108
 20013fc:	10c01004 	addi	r3,r2,64
 2001400:	e0bf4c04 	addi	r2,fp,-720
 2001404:	10801004 	addi	r2,r2,64
 2001408:	000f883a 	mov	r7,zero
 200140c:	000d883a 	mov	r6,zero
 2001410:	180b883a 	mov	r5,r3
 2001414:	1009883a 	mov	r4,r2
 2001418:	20040f00 	call	20040f0 <moveBall>
				moveBall(ball[9], velocity[9], 0, 0);
 200141c:	e0bfe504 	addi	r2,fp,-108
 2001420:	10c01204 	addi	r3,r2,72
 2001424:	e0bf4c04 	addi	r2,fp,-720
 2001428:	10801204 	addi	r2,r2,72
 200142c:	000f883a 	mov	r7,zero
 2001430:	000d883a 	mov	r6,zero
 2001434:	180b883a 	mov	r5,r3
 2001438:	1009883a 	mov	r4,r2
 200143c:	20040f00 	call	20040f0 <moveBall>
				//Whole collision

				if (whole_collide(ball[1], velocity[1]))
 2001440:	e0bfe504 	addi	r2,fp,-108
 2001444:	10c00204 	addi	r3,r2,8
 2001448:	e0bf4c04 	addi	r2,fp,-720
 200144c:	10800204 	addi	r2,r2,8
 2001450:	180b883a 	mov	r5,r3
 2001454:	1009883a 	mov	r4,r2
 2001458:	20039780 	call	2003978 <whole_collide>
 200145c:	10000326 	beq	r2,zero,200146c <task2+0xcc8>
					number_of_ball -= 1;
 2001460:	e0bfba17 	ldw	r2,-280(fp)
 2001464:	10bfffc4 	addi	r2,r2,-1
 2001468:	e0bfba15 	stw	r2,-280(fp)
				if (whole_collide(ball[2], velocity[2]))
 200146c:	e0bfe504 	addi	r2,fp,-108
 2001470:	10c00404 	addi	r3,r2,16
 2001474:	e0bf4c04 	addi	r2,fp,-720
 2001478:	10800404 	addi	r2,r2,16
 200147c:	180b883a 	mov	r5,r3
 2001480:	1009883a 	mov	r4,r2
 2001484:	20039780 	call	2003978 <whole_collide>
 2001488:	10000326 	beq	r2,zero,2001498 <task2+0xcf4>
					number_of_ball -= 1;
 200148c:	e0bfba17 	ldw	r2,-280(fp)
 2001490:	10bfffc4 	addi	r2,r2,-1
 2001494:	e0bfba15 	stw	r2,-280(fp)
				if (whole_collide(ball[3], velocity[3]))
 2001498:	e0bfe504 	addi	r2,fp,-108
 200149c:	10c00604 	addi	r3,r2,24
 20014a0:	e0bf4c04 	addi	r2,fp,-720
 20014a4:	10800604 	addi	r2,r2,24
 20014a8:	180b883a 	mov	r5,r3
 20014ac:	1009883a 	mov	r4,r2
 20014b0:	20039780 	call	2003978 <whole_collide>
 20014b4:	10000326 	beq	r2,zero,20014c4 <task2+0xd20>
					number_of_ball -= 1;
 20014b8:	e0bfba17 	ldw	r2,-280(fp)
 20014bc:	10bfffc4 	addi	r2,r2,-1
 20014c0:	e0bfba15 	stw	r2,-280(fp)
				if (whole_collide(ball[4], velocity[4]))
 20014c4:	e0bfe504 	addi	r2,fp,-108
 20014c8:	10c00804 	addi	r3,r2,32
 20014cc:	e0bf4c04 	addi	r2,fp,-720
 20014d0:	10800804 	addi	r2,r2,32
 20014d4:	180b883a 	mov	r5,r3
 20014d8:	1009883a 	mov	r4,r2
 20014dc:	20039780 	call	2003978 <whole_collide>
 20014e0:	10000326 	beq	r2,zero,20014f0 <task2+0xd4c>
					number_of_ball -= 1;
 20014e4:	e0bfba17 	ldw	r2,-280(fp)
 20014e8:	10bfffc4 	addi	r2,r2,-1
 20014ec:	e0bfba15 	stw	r2,-280(fp)
				if (whole_collide(ball[5], velocity[5]))
 20014f0:	e0bfe504 	addi	r2,fp,-108
 20014f4:	10c00a04 	addi	r3,r2,40
 20014f8:	e0bf4c04 	addi	r2,fp,-720
 20014fc:	10800a04 	addi	r2,r2,40
 2001500:	180b883a 	mov	r5,r3
 2001504:	1009883a 	mov	r4,r2
 2001508:	20039780 	call	2003978 <whole_collide>
 200150c:	10000326 	beq	r2,zero,200151c <task2+0xd78>
					number_of_ball -= 1;
 2001510:	e0bfba17 	ldw	r2,-280(fp)
 2001514:	10bfffc4 	addi	r2,r2,-1
 2001518:	e0bfba15 	stw	r2,-280(fp)
				if (whole_collide(ball[6], velocity[6]))
 200151c:	e0bfe504 	addi	r2,fp,-108
 2001520:	10c00c04 	addi	r3,r2,48
 2001524:	e0bf4c04 	addi	r2,fp,-720
 2001528:	10800c04 	addi	r2,r2,48
 200152c:	180b883a 	mov	r5,r3
 2001530:	1009883a 	mov	r4,r2
 2001534:	20039780 	call	2003978 <whole_collide>
 2001538:	10000326 	beq	r2,zero,2001548 <task2+0xda4>
					number_of_ball -= 1;
 200153c:	e0bfba17 	ldw	r2,-280(fp)
 2001540:	10bfffc4 	addi	r2,r2,-1
 2001544:	e0bfba15 	stw	r2,-280(fp)
				if (whole_collide(ball[7], velocity[7]))
 2001548:	e0bfe504 	addi	r2,fp,-108
 200154c:	10c00e04 	addi	r3,r2,56
 2001550:	e0bf4c04 	addi	r2,fp,-720
 2001554:	10800e04 	addi	r2,r2,56
 2001558:	180b883a 	mov	r5,r3
 200155c:	1009883a 	mov	r4,r2
 2001560:	20039780 	call	2003978 <whole_collide>
 2001564:	10000326 	beq	r2,zero,2001574 <task2+0xdd0>
					number_of_ball -= 1;
 2001568:	e0bfba17 	ldw	r2,-280(fp)
 200156c:	10bfffc4 	addi	r2,r2,-1
 2001570:	e0bfba15 	stw	r2,-280(fp)
				if (whole_collide(ball[8], velocity[8]))
 2001574:	e0bfe504 	addi	r2,fp,-108
 2001578:	10c01004 	addi	r3,r2,64
 200157c:	e0bf4c04 	addi	r2,fp,-720
 2001580:	10801004 	addi	r2,r2,64
 2001584:	180b883a 	mov	r5,r3
 2001588:	1009883a 	mov	r4,r2
 200158c:	20039780 	call	2003978 <whole_collide>
 2001590:	10000326 	beq	r2,zero,20015a0 <task2+0xdfc>
					number_of_ball -= 1;
 2001594:	e0bfba17 	ldw	r2,-280(fp)
 2001598:	10bfffc4 	addi	r2,r2,-1
 200159c:	e0bfba15 	stw	r2,-280(fp)
				if (whole_collide(ball[9], velocity[9]))
 20015a0:	e0bfe504 	addi	r2,fp,-108
 20015a4:	10c01204 	addi	r3,r2,72
 20015a8:	e0bf4c04 	addi	r2,fp,-720
 20015ac:	10801204 	addi	r2,r2,72
 20015b0:	180b883a 	mov	r5,r3
 20015b4:	1009883a 	mov	r4,r2
 20015b8:	20039780 	call	2003978 <whole_collide>
 20015bc:	10000326 	beq	r2,zero,20015cc <task2+0xe28>
					number_of_ball -= 1;
 20015c0:	e0bfba17 	ldw	r2,-280(fp)
 20015c4:	10bfffc4 	addi	r2,r2,-1
 20015c8:	e0bfba15 	stw	r2,-280(fp)

				//Collision

				detect_collide(ball[0], ball[1], collision[0]);
 20015cc:	e13f6004 	addi	r4,fp,-640
 20015d0:	e0bf4c04 	addi	r2,fp,-720
 20015d4:	10c00204 	addi	r3,r2,8
 20015d8:	e0bf4c04 	addi	r2,fp,-720
 20015dc:	200d883a 	mov	r6,r4
 20015e0:	180b883a 	mov	r5,r3
 20015e4:	1009883a 	mov	r4,r2
 20015e8:	2003ca80 	call	2003ca8 <detect_collide>
				detect_collide(ball[0], ball[2], collision[1]);
 20015ec:	e0bf6004 	addi	r2,fp,-640
 20015f0:	11000204 	addi	r4,r2,8
 20015f4:	e0bf4c04 	addi	r2,fp,-720
 20015f8:	10c00404 	addi	r3,r2,16
 20015fc:	e0bf4c04 	addi	r2,fp,-720
 2001600:	200d883a 	mov	r6,r4
 2001604:	180b883a 	mov	r5,r3
 2001608:	1009883a 	mov	r4,r2
 200160c:	2003ca80 	call	2003ca8 <detect_collide>
				detect_collide(ball[0], ball[3], collision[2]);
 2001610:	e0bf6004 	addi	r2,fp,-640
 2001614:	11000404 	addi	r4,r2,16
 2001618:	e0bf4c04 	addi	r2,fp,-720
 200161c:	10c00604 	addi	r3,r2,24
 2001620:	e0bf4c04 	addi	r2,fp,-720
 2001624:	200d883a 	mov	r6,r4
 2001628:	180b883a 	mov	r5,r3
 200162c:	1009883a 	mov	r4,r2
 2001630:	2003ca80 	call	2003ca8 <detect_collide>
				detect_collide(ball[0], ball[4], collision[3]);
 2001634:	e0bf6004 	addi	r2,fp,-640
 2001638:	11000604 	addi	r4,r2,24
 200163c:	e0bf4c04 	addi	r2,fp,-720
 2001640:	10c00804 	addi	r3,r2,32
 2001644:	e0bf4c04 	addi	r2,fp,-720
 2001648:	200d883a 	mov	r6,r4
 200164c:	180b883a 	mov	r5,r3
 2001650:	1009883a 	mov	r4,r2
 2001654:	2003ca80 	call	2003ca8 <detect_collide>
				detect_collide(ball[0], ball[5], collision[4]);
 2001658:	e0bf6004 	addi	r2,fp,-640
 200165c:	11000804 	addi	r4,r2,32
 2001660:	e0bf4c04 	addi	r2,fp,-720
 2001664:	10c00a04 	addi	r3,r2,40
 2001668:	e0bf4c04 	addi	r2,fp,-720
 200166c:	200d883a 	mov	r6,r4
 2001670:	180b883a 	mov	r5,r3
 2001674:	1009883a 	mov	r4,r2
 2001678:	2003ca80 	call	2003ca8 <detect_collide>
				detect_collide(ball[0], ball[6], collision[5]);
 200167c:	e0bf6004 	addi	r2,fp,-640
 2001680:	11000a04 	addi	r4,r2,40
 2001684:	e0bf4c04 	addi	r2,fp,-720
 2001688:	10c00c04 	addi	r3,r2,48
 200168c:	e0bf4c04 	addi	r2,fp,-720
 2001690:	200d883a 	mov	r6,r4
 2001694:	180b883a 	mov	r5,r3
 2001698:	1009883a 	mov	r4,r2
 200169c:	2003ca80 	call	2003ca8 <detect_collide>
				detect_collide(ball[0], ball[7], collision[6]);
 20016a0:	e0bf6004 	addi	r2,fp,-640
 20016a4:	11000c04 	addi	r4,r2,48
 20016a8:	e0bf4c04 	addi	r2,fp,-720
 20016ac:	10c00e04 	addi	r3,r2,56
 20016b0:	e0bf4c04 	addi	r2,fp,-720
 20016b4:	200d883a 	mov	r6,r4
 20016b8:	180b883a 	mov	r5,r3
 20016bc:	1009883a 	mov	r4,r2
 20016c0:	2003ca80 	call	2003ca8 <detect_collide>
				detect_collide(ball[0], ball[8], collision[7]);
 20016c4:	e0bf6004 	addi	r2,fp,-640
 20016c8:	11000e04 	addi	r4,r2,56
 20016cc:	e0bf4c04 	addi	r2,fp,-720
 20016d0:	10c01004 	addi	r3,r2,64
 20016d4:	e0bf4c04 	addi	r2,fp,-720
 20016d8:	200d883a 	mov	r6,r4
 20016dc:	180b883a 	mov	r5,r3
 20016e0:	1009883a 	mov	r4,r2
 20016e4:	2003ca80 	call	2003ca8 <detect_collide>
				detect_collide(ball[0], ball[9], collision[8]);
 20016e8:	e0bf6004 	addi	r2,fp,-640
 20016ec:	11001004 	addi	r4,r2,64
 20016f0:	e0bf4c04 	addi	r2,fp,-720
 20016f4:	10c01204 	addi	r3,r2,72
 20016f8:	e0bf4c04 	addi	r2,fp,-720
 20016fc:	200d883a 	mov	r6,r4
 2001700:	180b883a 	mov	r5,r3
 2001704:	1009883a 	mov	r4,r2
 2001708:	2003ca80 	call	2003ca8 <detect_collide>

				detect_collide(ball[1], ball[2], collision[9]);
 200170c:	e0bf6004 	addi	r2,fp,-640
 2001710:	11001204 	addi	r4,r2,72
 2001714:	e0bf4c04 	addi	r2,fp,-720
 2001718:	10c00404 	addi	r3,r2,16
 200171c:	e0bf4c04 	addi	r2,fp,-720
 2001720:	10800204 	addi	r2,r2,8
 2001724:	200d883a 	mov	r6,r4
 2001728:	180b883a 	mov	r5,r3
 200172c:	1009883a 	mov	r4,r2
 2001730:	2003ca80 	call	2003ca8 <detect_collide>
				detect_collide(ball[1], ball[3], collision[10]);
 2001734:	e0bf6004 	addi	r2,fp,-640
 2001738:	11001404 	addi	r4,r2,80
 200173c:	e0bf4c04 	addi	r2,fp,-720
 2001740:	10c00604 	addi	r3,r2,24
 2001744:	e0bf4c04 	addi	r2,fp,-720
 2001748:	10800204 	addi	r2,r2,8
 200174c:	200d883a 	mov	r6,r4
 2001750:	180b883a 	mov	r5,r3
 2001754:	1009883a 	mov	r4,r2
 2001758:	2003ca80 	call	2003ca8 <detect_collide>
				detect_collide(ball[1], ball[4], collision[11]);
 200175c:	e0bf6004 	addi	r2,fp,-640
 2001760:	11001604 	addi	r4,r2,88
 2001764:	e0bf4c04 	addi	r2,fp,-720
 2001768:	10c00804 	addi	r3,r2,32
 200176c:	e0bf4c04 	addi	r2,fp,-720
 2001770:	10800204 	addi	r2,r2,8
 2001774:	200d883a 	mov	r6,r4
 2001778:	180b883a 	mov	r5,r3
 200177c:	1009883a 	mov	r4,r2
 2001780:	2003ca80 	call	2003ca8 <detect_collide>
				detect_collide(ball[1], ball[5], collision[12]);
 2001784:	e0bf6004 	addi	r2,fp,-640
 2001788:	11001804 	addi	r4,r2,96
 200178c:	e0bf4c04 	addi	r2,fp,-720
 2001790:	10c00a04 	addi	r3,r2,40
 2001794:	e0bf4c04 	addi	r2,fp,-720
 2001798:	10800204 	addi	r2,r2,8
 200179c:	200d883a 	mov	r6,r4
 20017a0:	180b883a 	mov	r5,r3
 20017a4:	1009883a 	mov	r4,r2
 20017a8:	2003ca80 	call	2003ca8 <detect_collide>
				detect_collide(ball[1], ball[6], collision[13]);
 20017ac:	e0bf6004 	addi	r2,fp,-640
 20017b0:	11001a04 	addi	r4,r2,104
 20017b4:	e0bf4c04 	addi	r2,fp,-720
 20017b8:	10c00c04 	addi	r3,r2,48
 20017bc:	e0bf4c04 	addi	r2,fp,-720
 20017c0:	10800204 	addi	r2,r2,8
 20017c4:	200d883a 	mov	r6,r4
 20017c8:	180b883a 	mov	r5,r3
 20017cc:	1009883a 	mov	r4,r2
 20017d0:	2003ca80 	call	2003ca8 <detect_collide>
				detect_collide(ball[1], ball[7], collision[14]);
 20017d4:	e0bf6004 	addi	r2,fp,-640
 20017d8:	11001c04 	addi	r4,r2,112
 20017dc:	e0bf4c04 	addi	r2,fp,-720
 20017e0:	10c00e04 	addi	r3,r2,56
 20017e4:	e0bf4c04 	addi	r2,fp,-720
 20017e8:	10800204 	addi	r2,r2,8
 20017ec:	200d883a 	mov	r6,r4
 20017f0:	180b883a 	mov	r5,r3
 20017f4:	1009883a 	mov	r4,r2
 20017f8:	2003ca80 	call	2003ca8 <detect_collide>
				detect_collide(ball[1], ball[8], collision[15]);
 20017fc:	e0bf6004 	addi	r2,fp,-640
 2001800:	11001e04 	addi	r4,r2,120
 2001804:	e0bf4c04 	addi	r2,fp,-720
 2001808:	10c01004 	addi	r3,r2,64
 200180c:	e0bf4c04 	addi	r2,fp,-720
 2001810:	10800204 	addi	r2,r2,8
 2001814:	200d883a 	mov	r6,r4
 2001818:	180b883a 	mov	r5,r3
 200181c:	1009883a 	mov	r4,r2
 2001820:	2003ca80 	call	2003ca8 <detect_collide>
				detect_collide(ball[1], ball[9], collision[16]);
 2001824:	e0bf6004 	addi	r2,fp,-640
 2001828:	11002004 	addi	r4,r2,128
 200182c:	e0bf4c04 	addi	r2,fp,-720
 2001830:	10c01204 	addi	r3,r2,72
 2001834:	e0bf4c04 	addi	r2,fp,-720
 2001838:	10800204 	addi	r2,r2,8
 200183c:	200d883a 	mov	r6,r4
 2001840:	180b883a 	mov	r5,r3
 2001844:	1009883a 	mov	r4,r2
 2001848:	2003ca80 	call	2003ca8 <detect_collide>

				detect_collide(ball[2], ball[3], collision[17]);
 200184c:	e0bf6004 	addi	r2,fp,-640
 2001850:	11002204 	addi	r4,r2,136
 2001854:	e0bf4c04 	addi	r2,fp,-720
 2001858:	10c00604 	addi	r3,r2,24
 200185c:	e0bf4c04 	addi	r2,fp,-720
 2001860:	10800404 	addi	r2,r2,16
 2001864:	200d883a 	mov	r6,r4
 2001868:	180b883a 	mov	r5,r3
 200186c:	1009883a 	mov	r4,r2
 2001870:	2003ca80 	call	2003ca8 <detect_collide>
				detect_collide(ball[2], ball[4], collision[18]);
 2001874:	e0bf6004 	addi	r2,fp,-640
 2001878:	11002404 	addi	r4,r2,144
 200187c:	e0bf4c04 	addi	r2,fp,-720
 2001880:	10c00804 	addi	r3,r2,32
 2001884:	e0bf4c04 	addi	r2,fp,-720
 2001888:	10800404 	addi	r2,r2,16
 200188c:	200d883a 	mov	r6,r4
 2001890:	180b883a 	mov	r5,r3
 2001894:	1009883a 	mov	r4,r2
 2001898:	2003ca80 	call	2003ca8 <detect_collide>
				detect_collide(ball[2], ball[5], collision[19]);
 200189c:	e0bf6004 	addi	r2,fp,-640
 20018a0:	11002604 	addi	r4,r2,152
 20018a4:	e0bf4c04 	addi	r2,fp,-720
 20018a8:	10c00a04 	addi	r3,r2,40
 20018ac:	e0bf4c04 	addi	r2,fp,-720
 20018b0:	10800404 	addi	r2,r2,16
 20018b4:	200d883a 	mov	r6,r4
 20018b8:	180b883a 	mov	r5,r3
 20018bc:	1009883a 	mov	r4,r2
 20018c0:	2003ca80 	call	2003ca8 <detect_collide>
				detect_collide(ball[2], ball[6], collision[20]);
 20018c4:	e0bf6004 	addi	r2,fp,-640
 20018c8:	11002804 	addi	r4,r2,160
 20018cc:	e0bf4c04 	addi	r2,fp,-720
 20018d0:	10c00c04 	addi	r3,r2,48
 20018d4:	e0bf4c04 	addi	r2,fp,-720
 20018d8:	10800404 	addi	r2,r2,16
 20018dc:	200d883a 	mov	r6,r4
 20018e0:	180b883a 	mov	r5,r3
 20018e4:	1009883a 	mov	r4,r2
 20018e8:	2003ca80 	call	2003ca8 <detect_collide>
				detect_collide(ball[2], ball[7], collision[21]);
 20018ec:	e0bf6004 	addi	r2,fp,-640
 20018f0:	11002a04 	addi	r4,r2,168
 20018f4:	e0bf4c04 	addi	r2,fp,-720
 20018f8:	10c00e04 	addi	r3,r2,56
 20018fc:	e0bf4c04 	addi	r2,fp,-720
 2001900:	10800404 	addi	r2,r2,16
 2001904:	200d883a 	mov	r6,r4
 2001908:	180b883a 	mov	r5,r3
 200190c:	1009883a 	mov	r4,r2
 2001910:	2003ca80 	call	2003ca8 <detect_collide>
				detect_collide(ball[2], ball[8], collision[22]);
 2001914:	e0bf6004 	addi	r2,fp,-640
 2001918:	11002c04 	addi	r4,r2,176
 200191c:	e0bf4c04 	addi	r2,fp,-720
 2001920:	10c01004 	addi	r3,r2,64
 2001924:	e0bf4c04 	addi	r2,fp,-720
 2001928:	10800404 	addi	r2,r2,16
 200192c:	200d883a 	mov	r6,r4
 2001930:	180b883a 	mov	r5,r3
 2001934:	1009883a 	mov	r4,r2
 2001938:	2003ca80 	call	2003ca8 <detect_collide>
				detect_collide(ball[2], ball[9], collision[23]);
 200193c:	e0bf6004 	addi	r2,fp,-640
 2001940:	11002e04 	addi	r4,r2,184
 2001944:	e0bf4c04 	addi	r2,fp,-720
 2001948:	10c01204 	addi	r3,r2,72
 200194c:	e0bf4c04 	addi	r2,fp,-720
 2001950:	10800404 	addi	r2,r2,16
 2001954:	200d883a 	mov	r6,r4
 2001958:	180b883a 	mov	r5,r3
 200195c:	1009883a 	mov	r4,r2
 2001960:	2003ca80 	call	2003ca8 <detect_collide>

				detect_collide(ball[3], ball[4], collision[24]);
 2001964:	e0bf6004 	addi	r2,fp,-640
 2001968:	11003004 	addi	r4,r2,192
 200196c:	e0bf4c04 	addi	r2,fp,-720
 2001970:	10c00804 	addi	r3,r2,32
 2001974:	e0bf4c04 	addi	r2,fp,-720
 2001978:	10800604 	addi	r2,r2,24
 200197c:	200d883a 	mov	r6,r4
 2001980:	180b883a 	mov	r5,r3
 2001984:	1009883a 	mov	r4,r2
 2001988:	2003ca80 	call	2003ca8 <detect_collide>
				detect_collide(ball[3], ball[5], collision[25]);
 200198c:	e0bf6004 	addi	r2,fp,-640
 2001990:	11003204 	addi	r4,r2,200
 2001994:	e0bf4c04 	addi	r2,fp,-720
 2001998:	10c00a04 	addi	r3,r2,40
 200199c:	e0bf4c04 	addi	r2,fp,-720
 20019a0:	10800604 	addi	r2,r2,24
 20019a4:	200d883a 	mov	r6,r4
 20019a8:	180b883a 	mov	r5,r3
 20019ac:	1009883a 	mov	r4,r2
 20019b0:	2003ca80 	call	2003ca8 <detect_collide>
				detect_collide(ball[3], ball[6], collision[26]);
 20019b4:	e0bf6004 	addi	r2,fp,-640
 20019b8:	11003404 	addi	r4,r2,208
 20019bc:	e0bf4c04 	addi	r2,fp,-720
 20019c0:	10c00c04 	addi	r3,r2,48
 20019c4:	e0bf4c04 	addi	r2,fp,-720
 20019c8:	10800604 	addi	r2,r2,24
 20019cc:	200d883a 	mov	r6,r4
 20019d0:	180b883a 	mov	r5,r3
 20019d4:	1009883a 	mov	r4,r2
 20019d8:	2003ca80 	call	2003ca8 <detect_collide>
				detect_collide(ball[3], ball[7], collision[27]);
 20019dc:	e0bf6004 	addi	r2,fp,-640
 20019e0:	11003604 	addi	r4,r2,216
 20019e4:	e0bf4c04 	addi	r2,fp,-720
 20019e8:	10c00e04 	addi	r3,r2,56
 20019ec:	e0bf4c04 	addi	r2,fp,-720
 20019f0:	10800604 	addi	r2,r2,24
 20019f4:	200d883a 	mov	r6,r4
 20019f8:	180b883a 	mov	r5,r3
 20019fc:	1009883a 	mov	r4,r2
 2001a00:	2003ca80 	call	2003ca8 <detect_collide>
				detect_collide(ball[3], ball[8], collision[28]);
 2001a04:	e0bf6004 	addi	r2,fp,-640
 2001a08:	11003804 	addi	r4,r2,224
 2001a0c:	e0bf4c04 	addi	r2,fp,-720
 2001a10:	10c01004 	addi	r3,r2,64
 2001a14:	e0bf4c04 	addi	r2,fp,-720
 2001a18:	10800604 	addi	r2,r2,24
 2001a1c:	200d883a 	mov	r6,r4
 2001a20:	180b883a 	mov	r5,r3
 2001a24:	1009883a 	mov	r4,r2
 2001a28:	2003ca80 	call	2003ca8 <detect_collide>
				detect_collide(ball[3], ball[9], collision[29]);
 2001a2c:	e0bf6004 	addi	r2,fp,-640
 2001a30:	11003a04 	addi	r4,r2,232
 2001a34:	e0bf4c04 	addi	r2,fp,-720
 2001a38:	10c01204 	addi	r3,r2,72
 2001a3c:	e0bf4c04 	addi	r2,fp,-720
 2001a40:	10800604 	addi	r2,r2,24
 2001a44:	200d883a 	mov	r6,r4
 2001a48:	180b883a 	mov	r5,r3
 2001a4c:	1009883a 	mov	r4,r2
 2001a50:	2003ca80 	call	2003ca8 <detect_collide>

				detect_collide(ball[4], ball[5], collision[30]);
 2001a54:	e0bf6004 	addi	r2,fp,-640
 2001a58:	11003c04 	addi	r4,r2,240
 2001a5c:	e0bf4c04 	addi	r2,fp,-720
 2001a60:	10c00a04 	addi	r3,r2,40
 2001a64:	e0bf4c04 	addi	r2,fp,-720
 2001a68:	10800804 	addi	r2,r2,32
 2001a6c:	200d883a 	mov	r6,r4
 2001a70:	180b883a 	mov	r5,r3
 2001a74:	1009883a 	mov	r4,r2
 2001a78:	2003ca80 	call	2003ca8 <detect_collide>
				detect_collide(ball[4], ball[6], collision[31]);
 2001a7c:	e0bf6004 	addi	r2,fp,-640
 2001a80:	11003e04 	addi	r4,r2,248
 2001a84:	e0bf4c04 	addi	r2,fp,-720
 2001a88:	10c00c04 	addi	r3,r2,48
 2001a8c:	e0bf4c04 	addi	r2,fp,-720
 2001a90:	10800804 	addi	r2,r2,32
 2001a94:	200d883a 	mov	r6,r4
 2001a98:	180b883a 	mov	r5,r3
 2001a9c:	1009883a 	mov	r4,r2
 2001aa0:	2003ca80 	call	2003ca8 <detect_collide>
				detect_collide(ball[4], ball[7], collision[32]);
 2001aa4:	e0bf6004 	addi	r2,fp,-640
 2001aa8:	11004004 	addi	r4,r2,256
 2001aac:	e0bf4c04 	addi	r2,fp,-720
 2001ab0:	10c00e04 	addi	r3,r2,56
 2001ab4:	e0bf4c04 	addi	r2,fp,-720
 2001ab8:	10800804 	addi	r2,r2,32
 2001abc:	200d883a 	mov	r6,r4
 2001ac0:	180b883a 	mov	r5,r3
 2001ac4:	1009883a 	mov	r4,r2
 2001ac8:	2003ca80 	call	2003ca8 <detect_collide>
				detect_collide(ball[4], ball[8], collision[33]);
 2001acc:	e0bf6004 	addi	r2,fp,-640
 2001ad0:	11004204 	addi	r4,r2,264
 2001ad4:	e0bf4c04 	addi	r2,fp,-720
 2001ad8:	10c01004 	addi	r3,r2,64
 2001adc:	e0bf4c04 	addi	r2,fp,-720
 2001ae0:	10800804 	addi	r2,r2,32
 2001ae4:	200d883a 	mov	r6,r4
 2001ae8:	180b883a 	mov	r5,r3
 2001aec:	1009883a 	mov	r4,r2
 2001af0:	2003ca80 	call	2003ca8 <detect_collide>
				detect_collide(ball[4], ball[9], collision[34]);
 2001af4:	e0bf6004 	addi	r2,fp,-640
 2001af8:	11004404 	addi	r4,r2,272
 2001afc:	e0bf4c04 	addi	r2,fp,-720
 2001b00:	10c01204 	addi	r3,r2,72
 2001b04:	e0bf4c04 	addi	r2,fp,-720
 2001b08:	10800804 	addi	r2,r2,32
 2001b0c:	200d883a 	mov	r6,r4
 2001b10:	180b883a 	mov	r5,r3
 2001b14:	1009883a 	mov	r4,r2
 2001b18:	2003ca80 	call	2003ca8 <detect_collide>

				detect_collide(ball[5], ball[6], collision[35]);
 2001b1c:	e0bf6004 	addi	r2,fp,-640
 2001b20:	11004604 	addi	r4,r2,280
 2001b24:	e0bf4c04 	addi	r2,fp,-720
 2001b28:	10c00c04 	addi	r3,r2,48
 2001b2c:	e0bf4c04 	addi	r2,fp,-720
 2001b30:	10800a04 	addi	r2,r2,40
 2001b34:	200d883a 	mov	r6,r4
 2001b38:	180b883a 	mov	r5,r3
 2001b3c:	1009883a 	mov	r4,r2
 2001b40:	2003ca80 	call	2003ca8 <detect_collide>
				detect_collide(ball[5], ball[7], collision[36]);
 2001b44:	e0bf6004 	addi	r2,fp,-640
 2001b48:	11004804 	addi	r4,r2,288
 2001b4c:	e0bf4c04 	addi	r2,fp,-720
 2001b50:	10c00e04 	addi	r3,r2,56
 2001b54:	e0bf4c04 	addi	r2,fp,-720
 2001b58:	10800a04 	addi	r2,r2,40
 2001b5c:	200d883a 	mov	r6,r4
 2001b60:	180b883a 	mov	r5,r3
 2001b64:	1009883a 	mov	r4,r2
 2001b68:	2003ca80 	call	2003ca8 <detect_collide>
				detect_collide(ball[5], ball[8], collision[37]);
 2001b6c:	e0bf6004 	addi	r2,fp,-640
 2001b70:	11004a04 	addi	r4,r2,296
 2001b74:	e0bf4c04 	addi	r2,fp,-720
 2001b78:	10c01004 	addi	r3,r2,64
 2001b7c:	e0bf4c04 	addi	r2,fp,-720
 2001b80:	10800a04 	addi	r2,r2,40
 2001b84:	200d883a 	mov	r6,r4
 2001b88:	180b883a 	mov	r5,r3
 2001b8c:	1009883a 	mov	r4,r2
 2001b90:	2003ca80 	call	2003ca8 <detect_collide>
				detect_collide(ball[5], ball[9], collision[38]);
 2001b94:	e0bf6004 	addi	r2,fp,-640
 2001b98:	11004c04 	addi	r4,r2,304
 2001b9c:	e0bf4c04 	addi	r2,fp,-720
 2001ba0:	10c01204 	addi	r3,r2,72
 2001ba4:	e0bf4c04 	addi	r2,fp,-720
 2001ba8:	10800a04 	addi	r2,r2,40
 2001bac:	200d883a 	mov	r6,r4
 2001bb0:	180b883a 	mov	r5,r3
 2001bb4:	1009883a 	mov	r4,r2
 2001bb8:	2003ca80 	call	2003ca8 <detect_collide>

				detect_collide(ball[6], ball[7], collision[39]);
 2001bbc:	e0bf6004 	addi	r2,fp,-640
 2001bc0:	11004e04 	addi	r4,r2,312
 2001bc4:	e0bf4c04 	addi	r2,fp,-720
 2001bc8:	10c00e04 	addi	r3,r2,56
 2001bcc:	e0bf4c04 	addi	r2,fp,-720
 2001bd0:	10800c04 	addi	r2,r2,48
 2001bd4:	200d883a 	mov	r6,r4
 2001bd8:	180b883a 	mov	r5,r3
 2001bdc:	1009883a 	mov	r4,r2
 2001be0:	2003ca80 	call	2003ca8 <detect_collide>
				detect_collide(ball[6], ball[8], collision[40]);
 2001be4:	e0bf6004 	addi	r2,fp,-640
 2001be8:	11005004 	addi	r4,r2,320
 2001bec:	e0bf4c04 	addi	r2,fp,-720
 2001bf0:	10c01004 	addi	r3,r2,64
 2001bf4:	e0bf4c04 	addi	r2,fp,-720
 2001bf8:	10800c04 	addi	r2,r2,48
 2001bfc:	200d883a 	mov	r6,r4
 2001c00:	180b883a 	mov	r5,r3
 2001c04:	1009883a 	mov	r4,r2
 2001c08:	2003ca80 	call	2003ca8 <detect_collide>
				detect_collide(ball[6], ball[9], collision[41]);
 2001c0c:	e0bf6004 	addi	r2,fp,-640
 2001c10:	11005204 	addi	r4,r2,328
 2001c14:	e0bf4c04 	addi	r2,fp,-720
 2001c18:	10c01204 	addi	r3,r2,72
 2001c1c:	e0bf4c04 	addi	r2,fp,-720
 2001c20:	10800c04 	addi	r2,r2,48
 2001c24:	200d883a 	mov	r6,r4
 2001c28:	180b883a 	mov	r5,r3
 2001c2c:	1009883a 	mov	r4,r2
 2001c30:	2003ca80 	call	2003ca8 <detect_collide>

				detect_collide(ball[7], ball[8], collision[42]);
 2001c34:	e0bf6004 	addi	r2,fp,-640
 2001c38:	11005404 	addi	r4,r2,336
 2001c3c:	e0bf4c04 	addi	r2,fp,-720
 2001c40:	10c01004 	addi	r3,r2,64
 2001c44:	e0bf4c04 	addi	r2,fp,-720
 2001c48:	10800e04 	addi	r2,r2,56
 2001c4c:	200d883a 	mov	r6,r4
 2001c50:	180b883a 	mov	r5,r3
 2001c54:	1009883a 	mov	r4,r2
 2001c58:	2003ca80 	call	2003ca8 <detect_collide>
				detect_collide(ball[7], ball[9], collision[43]);
 2001c5c:	e0bf6004 	addi	r2,fp,-640
 2001c60:	11005604 	addi	r4,r2,344
 2001c64:	e0bf4c04 	addi	r2,fp,-720
 2001c68:	10c01204 	addi	r3,r2,72
 2001c6c:	e0bf4c04 	addi	r2,fp,-720
 2001c70:	10800e04 	addi	r2,r2,56
 2001c74:	200d883a 	mov	r6,r4
 2001c78:	180b883a 	mov	r5,r3
 2001c7c:	1009883a 	mov	r4,r2
 2001c80:	2003ca80 	call	2003ca8 <detect_collide>

				detect_collide(ball[8], ball[9], collision[44]);
 2001c84:	e0bf6004 	addi	r2,fp,-640
 2001c88:	11005804 	addi	r4,r2,352
 2001c8c:	e0bf4c04 	addi	r2,fp,-720
 2001c90:	10c01204 	addi	r3,r2,72
 2001c94:	e0bf4c04 	addi	r2,fp,-720
 2001c98:	10801004 	addi	r2,r2,64
 2001c9c:	200d883a 	mov	r6,r4
 2001ca0:	180b883a 	mov	r5,r3
 2001ca4:	1009883a 	mov	r4,r2
 2001ca8:	2003ca80 	call	2003ca8 <detect_collide>

				//Calcul of collision

				collide_calc(ball[0], ball[1], velocity[0], velocity[1],
 2001cac:	e0bfe504 	addi	r2,fp,-108
 2001cb0:	11800204 	addi	r6,r2,8
 2001cb4:	e17fe504 	addi	r5,fp,-108
 2001cb8:	e0bf4c04 	addi	r2,fp,-720
 2001cbc:	11000204 	addi	r4,r2,8
 2001cc0:	e0ff4c04 	addi	r3,fp,-720
 2001cc4:	d8000115 	stw	zero,4(sp)
 2001cc8:	e0bf6004 	addi	r2,fp,-640
 2001ccc:	d8800015 	stw	r2,0(sp)
 2001cd0:	300f883a 	mov	r7,r6
 2001cd4:	280d883a 	mov	r6,r5
 2001cd8:	200b883a 	mov	r5,r4
 2001cdc:	1809883a 	mov	r4,r3
 2001ce0:	2003d680 	call	2003d68 <collide_calc>
						collision[0], 0);
				collide_calc(ball[0], ball[2], velocity[0], velocity[2],
 2001ce4:	e0bfe504 	addi	r2,fp,-108
 2001ce8:	11800404 	addi	r6,r2,16
 2001cec:	e17fe504 	addi	r5,fp,-108
 2001cf0:	e0bf4c04 	addi	r2,fp,-720
 2001cf4:	11000404 	addi	r4,r2,16
 2001cf8:	e0ff4c04 	addi	r3,fp,-720
 2001cfc:	00800044 	movi	r2,1
 2001d00:	d8800115 	stw	r2,4(sp)
 2001d04:	e0bf6004 	addi	r2,fp,-640
 2001d08:	10800204 	addi	r2,r2,8
 2001d0c:	d8800015 	stw	r2,0(sp)
 2001d10:	300f883a 	mov	r7,r6
 2001d14:	280d883a 	mov	r6,r5
 2001d18:	200b883a 	mov	r5,r4
 2001d1c:	1809883a 	mov	r4,r3
 2001d20:	2003d680 	call	2003d68 <collide_calc>
						collision[1], 1);
				collide_calc(ball[0], ball[3], velocity[0], velocity[3],
 2001d24:	e0bfe504 	addi	r2,fp,-108
 2001d28:	11800604 	addi	r6,r2,24
 2001d2c:	e17fe504 	addi	r5,fp,-108
 2001d30:	e0bf4c04 	addi	r2,fp,-720
 2001d34:	11000604 	addi	r4,r2,24
 2001d38:	e0ff4c04 	addi	r3,fp,-720
 2001d3c:	00800084 	movi	r2,2
 2001d40:	d8800115 	stw	r2,4(sp)
 2001d44:	e0bf6004 	addi	r2,fp,-640
 2001d48:	10800404 	addi	r2,r2,16
 2001d4c:	d8800015 	stw	r2,0(sp)
 2001d50:	300f883a 	mov	r7,r6
 2001d54:	280d883a 	mov	r6,r5
 2001d58:	200b883a 	mov	r5,r4
 2001d5c:	1809883a 	mov	r4,r3
 2001d60:	2003d680 	call	2003d68 <collide_calc>
						collision[2], 2);
				collide_calc(ball[0], ball[4], velocity[0], velocity[4],
 2001d64:	e0bfe504 	addi	r2,fp,-108
 2001d68:	11800804 	addi	r6,r2,32
 2001d6c:	e17fe504 	addi	r5,fp,-108
 2001d70:	e0bf4c04 	addi	r2,fp,-720
 2001d74:	11000804 	addi	r4,r2,32
 2001d78:	e0ff4c04 	addi	r3,fp,-720
 2001d7c:	008000c4 	movi	r2,3
 2001d80:	d8800115 	stw	r2,4(sp)
 2001d84:	e0bf6004 	addi	r2,fp,-640
 2001d88:	10800604 	addi	r2,r2,24
 2001d8c:	d8800015 	stw	r2,0(sp)
 2001d90:	300f883a 	mov	r7,r6
 2001d94:	280d883a 	mov	r6,r5
 2001d98:	200b883a 	mov	r5,r4
 2001d9c:	1809883a 	mov	r4,r3
 2001da0:	2003d680 	call	2003d68 <collide_calc>
						collision[3], 3);
				collide_calc(ball[0], ball[5], velocity[0], velocity[5],
 2001da4:	e0bfe504 	addi	r2,fp,-108
 2001da8:	11800a04 	addi	r6,r2,40
 2001dac:	e17fe504 	addi	r5,fp,-108
 2001db0:	e0bf4c04 	addi	r2,fp,-720
 2001db4:	11000a04 	addi	r4,r2,40
 2001db8:	e0ff4c04 	addi	r3,fp,-720
 2001dbc:	00800104 	movi	r2,4
 2001dc0:	d8800115 	stw	r2,4(sp)
 2001dc4:	e0bf6004 	addi	r2,fp,-640
 2001dc8:	10800804 	addi	r2,r2,32
 2001dcc:	d8800015 	stw	r2,0(sp)
 2001dd0:	300f883a 	mov	r7,r6
 2001dd4:	280d883a 	mov	r6,r5
 2001dd8:	200b883a 	mov	r5,r4
 2001ddc:	1809883a 	mov	r4,r3
 2001de0:	2003d680 	call	2003d68 <collide_calc>
						collision[4], 4);
				collide_calc(ball[0], ball[6], velocity[0], velocity[6],
 2001de4:	e0bfe504 	addi	r2,fp,-108
 2001de8:	11800c04 	addi	r6,r2,48
 2001dec:	e17fe504 	addi	r5,fp,-108
 2001df0:	e0bf4c04 	addi	r2,fp,-720
 2001df4:	11000c04 	addi	r4,r2,48
 2001df8:	e0ff4c04 	addi	r3,fp,-720
 2001dfc:	00800144 	movi	r2,5
 2001e00:	d8800115 	stw	r2,4(sp)
 2001e04:	e0bf6004 	addi	r2,fp,-640
 2001e08:	10800a04 	addi	r2,r2,40
 2001e0c:	d8800015 	stw	r2,0(sp)
 2001e10:	300f883a 	mov	r7,r6
 2001e14:	280d883a 	mov	r6,r5
 2001e18:	200b883a 	mov	r5,r4
 2001e1c:	1809883a 	mov	r4,r3
 2001e20:	2003d680 	call	2003d68 <collide_calc>
						collision[5], 5);
				collide_calc(ball[0], ball[7], velocity[0], velocity[7],
 2001e24:	e0bfe504 	addi	r2,fp,-108
 2001e28:	11800e04 	addi	r6,r2,56
 2001e2c:	e17fe504 	addi	r5,fp,-108
 2001e30:	e0bf4c04 	addi	r2,fp,-720
 2001e34:	11000e04 	addi	r4,r2,56
 2001e38:	e0ff4c04 	addi	r3,fp,-720
 2001e3c:	00800184 	movi	r2,6
 2001e40:	d8800115 	stw	r2,4(sp)
 2001e44:	e0bf6004 	addi	r2,fp,-640
 2001e48:	10800c04 	addi	r2,r2,48
 2001e4c:	d8800015 	stw	r2,0(sp)
 2001e50:	300f883a 	mov	r7,r6
 2001e54:	280d883a 	mov	r6,r5
 2001e58:	200b883a 	mov	r5,r4
 2001e5c:	1809883a 	mov	r4,r3
 2001e60:	2003d680 	call	2003d68 <collide_calc>
						collision[6], 6);
				collide_calc(ball[0], ball[8], velocity[0], velocity[8],
 2001e64:	e0bfe504 	addi	r2,fp,-108
 2001e68:	11801004 	addi	r6,r2,64
 2001e6c:	e17fe504 	addi	r5,fp,-108
 2001e70:	e0bf4c04 	addi	r2,fp,-720
 2001e74:	11001004 	addi	r4,r2,64
 2001e78:	e0ff4c04 	addi	r3,fp,-720
 2001e7c:	008001c4 	movi	r2,7
 2001e80:	d8800115 	stw	r2,4(sp)
 2001e84:	e0bf6004 	addi	r2,fp,-640
 2001e88:	10800e04 	addi	r2,r2,56
 2001e8c:	d8800015 	stw	r2,0(sp)
 2001e90:	300f883a 	mov	r7,r6
 2001e94:	280d883a 	mov	r6,r5
 2001e98:	200b883a 	mov	r5,r4
 2001e9c:	1809883a 	mov	r4,r3
 2001ea0:	2003d680 	call	2003d68 <collide_calc>
						collision[7], 7);
				collide_calc(ball[0], ball[9], velocity[0], velocity[9],
 2001ea4:	e0bfe504 	addi	r2,fp,-108
 2001ea8:	11801204 	addi	r6,r2,72
 2001eac:	e17fe504 	addi	r5,fp,-108
 2001eb0:	e0bf4c04 	addi	r2,fp,-720
 2001eb4:	11001204 	addi	r4,r2,72
 2001eb8:	e0ff4c04 	addi	r3,fp,-720
 2001ebc:	00800204 	movi	r2,8
 2001ec0:	d8800115 	stw	r2,4(sp)
 2001ec4:	e0bf6004 	addi	r2,fp,-640
 2001ec8:	10801004 	addi	r2,r2,64
 2001ecc:	d8800015 	stw	r2,0(sp)
 2001ed0:	300f883a 	mov	r7,r6
 2001ed4:	280d883a 	mov	r6,r5
 2001ed8:	200b883a 	mov	r5,r4
 2001edc:	1809883a 	mov	r4,r3
 2001ee0:	2003d680 	call	2003d68 <collide_calc>
						collision[8], 8);

				collide_calc(ball[1], ball[2], velocity[1], velocity[2],
 2001ee4:	e0bfe504 	addi	r2,fp,-108
 2001ee8:	11800404 	addi	r6,r2,16
 2001eec:	e0bfe504 	addi	r2,fp,-108
 2001ef0:	11400204 	addi	r5,r2,8
 2001ef4:	e0bf4c04 	addi	r2,fp,-720
 2001ef8:	11000404 	addi	r4,r2,16
 2001efc:	e0bf4c04 	addi	r2,fp,-720
 2001f00:	10c00204 	addi	r3,r2,8
 2001f04:	00800244 	movi	r2,9
 2001f08:	d8800115 	stw	r2,4(sp)
 2001f0c:	e0bf6004 	addi	r2,fp,-640
 2001f10:	10801204 	addi	r2,r2,72
 2001f14:	d8800015 	stw	r2,0(sp)
 2001f18:	300f883a 	mov	r7,r6
 2001f1c:	280d883a 	mov	r6,r5
 2001f20:	200b883a 	mov	r5,r4
 2001f24:	1809883a 	mov	r4,r3
 2001f28:	2003d680 	call	2003d68 <collide_calc>
						collision[9], 9);
				collide_calc(ball[1], ball[3], velocity[1], velocity[3],
 2001f2c:	e0bfe504 	addi	r2,fp,-108
 2001f30:	11800604 	addi	r6,r2,24
 2001f34:	e0bfe504 	addi	r2,fp,-108
 2001f38:	11400204 	addi	r5,r2,8
 2001f3c:	e0bf4c04 	addi	r2,fp,-720
 2001f40:	11000604 	addi	r4,r2,24
 2001f44:	e0bf4c04 	addi	r2,fp,-720
 2001f48:	10c00204 	addi	r3,r2,8
 2001f4c:	00800284 	movi	r2,10
 2001f50:	d8800115 	stw	r2,4(sp)
 2001f54:	e0bf6004 	addi	r2,fp,-640
 2001f58:	10801404 	addi	r2,r2,80
 2001f5c:	d8800015 	stw	r2,0(sp)
 2001f60:	300f883a 	mov	r7,r6
 2001f64:	280d883a 	mov	r6,r5
 2001f68:	200b883a 	mov	r5,r4
 2001f6c:	1809883a 	mov	r4,r3
 2001f70:	2003d680 	call	2003d68 <collide_calc>
						collision[10], 10);
				collide_calc(ball[1], ball[4], velocity[1], velocity[4],
 2001f74:	e0bfe504 	addi	r2,fp,-108
 2001f78:	11800804 	addi	r6,r2,32
 2001f7c:	e0bfe504 	addi	r2,fp,-108
 2001f80:	11400204 	addi	r5,r2,8
 2001f84:	e0bf4c04 	addi	r2,fp,-720
 2001f88:	11000804 	addi	r4,r2,32
 2001f8c:	e0bf4c04 	addi	r2,fp,-720
 2001f90:	10c00204 	addi	r3,r2,8
 2001f94:	008002c4 	movi	r2,11
 2001f98:	d8800115 	stw	r2,4(sp)
 2001f9c:	e0bf6004 	addi	r2,fp,-640
 2001fa0:	10801604 	addi	r2,r2,88
 2001fa4:	d8800015 	stw	r2,0(sp)
 2001fa8:	300f883a 	mov	r7,r6
 2001fac:	280d883a 	mov	r6,r5
 2001fb0:	200b883a 	mov	r5,r4
 2001fb4:	1809883a 	mov	r4,r3
 2001fb8:	2003d680 	call	2003d68 <collide_calc>
						collision[11], 11);
				collide_calc(ball[1], ball[5], velocity[1], velocity[5],
 2001fbc:	e0bfe504 	addi	r2,fp,-108
 2001fc0:	11800a04 	addi	r6,r2,40
 2001fc4:	e0bfe504 	addi	r2,fp,-108
 2001fc8:	11400204 	addi	r5,r2,8
 2001fcc:	e0bf4c04 	addi	r2,fp,-720
 2001fd0:	11000a04 	addi	r4,r2,40
 2001fd4:	e0bf4c04 	addi	r2,fp,-720
 2001fd8:	10c00204 	addi	r3,r2,8
 2001fdc:	00800304 	movi	r2,12
 2001fe0:	d8800115 	stw	r2,4(sp)
 2001fe4:	e0bf6004 	addi	r2,fp,-640
 2001fe8:	10801804 	addi	r2,r2,96
 2001fec:	d8800015 	stw	r2,0(sp)
 2001ff0:	300f883a 	mov	r7,r6
 2001ff4:	280d883a 	mov	r6,r5
 2001ff8:	200b883a 	mov	r5,r4
 2001ffc:	1809883a 	mov	r4,r3
 2002000:	2003d680 	call	2003d68 <collide_calc>
						collision[12], 12);
				collide_calc(ball[1], ball[6], velocity[1], velocity[6],
 2002004:	e0bfe504 	addi	r2,fp,-108
 2002008:	11800c04 	addi	r6,r2,48
 200200c:	e0bfe504 	addi	r2,fp,-108
 2002010:	11400204 	addi	r5,r2,8
 2002014:	e0bf4c04 	addi	r2,fp,-720
 2002018:	11000c04 	addi	r4,r2,48
 200201c:	e0bf4c04 	addi	r2,fp,-720
 2002020:	10c00204 	addi	r3,r2,8
 2002024:	00800344 	movi	r2,13
 2002028:	d8800115 	stw	r2,4(sp)
 200202c:	e0bf6004 	addi	r2,fp,-640
 2002030:	10801a04 	addi	r2,r2,104
 2002034:	d8800015 	stw	r2,0(sp)
 2002038:	300f883a 	mov	r7,r6
 200203c:	280d883a 	mov	r6,r5
 2002040:	200b883a 	mov	r5,r4
 2002044:	1809883a 	mov	r4,r3
 2002048:	2003d680 	call	2003d68 <collide_calc>
						collision[13], 13);
				collide_calc(ball[1], ball[7], velocity[1], velocity[7],
 200204c:	e0bfe504 	addi	r2,fp,-108
 2002050:	11800e04 	addi	r6,r2,56
 2002054:	e0bfe504 	addi	r2,fp,-108
 2002058:	11400204 	addi	r5,r2,8
 200205c:	e0bf4c04 	addi	r2,fp,-720
 2002060:	11000e04 	addi	r4,r2,56
 2002064:	e0bf4c04 	addi	r2,fp,-720
 2002068:	10c00204 	addi	r3,r2,8
 200206c:	00800384 	movi	r2,14
 2002070:	d8800115 	stw	r2,4(sp)
 2002074:	e0bf6004 	addi	r2,fp,-640
 2002078:	10801c04 	addi	r2,r2,112
 200207c:	d8800015 	stw	r2,0(sp)
 2002080:	300f883a 	mov	r7,r6
 2002084:	280d883a 	mov	r6,r5
 2002088:	200b883a 	mov	r5,r4
 200208c:	1809883a 	mov	r4,r3
 2002090:	2003d680 	call	2003d68 <collide_calc>
						collision[14], 14);
				collide_calc(ball[1], ball[8], velocity[1], velocity[8],
 2002094:	e0bfe504 	addi	r2,fp,-108
 2002098:	11801004 	addi	r6,r2,64
 200209c:	e0bfe504 	addi	r2,fp,-108
 20020a0:	11400204 	addi	r5,r2,8
 20020a4:	e0bf4c04 	addi	r2,fp,-720
 20020a8:	11001004 	addi	r4,r2,64
 20020ac:	e0bf4c04 	addi	r2,fp,-720
 20020b0:	10c00204 	addi	r3,r2,8
 20020b4:	008003c4 	movi	r2,15
 20020b8:	d8800115 	stw	r2,4(sp)
 20020bc:	e0bf6004 	addi	r2,fp,-640
 20020c0:	10801e04 	addi	r2,r2,120
 20020c4:	d8800015 	stw	r2,0(sp)
 20020c8:	300f883a 	mov	r7,r6
 20020cc:	280d883a 	mov	r6,r5
 20020d0:	200b883a 	mov	r5,r4
 20020d4:	1809883a 	mov	r4,r3
 20020d8:	2003d680 	call	2003d68 <collide_calc>
						collision[15], 15);
				collide_calc(ball[1], ball[9], velocity[1], velocity[9],
 20020dc:	e0bfe504 	addi	r2,fp,-108
 20020e0:	11801204 	addi	r6,r2,72
 20020e4:	e0bfe504 	addi	r2,fp,-108
 20020e8:	11400204 	addi	r5,r2,8
 20020ec:	e0bf4c04 	addi	r2,fp,-720
 20020f0:	11001204 	addi	r4,r2,72
 20020f4:	e0bf4c04 	addi	r2,fp,-720
 20020f8:	10c00204 	addi	r3,r2,8
 20020fc:	00800404 	movi	r2,16
 2002100:	d8800115 	stw	r2,4(sp)
 2002104:	e0bf6004 	addi	r2,fp,-640
 2002108:	10802004 	addi	r2,r2,128
 200210c:	d8800015 	stw	r2,0(sp)
 2002110:	300f883a 	mov	r7,r6
 2002114:	280d883a 	mov	r6,r5
 2002118:	200b883a 	mov	r5,r4
 200211c:	1809883a 	mov	r4,r3
 2002120:	2003d680 	call	2003d68 <collide_calc>
						collision[16], 16);

				collide_calc(ball[2], ball[3], velocity[2], velocity[3],
 2002124:	e0bfe504 	addi	r2,fp,-108
 2002128:	11800604 	addi	r6,r2,24
 200212c:	e0bfe504 	addi	r2,fp,-108
 2002130:	11400404 	addi	r5,r2,16
 2002134:	e0bf4c04 	addi	r2,fp,-720
 2002138:	11000604 	addi	r4,r2,24
 200213c:	e0bf4c04 	addi	r2,fp,-720
 2002140:	10c00404 	addi	r3,r2,16
 2002144:	00800444 	movi	r2,17
 2002148:	d8800115 	stw	r2,4(sp)
 200214c:	e0bf6004 	addi	r2,fp,-640
 2002150:	10802204 	addi	r2,r2,136
 2002154:	d8800015 	stw	r2,0(sp)
 2002158:	300f883a 	mov	r7,r6
 200215c:	280d883a 	mov	r6,r5
 2002160:	200b883a 	mov	r5,r4
 2002164:	1809883a 	mov	r4,r3
 2002168:	2003d680 	call	2003d68 <collide_calc>
						collision[17], 17);
				collide_calc(ball[2], ball[4], velocity[2], velocity[4],
 200216c:	e0bfe504 	addi	r2,fp,-108
 2002170:	11800804 	addi	r6,r2,32
 2002174:	e0bfe504 	addi	r2,fp,-108
 2002178:	11400404 	addi	r5,r2,16
 200217c:	e0bf4c04 	addi	r2,fp,-720
 2002180:	11000804 	addi	r4,r2,32
 2002184:	e0bf4c04 	addi	r2,fp,-720
 2002188:	10c00404 	addi	r3,r2,16
 200218c:	00800484 	movi	r2,18
 2002190:	d8800115 	stw	r2,4(sp)
 2002194:	e0bf6004 	addi	r2,fp,-640
 2002198:	10802404 	addi	r2,r2,144
 200219c:	d8800015 	stw	r2,0(sp)
 20021a0:	300f883a 	mov	r7,r6
 20021a4:	280d883a 	mov	r6,r5
 20021a8:	200b883a 	mov	r5,r4
 20021ac:	1809883a 	mov	r4,r3
 20021b0:	2003d680 	call	2003d68 <collide_calc>
						collision[18], 18);
				collide_calc(ball[2], ball[5], velocity[2], velocity[5],
 20021b4:	e0bfe504 	addi	r2,fp,-108
 20021b8:	11800a04 	addi	r6,r2,40
 20021bc:	e0bfe504 	addi	r2,fp,-108
 20021c0:	11400404 	addi	r5,r2,16
 20021c4:	e0bf4c04 	addi	r2,fp,-720
 20021c8:	11000a04 	addi	r4,r2,40
 20021cc:	e0bf4c04 	addi	r2,fp,-720
 20021d0:	10c00404 	addi	r3,r2,16
 20021d4:	008004c4 	movi	r2,19
 20021d8:	d8800115 	stw	r2,4(sp)
 20021dc:	e0bf6004 	addi	r2,fp,-640
 20021e0:	10802604 	addi	r2,r2,152
 20021e4:	d8800015 	stw	r2,0(sp)
 20021e8:	300f883a 	mov	r7,r6
 20021ec:	280d883a 	mov	r6,r5
 20021f0:	200b883a 	mov	r5,r4
 20021f4:	1809883a 	mov	r4,r3
 20021f8:	2003d680 	call	2003d68 <collide_calc>
						collision[19], 19);
				collide_calc(ball[2], ball[6], velocity[2], velocity[6],
 20021fc:	e0bfe504 	addi	r2,fp,-108
 2002200:	11800c04 	addi	r6,r2,48
 2002204:	e0bfe504 	addi	r2,fp,-108
 2002208:	11400404 	addi	r5,r2,16
 200220c:	e0bf4c04 	addi	r2,fp,-720
 2002210:	11000c04 	addi	r4,r2,48
 2002214:	e0bf4c04 	addi	r2,fp,-720
 2002218:	10c00404 	addi	r3,r2,16
 200221c:	00800504 	movi	r2,20
 2002220:	d8800115 	stw	r2,4(sp)
 2002224:	e0bf6004 	addi	r2,fp,-640
 2002228:	10802804 	addi	r2,r2,160
 200222c:	d8800015 	stw	r2,0(sp)
 2002230:	300f883a 	mov	r7,r6
 2002234:	280d883a 	mov	r6,r5
 2002238:	200b883a 	mov	r5,r4
 200223c:	1809883a 	mov	r4,r3
 2002240:	2003d680 	call	2003d68 <collide_calc>
						collision[20], 20);
				collide_calc(ball[2], ball[7], velocity[2], velocity[7],
 2002244:	e0bfe504 	addi	r2,fp,-108
 2002248:	11800e04 	addi	r6,r2,56
 200224c:	e0bfe504 	addi	r2,fp,-108
 2002250:	11400404 	addi	r5,r2,16
 2002254:	e0bf4c04 	addi	r2,fp,-720
 2002258:	11000e04 	addi	r4,r2,56
 200225c:	e0bf4c04 	addi	r2,fp,-720
 2002260:	10c00404 	addi	r3,r2,16
 2002264:	00800544 	movi	r2,21
 2002268:	d8800115 	stw	r2,4(sp)
 200226c:	e0bf6004 	addi	r2,fp,-640
 2002270:	10802a04 	addi	r2,r2,168
 2002274:	d8800015 	stw	r2,0(sp)
 2002278:	300f883a 	mov	r7,r6
 200227c:	280d883a 	mov	r6,r5
 2002280:	200b883a 	mov	r5,r4
 2002284:	1809883a 	mov	r4,r3
 2002288:	2003d680 	call	2003d68 <collide_calc>
						collision[21], 21);
				collide_calc(ball[2], ball[8], velocity[2], velocity[8],
 200228c:	e0bfe504 	addi	r2,fp,-108
 2002290:	11801004 	addi	r6,r2,64
 2002294:	e0bfe504 	addi	r2,fp,-108
 2002298:	11400404 	addi	r5,r2,16
 200229c:	e0bf4c04 	addi	r2,fp,-720
 20022a0:	11001004 	addi	r4,r2,64
 20022a4:	e0bf4c04 	addi	r2,fp,-720
 20022a8:	10c00404 	addi	r3,r2,16
 20022ac:	00800584 	movi	r2,22
 20022b0:	d8800115 	stw	r2,4(sp)
 20022b4:	e0bf6004 	addi	r2,fp,-640
 20022b8:	10802c04 	addi	r2,r2,176
 20022bc:	d8800015 	stw	r2,0(sp)
 20022c0:	300f883a 	mov	r7,r6
 20022c4:	280d883a 	mov	r6,r5
 20022c8:	200b883a 	mov	r5,r4
 20022cc:	1809883a 	mov	r4,r3
 20022d0:	2003d680 	call	2003d68 <collide_calc>
						collision[22], 22);
				collide_calc(ball[2], ball[9], velocity[2], velocity[9],
 20022d4:	e0bfe504 	addi	r2,fp,-108
 20022d8:	11801204 	addi	r6,r2,72
 20022dc:	e0bfe504 	addi	r2,fp,-108
 20022e0:	11400404 	addi	r5,r2,16
 20022e4:	e0bf4c04 	addi	r2,fp,-720
 20022e8:	11001204 	addi	r4,r2,72
 20022ec:	e0bf4c04 	addi	r2,fp,-720
 20022f0:	10c00404 	addi	r3,r2,16
 20022f4:	008005c4 	movi	r2,23
 20022f8:	d8800115 	stw	r2,4(sp)
 20022fc:	e0bf6004 	addi	r2,fp,-640
 2002300:	10802e04 	addi	r2,r2,184
 2002304:	d8800015 	stw	r2,0(sp)
 2002308:	300f883a 	mov	r7,r6
 200230c:	280d883a 	mov	r6,r5
 2002310:	200b883a 	mov	r5,r4
 2002314:	1809883a 	mov	r4,r3
 2002318:	2003d680 	call	2003d68 <collide_calc>
						collision[23], 23);

				collide_calc(ball[3], ball[4], velocity[3], velocity[4],
 200231c:	e0bfe504 	addi	r2,fp,-108
 2002320:	11800804 	addi	r6,r2,32
 2002324:	e0bfe504 	addi	r2,fp,-108
 2002328:	11400604 	addi	r5,r2,24
 200232c:	e0bf4c04 	addi	r2,fp,-720
 2002330:	11000804 	addi	r4,r2,32
 2002334:	e0bf4c04 	addi	r2,fp,-720
 2002338:	10c00604 	addi	r3,r2,24
 200233c:	00800604 	movi	r2,24
 2002340:	d8800115 	stw	r2,4(sp)
 2002344:	e0bf6004 	addi	r2,fp,-640
 2002348:	10803004 	addi	r2,r2,192
 200234c:	d8800015 	stw	r2,0(sp)
 2002350:	300f883a 	mov	r7,r6
 2002354:	280d883a 	mov	r6,r5
 2002358:	200b883a 	mov	r5,r4
 200235c:	1809883a 	mov	r4,r3
 2002360:	2003d680 	call	2003d68 <collide_calc>
						collision[24], 24);
				collide_calc(ball[3], ball[5], velocity[3], velocity[5],
 2002364:	e0bfe504 	addi	r2,fp,-108
 2002368:	11800a04 	addi	r6,r2,40
 200236c:	e0bfe504 	addi	r2,fp,-108
 2002370:	11400604 	addi	r5,r2,24
 2002374:	e0bf4c04 	addi	r2,fp,-720
 2002378:	11000a04 	addi	r4,r2,40
 200237c:	e0bf4c04 	addi	r2,fp,-720
 2002380:	10c00604 	addi	r3,r2,24
 2002384:	00800644 	movi	r2,25
 2002388:	d8800115 	stw	r2,4(sp)
 200238c:	e0bf6004 	addi	r2,fp,-640
 2002390:	10803204 	addi	r2,r2,200
 2002394:	d8800015 	stw	r2,0(sp)
 2002398:	300f883a 	mov	r7,r6
 200239c:	280d883a 	mov	r6,r5
 20023a0:	200b883a 	mov	r5,r4
 20023a4:	1809883a 	mov	r4,r3
 20023a8:	2003d680 	call	2003d68 <collide_calc>
						collision[25], 25);
				collide_calc(ball[3], ball[6], velocity[3], velocity[6],
 20023ac:	e0bfe504 	addi	r2,fp,-108
 20023b0:	11800c04 	addi	r6,r2,48
 20023b4:	e0bfe504 	addi	r2,fp,-108
 20023b8:	11400604 	addi	r5,r2,24
 20023bc:	e0bf4c04 	addi	r2,fp,-720
 20023c0:	11000c04 	addi	r4,r2,48
 20023c4:	e0bf4c04 	addi	r2,fp,-720
 20023c8:	10c00604 	addi	r3,r2,24
 20023cc:	00800684 	movi	r2,26
 20023d0:	d8800115 	stw	r2,4(sp)
 20023d4:	e0bf6004 	addi	r2,fp,-640
 20023d8:	10803404 	addi	r2,r2,208
 20023dc:	d8800015 	stw	r2,0(sp)
 20023e0:	300f883a 	mov	r7,r6
 20023e4:	280d883a 	mov	r6,r5
 20023e8:	200b883a 	mov	r5,r4
 20023ec:	1809883a 	mov	r4,r3
 20023f0:	2003d680 	call	2003d68 <collide_calc>
						collision[26], 26);
				collide_calc(ball[3], ball[7], velocity[3], velocity[7],
 20023f4:	e0bfe504 	addi	r2,fp,-108
 20023f8:	11800e04 	addi	r6,r2,56
 20023fc:	e0bfe504 	addi	r2,fp,-108
 2002400:	11400604 	addi	r5,r2,24
 2002404:	e0bf4c04 	addi	r2,fp,-720
 2002408:	11000e04 	addi	r4,r2,56
 200240c:	e0bf4c04 	addi	r2,fp,-720
 2002410:	10c00604 	addi	r3,r2,24
 2002414:	008006c4 	movi	r2,27
 2002418:	d8800115 	stw	r2,4(sp)
 200241c:	e0bf6004 	addi	r2,fp,-640
 2002420:	10803604 	addi	r2,r2,216
 2002424:	d8800015 	stw	r2,0(sp)
 2002428:	300f883a 	mov	r7,r6
 200242c:	280d883a 	mov	r6,r5
 2002430:	200b883a 	mov	r5,r4
 2002434:	1809883a 	mov	r4,r3
 2002438:	2003d680 	call	2003d68 <collide_calc>
						collision[27], 27);
				collide_calc(ball[3], ball[8], velocity[3], velocity[8],
 200243c:	e0bfe504 	addi	r2,fp,-108
 2002440:	11801004 	addi	r6,r2,64
 2002444:	e0bfe504 	addi	r2,fp,-108
 2002448:	11400604 	addi	r5,r2,24
 200244c:	e0bf4c04 	addi	r2,fp,-720
 2002450:	11001004 	addi	r4,r2,64
 2002454:	e0bf4c04 	addi	r2,fp,-720
 2002458:	10c00604 	addi	r3,r2,24
 200245c:	00800704 	movi	r2,28
 2002460:	d8800115 	stw	r2,4(sp)
 2002464:	e0bf6004 	addi	r2,fp,-640
 2002468:	10803804 	addi	r2,r2,224
 200246c:	d8800015 	stw	r2,0(sp)
 2002470:	300f883a 	mov	r7,r6
 2002474:	280d883a 	mov	r6,r5
 2002478:	200b883a 	mov	r5,r4
 200247c:	1809883a 	mov	r4,r3
 2002480:	2003d680 	call	2003d68 <collide_calc>
						collision[28], 28);
				collide_calc(ball[3], ball[9], velocity[3], velocity[9],
 2002484:	e0bfe504 	addi	r2,fp,-108
 2002488:	11801204 	addi	r6,r2,72
 200248c:	e0bfe504 	addi	r2,fp,-108
 2002490:	11400604 	addi	r5,r2,24
 2002494:	e0bf4c04 	addi	r2,fp,-720
 2002498:	11001204 	addi	r4,r2,72
 200249c:	e0bf4c04 	addi	r2,fp,-720
 20024a0:	10c00604 	addi	r3,r2,24
 20024a4:	00800744 	movi	r2,29
 20024a8:	d8800115 	stw	r2,4(sp)
 20024ac:	e0bf6004 	addi	r2,fp,-640
 20024b0:	10803a04 	addi	r2,r2,232
 20024b4:	d8800015 	stw	r2,0(sp)
 20024b8:	300f883a 	mov	r7,r6
 20024bc:	280d883a 	mov	r6,r5
 20024c0:	200b883a 	mov	r5,r4
 20024c4:	1809883a 	mov	r4,r3
 20024c8:	2003d680 	call	2003d68 <collide_calc>
						collision[29], 29);

				collide_calc(ball[4], ball[5], velocity[4], velocity[5],
 20024cc:	e0bfe504 	addi	r2,fp,-108
 20024d0:	11800a04 	addi	r6,r2,40
 20024d4:	e0bfe504 	addi	r2,fp,-108
 20024d8:	11400804 	addi	r5,r2,32
 20024dc:	e0bf4c04 	addi	r2,fp,-720
 20024e0:	11000a04 	addi	r4,r2,40
 20024e4:	e0bf4c04 	addi	r2,fp,-720
 20024e8:	10c00804 	addi	r3,r2,32
 20024ec:	00800784 	movi	r2,30
 20024f0:	d8800115 	stw	r2,4(sp)
 20024f4:	e0bf6004 	addi	r2,fp,-640
 20024f8:	10803c04 	addi	r2,r2,240
 20024fc:	d8800015 	stw	r2,0(sp)
 2002500:	300f883a 	mov	r7,r6
 2002504:	280d883a 	mov	r6,r5
 2002508:	200b883a 	mov	r5,r4
 200250c:	1809883a 	mov	r4,r3
 2002510:	2003d680 	call	2003d68 <collide_calc>
						collision[30], 30);
				collide_calc(ball[4], ball[6], velocity[4], velocity[6],
 2002514:	e0bfe504 	addi	r2,fp,-108
 2002518:	11800c04 	addi	r6,r2,48
 200251c:	e0bfe504 	addi	r2,fp,-108
 2002520:	11400804 	addi	r5,r2,32
 2002524:	e0bf4c04 	addi	r2,fp,-720
 2002528:	11000c04 	addi	r4,r2,48
 200252c:	e0bf4c04 	addi	r2,fp,-720
 2002530:	10c00804 	addi	r3,r2,32
 2002534:	008007c4 	movi	r2,31
 2002538:	d8800115 	stw	r2,4(sp)
 200253c:	e0bf6004 	addi	r2,fp,-640
 2002540:	10803e04 	addi	r2,r2,248
 2002544:	d8800015 	stw	r2,0(sp)
 2002548:	300f883a 	mov	r7,r6
 200254c:	280d883a 	mov	r6,r5
 2002550:	200b883a 	mov	r5,r4
 2002554:	1809883a 	mov	r4,r3
 2002558:	2003d680 	call	2003d68 <collide_calc>
						collision[31], 31);
				collide_calc(ball[4], ball[7], velocity[4], velocity[7],
 200255c:	e0bfe504 	addi	r2,fp,-108
 2002560:	11800e04 	addi	r6,r2,56
 2002564:	e0bfe504 	addi	r2,fp,-108
 2002568:	11400804 	addi	r5,r2,32
 200256c:	e0bf4c04 	addi	r2,fp,-720
 2002570:	11000e04 	addi	r4,r2,56
 2002574:	e0bf4c04 	addi	r2,fp,-720
 2002578:	10c00804 	addi	r3,r2,32
 200257c:	00800804 	movi	r2,32
 2002580:	d8800115 	stw	r2,4(sp)
 2002584:	e0bf6004 	addi	r2,fp,-640
 2002588:	10804004 	addi	r2,r2,256
 200258c:	d8800015 	stw	r2,0(sp)
 2002590:	300f883a 	mov	r7,r6
 2002594:	280d883a 	mov	r6,r5
 2002598:	200b883a 	mov	r5,r4
 200259c:	1809883a 	mov	r4,r3
 20025a0:	2003d680 	call	2003d68 <collide_calc>
						collision[32], 32);
				collide_calc(ball[4], ball[8], velocity[4], velocity[8],
 20025a4:	e0bfe504 	addi	r2,fp,-108
 20025a8:	11801004 	addi	r6,r2,64
 20025ac:	e0bfe504 	addi	r2,fp,-108
 20025b0:	11400804 	addi	r5,r2,32
 20025b4:	e0bf4c04 	addi	r2,fp,-720
 20025b8:	11001004 	addi	r4,r2,64
 20025bc:	e0bf4c04 	addi	r2,fp,-720
 20025c0:	10c00804 	addi	r3,r2,32
 20025c4:	00800844 	movi	r2,33
 20025c8:	d8800115 	stw	r2,4(sp)
 20025cc:	e0bf6004 	addi	r2,fp,-640
 20025d0:	10804204 	addi	r2,r2,264
 20025d4:	d8800015 	stw	r2,0(sp)
 20025d8:	300f883a 	mov	r7,r6
 20025dc:	280d883a 	mov	r6,r5
 20025e0:	200b883a 	mov	r5,r4
 20025e4:	1809883a 	mov	r4,r3
 20025e8:	2003d680 	call	2003d68 <collide_calc>
						collision[33], 33);
				collide_calc(ball[4], ball[9], velocity[4], velocity[9],
 20025ec:	e0bfe504 	addi	r2,fp,-108
 20025f0:	11801204 	addi	r6,r2,72
 20025f4:	e0bfe504 	addi	r2,fp,-108
 20025f8:	11400804 	addi	r5,r2,32
 20025fc:	e0bf4c04 	addi	r2,fp,-720
 2002600:	11001204 	addi	r4,r2,72
 2002604:	e0bf4c04 	addi	r2,fp,-720
 2002608:	10c00804 	addi	r3,r2,32
 200260c:	00800884 	movi	r2,34
 2002610:	d8800115 	stw	r2,4(sp)
 2002614:	e0bf6004 	addi	r2,fp,-640
 2002618:	10804404 	addi	r2,r2,272
 200261c:	d8800015 	stw	r2,0(sp)
 2002620:	300f883a 	mov	r7,r6
 2002624:	280d883a 	mov	r6,r5
 2002628:	200b883a 	mov	r5,r4
 200262c:	1809883a 	mov	r4,r3
 2002630:	2003d680 	call	2003d68 <collide_calc>
						collision[34], 34);

				collide_calc(ball[5], ball[6], velocity[5], velocity[6],
 2002634:	e0bfe504 	addi	r2,fp,-108
 2002638:	11800c04 	addi	r6,r2,48
 200263c:	e0bfe504 	addi	r2,fp,-108
 2002640:	11400a04 	addi	r5,r2,40
 2002644:	e0bf4c04 	addi	r2,fp,-720
 2002648:	11000c04 	addi	r4,r2,48
 200264c:	e0bf4c04 	addi	r2,fp,-720
 2002650:	10c00a04 	addi	r3,r2,40
 2002654:	008008c4 	movi	r2,35
 2002658:	d8800115 	stw	r2,4(sp)
 200265c:	e0bf6004 	addi	r2,fp,-640
 2002660:	10804604 	addi	r2,r2,280
 2002664:	d8800015 	stw	r2,0(sp)
 2002668:	300f883a 	mov	r7,r6
 200266c:	280d883a 	mov	r6,r5
 2002670:	200b883a 	mov	r5,r4
 2002674:	1809883a 	mov	r4,r3
 2002678:	2003d680 	call	2003d68 <collide_calc>
						collision[35], 35);
				collide_calc(ball[5], ball[7], velocity[5], velocity[7],
 200267c:	e0bfe504 	addi	r2,fp,-108
 2002680:	11800e04 	addi	r6,r2,56
 2002684:	e0bfe504 	addi	r2,fp,-108
 2002688:	11400a04 	addi	r5,r2,40
 200268c:	e0bf4c04 	addi	r2,fp,-720
 2002690:	11000e04 	addi	r4,r2,56
 2002694:	e0bf4c04 	addi	r2,fp,-720
 2002698:	10c00a04 	addi	r3,r2,40
 200269c:	00800904 	movi	r2,36
 20026a0:	d8800115 	stw	r2,4(sp)
 20026a4:	e0bf6004 	addi	r2,fp,-640
 20026a8:	10804804 	addi	r2,r2,288
 20026ac:	d8800015 	stw	r2,0(sp)
 20026b0:	300f883a 	mov	r7,r6
 20026b4:	280d883a 	mov	r6,r5
 20026b8:	200b883a 	mov	r5,r4
 20026bc:	1809883a 	mov	r4,r3
 20026c0:	2003d680 	call	2003d68 <collide_calc>
						collision[36], 36);
				collide_calc(ball[5], ball[8], velocity[5], velocity[8],
 20026c4:	e0bfe504 	addi	r2,fp,-108
 20026c8:	11801004 	addi	r6,r2,64
 20026cc:	e0bfe504 	addi	r2,fp,-108
 20026d0:	11400a04 	addi	r5,r2,40
 20026d4:	e0bf4c04 	addi	r2,fp,-720
 20026d8:	11001004 	addi	r4,r2,64
 20026dc:	e0bf4c04 	addi	r2,fp,-720
 20026e0:	10c00a04 	addi	r3,r2,40
 20026e4:	00800944 	movi	r2,37
 20026e8:	d8800115 	stw	r2,4(sp)
 20026ec:	e0bf6004 	addi	r2,fp,-640
 20026f0:	10804a04 	addi	r2,r2,296
 20026f4:	d8800015 	stw	r2,0(sp)
 20026f8:	300f883a 	mov	r7,r6
 20026fc:	280d883a 	mov	r6,r5
 2002700:	200b883a 	mov	r5,r4
 2002704:	1809883a 	mov	r4,r3
 2002708:	2003d680 	call	2003d68 <collide_calc>
						collision[37], 37);
				collide_calc(ball[5], ball[9], velocity[5], velocity[9],
 200270c:	e0bfe504 	addi	r2,fp,-108
 2002710:	11801204 	addi	r6,r2,72
 2002714:	e0bfe504 	addi	r2,fp,-108
 2002718:	11400a04 	addi	r5,r2,40
 200271c:	e0bf4c04 	addi	r2,fp,-720
 2002720:	11001204 	addi	r4,r2,72
 2002724:	e0bf4c04 	addi	r2,fp,-720
 2002728:	10c00a04 	addi	r3,r2,40
 200272c:	00800984 	movi	r2,38
 2002730:	d8800115 	stw	r2,4(sp)
 2002734:	e0bf6004 	addi	r2,fp,-640
 2002738:	10804c04 	addi	r2,r2,304
 200273c:	d8800015 	stw	r2,0(sp)
 2002740:	300f883a 	mov	r7,r6
 2002744:	280d883a 	mov	r6,r5
 2002748:	200b883a 	mov	r5,r4
 200274c:	1809883a 	mov	r4,r3
 2002750:	2003d680 	call	2003d68 <collide_calc>
						collision[38], 38);

				collide_calc(ball[6], ball[7], velocity[6], velocity[7],
 2002754:	e0bfe504 	addi	r2,fp,-108
 2002758:	11800e04 	addi	r6,r2,56
 200275c:	e0bfe504 	addi	r2,fp,-108
 2002760:	11400c04 	addi	r5,r2,48
 2002764:	e0bf4c04 	addi	r2,fp,-720
 2002768:	11000e04 	addi	r4,r2,56
 200276c:	e0bf4c04 	addi	r2,fp,-720
 2002770:	10c00c04 	addi	r3,r2,48
 2002774:	008009c4 	movi	r2,39
 2002778:	d8800115 	stw	r2,4(sp)
 200277c:	e0bf6004 	addi	r2,fp,-640
 2002780:	10804e04 	addi	r2,r2,312
 2002784:	d8800015 	stw	r2,0(sp)
 2002788:	300f883a 	mov	r7,r6
 200278c:	280d883a 	mov	r6,r5
 2002790:	200b883a 	mov	r5,r4
 2002794:	1809883a 	mov	r4,r3
 2002798:	2003d680 	call	2003d68 <collide_calc>
						collision[39], 39);
				collide_calc(ball[6], ball[8], velocity[6], velocity[8],
 200279c:	e0bfe504 	addi	r2,fp,-108
 20027a0:	11801004 	addi	r6,r2,64
 20027a4:	e0bfe504 	addi	r2,fp,-108
 20027a8:	11400c04 	addi	r5,r2,48
 20027ac:	e0bf4c04 	addi	r2,fp,-720
 20027b0:	11001004 	addi	r4,r2,64
 20027b4:	e0bf4c04 	addi	r2,fp,-720
 20027b8:	10c00c04 	addi	r3,r2,48
 20027bc:	00800a04 	movi	r2,40
 20027c0:	d8800115 	stw	r2,4(sp)
 20027c4:	e0bf6004 	addi	r2,fp,-640
 20027c8:	10805004 	addi	r2,r2,320
 20027cc:	d8800015 	stw	r2,0(sp)
 20027d0:	300f883a 	mov	r7,r6
 20027d4:	280d883a 	mov	r6,r5
 20027d8:	200b883a 	mov	r5,r4
 20027dc:	1809883a 	mov	r4,r3
 20027e0:	2003d680 	call	2003d68 <collide_calc>
						collision[40], 40);
				collide_calc(ball[6], ball[9], velocity[6], velocity[9],
 20027e4:	e0bfe504 	addi	r2,fp,-108
 20027e8:	11801204 	addi	r6,r2,72
 20027ec:	e0bfe504 	addi	r2,fp,-108
 20027f0:	11400c04 	addi	r5,r2,48
 20027f4:	e0bf4c04 	addi	r2,fp,-720
 20027f8:	11001204 	addi	r4,r2,72
 20027fc:	e0bf4c04 	addi	r2,fp,-720
 2002800:	10c00c04 	addi	r3,r2,48
 2002804:	00800a44 	movi	r2,41
 2002808:	d8800115 	stw	r2,4(sp)
 200280c:	e0bf6004 	addi	r2,fp,-640
 2002810:	10805204 	addi	r2,r2,328
 2002814:	d8800015 	stw	r2,0(sp)
 2002818:	300f883a 	mov	r7,r6
 200281c:	280d883a 	mov	r6,r5
 2002820:	200b883a 	mov	r5,r4
 2002824:	1809883a 	mov	r4,r3
 2002828:	2003d680 	call	2003d68 <collide_calc>
						collision[41], 41);

				collide_calc(ball[7], ball[8], velocity[7], velocity[8],
 200282c:	e0bfe504 	addi	r2,fp,-108
 2002830:	11801004 	addi	r6,r2,64
 2002834:	e0bfe504 	addi	r2,fp,-108
 2002838:	11400e04 	addi	r5,r2,56
 200283c:	e0bf4c04 	addi	r2,fp,-720
 2002840:	11001004 	addi	r4,r2,64
 2002844:	e0bf4c04 	addi	r2,fp,-720
 2002848:	10c00e04 	addi	r3,r2,56
 200284c:	00800a84 	movi	r2,42
 2002850:	d8800115 	stw	r2,4(sp)
 2002854:	e0bf6004 	addi	r2,fp,-640
 2002858:	10805404 	addi	r2,r2,336
 200285c:	d8800015 	stw	r2,0(sp)
 2002860:	300f883a 	mov	r7,r6
 2002864:	280d883a 	mov	r6,r5
 2002868:	200b883a 	mov	r5,r4
 200286c:	1809883a 	mov	r4,r3
 2002870:	2003d680 	call	2003d68 <collide_calc>
						collision[42], 42);
				collide_calc(ball[7], ball[9], velocity[7], velocity[9],
 2002874:	e0bfe504 	addi	r2,fp,-108
 2002878:	11801204 	addi	r6,r2,72
 200287c:	e0bfe504 	addi	r2,fp,-108
 2002880:	11400e04 	addi	r5,r2,56
 2002884:	e0bf4c04 	addi	r2,fp,-720
 2002888:	11001204 	addi	r4,r2,72
 200288c:	e0bf4c04 	addi	r2,fp,-720
 2002890:	10c00e04 	addi	r3,r2,56
 2002894:	00800ac4 	movi	r2,43
 2002898:	d8800115 	stw	r2,4(sp)
 200289c:	e0bf6004 	addi	r2,fp,-640
 20028a0:	10805604 	addi	r2,r2,344
 20028a4:	d8800015 	stw	r2,0(sp)
 20028a8:	300f883a 	mov	r7,r6
 20028ac:	280d883a 	mov	r6,r5
 20028b0:	200b883a 	mov	r5,r4
 20028b4:	1809883a 	mov	r4,r3
 20028b8:	2003d680 	call	2003d68 <collide_calc>
						collision[43], 43);

				collide_calc(ball[8], ball[9], velocity[7], velocity[9],
 20028bc:	e0bfe504 	addi	r2,fp,-108
 20028c0:	11801204 	addi	r6,r2,72
 20028c4:	e0bfe504 	addi	r2,fp,-108
 20028c8:	11400e04 	addi	r5,r2,56
 20028cc:	e0bf4c04 	addi	r2,fp,-720
 20028d0:	11001204 	addi	r4,r2,72
 20028d4:	e0bf4c04 	addi	r2,fp,-720
 20028d8:	10c01004 	addi	r3,r2,64
 20028dc:	00800b04 	movi	r2,44
 20028e0:	d8800115 	stw	r2,4(sp)
 20028e4:	e0bf6004 	addi	r2,fp,-640
 20028e8:	10805804 	addi	r2,r2,352
 20028ec:	d8800015 	stw	r2,0(sp)
 20028f0:	300f883a 	mov	r7,r6
 20028f4:	280d883a 	mov	r6,r5
 20028f8:	200b883a 	mov	r5,r4
 20028fc:	1809883a 	mov	r4,r3
 2002900:	2003d680 	call	2003d68 <collide_calc>
						collision[44], 44);

				// Damping factor

				damping(velocity[0]);
 2002904:	e0bfe504 	addi	r2,fp,-108
 2002908:	1009883a 	mov	r4,r2
 200290c:	20041f40 	call	20041f4 <damping>
				damping(velocity[1]);
 2002910:	e0bfe504 	addi	r2,fp,-108
 2002914:	10800204 	addi	r2,r2,8
 2002918:	1009883a 	mov	r4,r2
 200291c:	20041f40 	call	20041f4 <damping>
				damping(velocity[2]);
 2002920:	e0bfe504 	addi	r2,fp,-108
 2002924:	10800404 	addi	r2,r2,16
 2002928:	1009883a 	mov	r4,r2
 200292c:	20041f40 	call	20041f4 <damping>
				damping(velocity[3]);
 2002930:	e0bfe504 	addi	r2,fp,-108
 2002934:	10800604 	addi	r2,r2,24
 2002938:	1009883a 	mov	r4,r2
 200293c:	20041f40 	call	20041f4 <damping>
				damping(velocity[4]);
 2002940:	e0bfe504 	addi	r2,fp,-108
 2002944:	10800804 	addi	r2,r2,32
 2002948:	1009883a 	mov	r4,r2
 200294c:	20041f40 	call	20041f4 <damping>
				damping(velocity[5]);
 2002950:	e0bfe504 	addi	r2,fp,-108
 2002954:	10800a04 	addi	r2,r2,40
 2002958:	1009883a 	mov	r4,r2
 200295c:	20041f40 	call	20041f4 <damping>
				damping(velocity[6]);
 2002960:	e0bfe504 	addi	r2,fp,-108
 2002964:	10800c04 	addi	r2,r2,48
 2002968:	1009883a 	mov	r4,r2
 200296c:	20041f40 	call	20041f4 <damping>
				damping(velocity[7]);
 2002970:	e0bfe504 	addi	r2,fp,-108
 2002974:	10800e04 	addi	r2,r2,56
 2002978:	1009883a 	mov	r4,r2
 200297c:	20041f40 	call	20041f4 <damping>
				damping(velocity[8]);
 2002980:	e0bfe504 	addi	r2,fp,-108
 2002984:	10801004 	addi	r2,r2,64
 2002988:	1009883a 	mov	r4,r2
 200298c:	20041f40 	call	20041f4 <damping>
				damping(velocity[9]);
 2002990:	e0bfe504 	addi	r2,fp,-108
 2002994:	10801204 	addi	r2,r2,72
 2002998:	1009883a 	mov	r4,r2
 200299c:	20041f40 	call	20041f4 <damping>

				speed = momentum(velocity[0]) + momentum(velocity[1])
 20029a0:	e0bfe504 	addi	r2,fp,-108
 20029a4:	1009883a 	mov	r4,r2
 20029a8:	2003c440 	call	2003c44 <momentum>
 20029ac:	1021883a 	mov	r16,r2
 20029b0:	e0bfe504 	addi	r2,fp,-108
 20029b4:	10800204 	addi	r2,r2,8
 20029b8:	1009883a 	mov	r4,r2
 20029bc:	2003c440 	call	2003c44 <momentum>
 20029c0:	1007883a 	mov	r3,r2
 20029c4:	80e1ff72 	custom	253,r16,r16,r3
						+ momentum(velocity[2]) + momentum(velocity[3])
 20029c8:	e0bfe504 	addi	r2,fp,-108
 20029cc:	10800404 	addi	r2,r2,16
 20029d0:	1009883a 	mov	r4,r2
 20029d4:	2003c440 	call	2003c44 <momentum>
 20029d8:	1007883a 	mov	r3,r2
 20029dc:	80e1ff72 	custom	253,r16,r16,r3
 20029e0:	e0bfe504 	addi	r2,fp,-108
 20029e4:	10800604 	addi	r2,r2,24
 20029e8:	1009883a 	mov	r4,r2
 20029ec:	2003c440 	call	2003c44 <momentum>
 20029f0:	1007883a 	mov	r3,r2
 20029f4:	80e1ff72 	custom	253,r16,r16,r3
						+ momentum(velocity[4]) + momentum(velocity[5])
 20029f8:	e0bfe504 	addi	r2,fp,-108
 20029fc:	10800804 	addi	r2,r2,32
 2002a00:	1009883a 	mov	r4,r2
 2002a04:	2003c440 	call	2003c44 <momentum>
 2002a08:	1007883a 	mov	r3,r2
 2002a0c:	80e1ff72 	custom	253,r16,r16,r3
 2002a10:	e0bfe504 	addi	r2,fp,-108
 2002a14:	10800a04 	addi	r2,r2,40
 2002a18:	1009883a 	mov	r4,r2
 2002a1c:	2003c440 	call	2003c44 <momentum>
 2002a20:	1007883a 	mov	r3,r2
 2002a24:	80e1ff72 	custom	253,r16,r16,r3
						+ momentum(velocity[6]) + momentum(velocity[7])
 2002a28:	e0bfe504 	addi	r2,fp,-108
 2002a2c:	10800c04 	addi	r2,r2,48
 2002a30:	1009883a 	mov	r4,r2
 2002a34:	2003c440 	call	2003c44 <momentum>
 2002a38:	1007883a 	mov	r3,r2
 2002a3c:	80e1ff72 	custom	253,r16,r16,r3
 2002a40:	e0bfe504 	addi	r2,fp,-108
 2002a44:	10800e04 	addi	r2,r2,56
 2002a48:	1009883a 	mov	r4,r2
 2002a4c:	2003c440 	call	2003c44 <momentum>
 2002a50:	1007883a 	mov	r3,r2
 2002a54:	80e1ff72 	custom	253,r16,r16,r3
						+ momentum(velocity[8]) + momentum(velocity[9]);
 2002a58:	e0bfe504 	addi	r2,fp,-108
 2002a5c:	10801004 	addi	r2,r2,64
 2002a60:	1009883a 	mov	r4,r2
 2002a64:	2003c440 	call	2003c44 <momentum>
 2002a68:	1007883a 	mov	r3,r2
 2002a6c:	80e1ff72 	custom	253,r16,r16,r3
 2002a70:	e0bfe504 	addi	r2,fp,-108
 2002a74:	10801204 	addi	r2,r2,72
 2002a78:	1009883a 	mov	r4,r2
 2002a7c:	2003c440 	call	2003c44 <momentum>
 2002a80:	1007883a 	mov	r3,r2
				damping(velocity[6]);
				damping(velocity[7]);
				damping(velocity[8]);
				damping(velocity[9]);

				speed = momentum(velocity[0]) + momentum(velocity[1])
 2002a84:	80c5ff72 	custom	253,r2,r16,r3
 2002a88:	e0bf3b15 	stw	r2,-788(fp)
						+ momentum(velocity[2]) + momentum(velocity[3])
						+ momentum(velocity[4]) + momentum(velocity[5])
						+ momentum(velocity[6]) + momentum(velocity[7])
						+ momentum(velocity[8]) + momentum(velocity[9]);

				IOWR(display, 1, ((int ) (ball[0][1]) << 10) + (int ) (ball[0][0]));
 2002a8c:	e0bf3d17 	ldw	r2,-780(fp)
 2002a90:	10800104 	addi	r2,r2,4
 2002a94:	e0ff4d17 	ldw	r3,-716(fp)
 2002a98:	1807fe72 	custom	249,r3,r3,zero
 2002a9c:	180892ba 	slli	r4,r3,10
 2002aa0:	e0ff4c17 	ldw	r3,-720(fp)
 2002aa4:	1807fe72 	custom	249,r3,r3,zero
 2002aa8:	20c7883a 	add	r3,r4,r3
 2002aac:	10c00035 	stwio	r3,0(r2)
				IOWR(display, 2, ((int ) (ball[1][1]) << 10) + (int ) (ball[1][0]));
 2002ab0:	e0bf3d17 	ldw	r2,-780(fp)
 2002ab4:	10800204 	addi	r2,r2,8
 2002ab8:	e0ff4f17 	ldw	r3,-708(fp)
 2002abc:	1807fe72 	custom	249,r3,r3,zero
 2002ac0:	180892ba 	slli	r4,r3,10
 2002ac4:	e0ff4e17 	ldw	r3,-712(fp)
 2002ac8:	1807fe72 	custom	249,r3,r3,zero
 2002acc:	20c7883a 	add	r3,r4,r3
 2002ad0:	10c00035 	stwio	r3,0(r2)
				IOWR(display, 3, ((int ) (ball[2][1]) << 10) + (int ) (ball[2][0]));
 2002ad4:	e0bf3d17 	ldw	r2,-780(fp)
 2002ad8:	10800304 	addi	r2,r2,12
 2002adc:	e0ff5117 	ldw	r3,-700(fp)
 2002ae0:	1807fe72 	custom	249,r3,r3,zero
 2002ae4:	180892ba 	slli	r4,r3,10
 2002ae8:	e0ff5017 	ldw	r3,-704(fp)
 2002aec:	1807fe72 	custom	249,r3,r3,zero
 2002af0:	20c7883a 	add	r3,r4,r3
 2002af4:	10c00035 	stwio	r3,0(r2)
				IOWR(display, 4, ((int ) (ball[3][1]) << 10) + (int ) (ball[3][0]));
 2002af8:	e0bf3d17 	ldw	r2,-780(fp)
 2002afc:	10800404 	addi	r2,r2,16
 2002b00:	e0ff5317 	ldw	r3,-692(fp)
 2002b04:	1807fe72 	custom	249,r3,r3,zero
 2002b08:	180892ba 	slli	r4,r3,10
 2002b0c:	e0ff5217 	ldw	r3,-696(fp)
 2002b10:	1807fe72 	custom	249,r3,r3,zero
 2002b14:	20c7883a 	add	r3,r4,r3
 2002b18:	10c00035 	stwio	r3,0(r2)
				IOWR(display, 5, ((int ) (ball[4][1]) << 10) + (int ) (ball[4][0]));
 2002b1c:	e0bf3d17 	ldw	r2,-780(fp)
 2002b20:	10800504 	addi	r2,r2,20
 2002b24:	e0ff5517 	ldw	r3,-684(fp)
 2002b28:	1807fe72 	custom	249,r3,r3,zero
 2002b2c:	180892ba 	slli	r4,r3,10
 2002b30:	e0ff5417 	ldw	r3,-688(fp)
 2002b34:	1807fe72 	custom	249,r3,r3,zero
 2002b38:	20c7883a 	add	r3,r4,r3
 2002b3c:	10c00035 	stwio	r3,0(r2)
				IOWR(display, 6, ((int ) (ball[5][1]) << 10) + (int ) (ball[5][0]));
 2002b40:	e0bf3d17 	ldw	r2,-780(fp)
 2002b44:	10800604 	addi	r2,r2,24
 2002b48:	e0ff5717 	ldw	r3,-676(fp)
 2002b4c:	1807fe72 	custom	249,r3,r3,zero
 2002b50:	180892ba 	slli	r4,r3,10
 2002b54:	e0ff5617 	ldw	r3,-680(fp)
 2002b58:	1807fe72 	custom	249,r3,r3,zero
 2002b5c:	20c7883a 	add	r3,r4,r3
 2002b60:	10c00035 	stwio	r3,0(r2)
				IOWR(display, 7, ((int ) (ball[6][1]) << 10) + (int ) (ball[6][0]));
 2002b64:	e0bf3d17 	ldw	r2,-780(fp)
 2002b68:	10800704 	addi	r2,r2,28
 2002b6c:	e0ff5917 	ldw	r3,-668(fp)
 2002b70:	1807fe72 	custom	249,r3,r3,zero
 2002b74:	180892ba 	slli	r4,r3,10
 2002b78:	e0ff5817 	ldw	r3,-672(fp)
 2002b7c:	1807fe72 	custom	249,r3,r3,zero
 2002b80:	20c7883a 	add	r3,r4,r3
 2002b84:	10c00035 	stwio	r3,0(r2)
				IOWR(display, 8, ((int ) (ball[7][1]) << 10) + (int ) (ball[7][0]));
 2002b88:	e0bf3d17 	ldw	r2,-780(fp)
 2002b8c:	10800804 	addi	r2,r2,32
 2002b90:	e0ff5b17 	ldw	r3,-660(fp)
 2002b94:	1807fe72 	custom	249,r3,r3,zero
 2002b98:	180892ba 	slli	r4,r3,10
 2002b9c:	e0ff5a17 	ldw	r3,-664(fp)
 2002ba0:	1807fe72 	custom	249,r3,r3,zero
 2002ba4:	20c7883a 	add	r3,r4,r3
 2002ba8:	10c00035 	stwio	r3,0(r2)
				IOWR(display, 9, ((int ) (ball[8][1]) << 10) + (int ) (ball[8][0]));
 2002bac:	e0bf3d17 	ldw	r2,-780(fp)
 2002bb0:	10800904 	addi	r2,r2,36
 2002bb4:	e0ff5d17 	ldw	r3,-652(fp)
 2002bb8:	1807fe72 	custom	249,r3,r3,zero
 2002bbc:	180892ba 	slli	r4,r3,10
 2002bc0:	e0ff5c17 	ldw	r3,-656(fp)
 2002bc4:	1807fe72 	custom	249,r3,r3,zero
 2002bc8:	20c7883a 	add	r3,r4,r3
 2002bcc:	10c00035 	stwio	r3,0(r2)
				IOWR(display, 10,
 2002bd0:	e0bf3d17 	ldw	r2,-780(fp)
 2002bd4:	10800a04 	addi	r2,r2,40
 2002bd8:	e0ff5f17 	ldw	r3,-644(fp)
 2002bdc:	1807fe72 	custom	249,r3,r3,zero
 2002be0:	180892ba 	slli	r4,r3,10
 2002be4:	e0ff5e17 	ldw	r3,-648(fp)
 2002be8:	1807fe72 	custom	249,r3,r3,zero
 2002bec:	20c7883a 	add	r3,r4,r3
 2002bf0:	10c00035 	stwio	r3,0(r2)
						((int ) (ball[9][1]) << 10) + (int ) (ball[9][0]));
				OSTimeDlyHMSM(0, 0, 0, 4);
 2002bf4:	01c00104 	movi	r7,4
 2002bf8:	000d883a 	mov	r6,zero
 2002bfc:	000b883a 	mov	r5,zero
 2002c00:	0009883a 	mov	r4,zero
 2002c04:	201fbe00 	call	201fbe0 <OSTimeDlyHMSM>
			int delay = 0;
			float delta = 0;
			float dist = sqrtf(
					(*effect_x - 446) * (*effect_x - 446)
							+ (*effect_y - 263) * (*effect_y - 263));
			while (speed >= 0.1) {
 2002c08:	e13f3b17 	ldw	r4,-788(fp)
 2002c0c:	20099440 	call	2009944 <__extendsfdf2>
 2002c10:	1011883a 	mov	r8,r2
 2002c14:	1813883a 	mov	r9,r3
 2002c18:	01a666b4 	movhi	r6,39322
 2002c1c:	31a66684 	addi	r6,r6,-26214
 2002c20:	01cfeeb4 	movhi	r7,16314
 2002c24:	39e66644 	addi	r7,r7,-26215
 2002c28:	4009883a 	mov	r4,r8
 2002c2c:	480b883a 	mov	r5,r9
 2002c30:	20087600 	call	2008760 <__gedf2>
 2002c34:	1038c70e 	bge	r2,zero,2000f54 <task2+0x7b0>
						((int ) (ball[9][1]) << 10) + (int ) (ball[9][0]));
				OSTimeDlyHMSM(0, 0, 0, 4);

			}

			OSTimeDlyHMSM(0, 0, 0, 100);
 2002c38:	01c01904 	movi	r7,100
 2002c3c:	000d883a 	mov	r6,zero
 2002c40:	000b883a 	mov	r5,zero
 2002c44:	0009883a 	mov	r4,zero
 2002c48:	201fbe00 	call	201fbe0 <OSTimeDlyHMSM>

			opt_task2 = OS_FLAG_CLR;
 2002c4c:	e03f3e05 	stb	zero,-776(fp)
			OSFlagPost(AnimationFlagGrp, ANIMATION, opt_task2, &err);
 2002c50:	d0a78817 	ldw	r2,-25056(gp)
 2002c54:	e0ff3e03 	ldbu	r3,-776(fp)
 2002c58:	e13f4b04 	addi	r4,fp,-724
 2002c5c:	200f883a 	mov	r7,r4
 2002c60:	180d883a 	mov	r6,r3
 2002c64:	01400044 	movi	r5,1
 2002c68:	1009883a 	mov	r4,r2
 2002c6c:	201adc00 	call	201adc0 <OSFlagPost>

			OSMboxPost(MailBox6, &number_of_ball);
 2002c70:	d0a78517 	ldw	r2,-25068(gp)
 2002c74:	e0ffba04 	addi	r3,fp,-280
 2002c78:	180b883a 	mov	r5,r3
 2002c7c:	1009883a 	mov	r4,r2
 2002c80:	201bd3c0 	call	201bd3c <OSMboxPost>
			//OSMboxPost(MailBox7, &score);
			DEBUG_PRINT("[Task 2] Animation termine -> %i ball \n",number_of_ball);
 2002c84:	e0bfba17 	ldw	r2,-280(fp)
 2002c88:	100b883a 	mov	r5,r2
 2002c8c:	010080b4 	movhi	r4,514
 2002c90:	210a7f04 	addi	r4,r4,10748
 2002c94:	200a0300 	call	200a030 <printf>
		}
	}
 2002c98:	00373806 	br	200097c <task2+0x1d8>

02002c9c <task3>:
}

void task3(void* pdata) {
 2002c9c:	deffd804 	addi	sp,sp,-160
 2002ca0:	dfc02715 	stw	ra,156(sp)
 2002ca4:	df002615 	stw	fp,152(sp)
 2002ca8:	df002604 	addi	fp,sp,152
 2002cac:	e13fff15 	stw	r4,-4(fp)
	 int * turn_finish = (int *) MEM_NIOS_PI_BASE + 13; to RPi
	 int * game_finish = (int*) MEM_NIOS_PI_BASE+14; to RPi
	 int * time_out = (int*) MEM_NIOS_PI_BASE+15; from RPi
	 */
	//intermediate variable//
	IOWR(MEM_NIOS_PI_BASE, 0, 0);
 2002cb0:	0007883a 	mov	r3,zero
 2002cb4:	00800834 	movhi	r2,32
 2002cb8:	10c00035 	stwio	r3,0(r2)
	IOWR(MEM_NIOS_PI_BASE, 1, 0);
 2002cbc:	0007883a 	mov	r3,zero
 2002cc0:	00800834 	movhi	r2,32
 2002cc4:	10800104 	addi	r2,r2,4
 2002cc8:	10c00035 	stwio	r3,0(r2)
	IOWR(MEM_NIOS_PI_BASE, 2, 0);
 2002ccc:	0007883a 	mov	r3,zero
 2002cd0:	00800834 	movhi	r2,32
 2002cd4:	10800204 	addi	r2,r2,8
 2002cd8:	10c00035 	stwio	r3,0(r2)

	IOWR(MEM_NIOS_PI_BASE, 3, 0);
 2002cdc:	0007883a 	mov	r3,zero
 2002ce0:	00800834 	movhi	r2,32
 2002ce4:	10800304 	addi	r2,r2,12
 2002ce8:	10c00035 	stwio	r3,0(r2)

	IOWR(MEM_NIOS_PI_BASE, 7, 0);
 2002cec:	0007883a 	mov	r3,zero
 2002cf0:	00800834 	movhi	r2,32
 2002cf4:	10800704 	addi	r2,r2,28
 2002cf8:	10c00035 	stwio	r3,0(r2)

	int ready, first_player, game_finish, ready_send;
	int all_rdy;

	ready = 0;
 2002cfc:	e03fdc15 	stw	zero,-144(fp)
	first_player = 0;
 2002d00:	e03fdd15 	stw	zero,-140(fp)
	all_rdy = 0;
 2002d04:	e03fdf15 	stw	zero,-132(fp)
	game_finish = 0;
 2002d08:	e03fef15 	stw	zero,-68(fp)
	ready_send = 0;
 2002d0c:	e03fde15 	stw	zero,-136(fp)
	int number_of_ball = 10;
 2002d10:	00800284 	movi	r2,10
 2002d14:	e0bff015 	stw	r2,-64(fp)
	int time_out = 0;
 2002d18:	e03fe015 	stw	zero,-128(fp)
	int data_valid_from_task1 = 0;
 2002d1c:	e03fe115 	stw	zero,-124(fp)
	int dir_x, dir_y, ef_x, ef_y;
	int set_send;

	int val = IORD(GPIO_BASE, 0);
 2002d20:	00800834 	movhi	r2,32
 2002d24:	10810004 	addi	r2,r2,1024
 2002d28:	10800037 	ldwio	r2,0(r2)
 2002d2c:	e0bfe315 	stw	r2,-116(fp)
	DEBUG_PRINT("GPIO : %d\n",val);
 2002d30:	e17fe317 	ldw	r5,-116(fp)
 2002d34:	010080b4 	movhi	r4,514
 2002d38:	210a9d04 	addi	r4,r4,10868
 2002d3c:	200a0300 	call	200a030 <printf>
	IOWR(MTL_IP_BASE, 13, 4);
 2002d40:	00c00104 	movi	r3,4
 2002d44:	008000b4 	movhi	r2,2
 2002d48:	10800d04 	addi	r2,r2,52
 2002d4c:	10c00035 	stwio	r3,0(r2)
	while (!val) {
 2002d50:	00000906 	br	2002d78 <task3+0xdc>
		val = IORD(GPIO_BASE, 0);
 2002d54:	00800834 	movhi	r2,32
 2002d58:	10810004 	addi	r2,r2,1024
 2002d5c:	10800037 	ldwio	r2,0(r2)
 2002d60:	e0bfe315 	stw	r2,-116(fp)
		OSTimeDlyHMSM(0, 0, 0, 500);
 2002d64:	01c07d04 	movi	r7,500
 2002d68:	000d883a 	mov	r6,zero
 2002d6c:	000b883a 	mov	r5,zero
 2002d70:	0009883a 	mov	r4,zero
 2002d74:	201fbe00 	call	201fbe0 <OSTimeDlyHMSM>
	int set_send;

	int val = IORD(GPIO_BASE, 0);
	DEBUG_PRINT("GPIO : %d\n",val);
	IOWR(MTL_IP_BASE, 13, 4);
	while (!val) {
 2002d78:	e0bfe317 	ldw	r2,-116(fp)
 2002d7c:	103ff526 	beq	r2,zero,2002d54 <task3+0xb8>
		OSTimeDlyHMSM(0, 0, 0, 500);
	}

	while (1) {

		ready = 0;
 2002d80:	e03fdc15 	stw	zero,-144(fp)
		first_player = 0;
 2002d84:	e03fdd15 	stw	zero,-140(fp)
		all_rdy = 0;
 2002d88:	e03fdf15 	stw	zero,-132(fp)
		game_finish = 0;
 2002d8c:	e03fef15 	stw	zero,-68(fp)
		ready_send = 0;
 2002d90:	e03fde15 	stw	zero,-136(fp)
		number_of_ball = 10;
 2002d94:	00800284 	movi	r2,10
 2002d98:	e0bff015 	stw	r2,-64(fp)
		time_out = 0;
 2002d9c:	e03fe015 	stw	zero,-128(fp)
		set_send = 0;
 2002da0:	e03fe215 	stw	zero,-120(fp)

		IOWR(MEM_NIOS_PI_BASE, 0, 0);
 2002da4:	0007883a 	mov	r3,zero
 2002da8:	00800834 	movhi	r2,32
 2002dac:	10c00035 	stwio	r3,0(r2)
		IOWR(MEM_NIOS_PI_BASE, 1, 0);
 2002db0:	0007883a 	mov	r3,zero
 2002db4:	00800834 	movhi	r2,32
 2002db8:	10800104 	addi	r2,r2,4
 2002dbc:	10c00035 	stwio	r3,0(r2)
		IOWR(MEM_NIOS_PI_BASE, 2, 0);
 2002dc0:	0007883a 	mov	r3,zero
 2002dc4:	00800834 	movhi	r2,32
 2002dc8:	10800204 	addi	r2,r2,8
 2002dcc:	10c00035 	stwio	r3,0(r2)

		IOWR(MEM_NIOS_PI_BASE, 3, 0);
 2002dd0:	0007883a 	mov	r3,zero
 2002dd4:	00800834 	movhi	r2,32
 2002dd8:	10800304 	addi	r2,r2,12
 2002ddc:	10c00035 	stwio	r3,0(r2)

		IOWR(MEM_NIOS_PI_BASE, 7, 0);
 2002de0:	0007883a 	mov	r3,zero
 2002de4:	00800834 	movhi	r2,32
 2002de8:	10800704 	addi	r2,r2,28
 2002dec:	10c00035 	stwio	r3,0(r2)


		/* Wait for first player */
		OSFlagPost(ActivateTask4Grp, ACTIVATE_TASK4, OS_FLAG_SET, &err);
 2002df0:	d0a78a17 	ldw	r2,-25048(gp)
 2002df4:	e0ffee04 	addi	r3,fp,-72
 2002df8:	180f883a 	mov	r7,r3
 2002dfc:	01800044 	movi	r6,1
 2002e00:	01400044 	movi	r5,1
 2002e04:	1009883a 	mov	r4,r2
 2002e08:	201adc00 	call	201adc0 <OSFlagPost>
		IOWR(MTL_IP_BASE, 13, 2);
 2002e0c:	00c00084 	movi	r3,2
 2002e10:	008000b4 	movhi	r2,2
 2002e14:	10800d04 	addi	r2,r2,52
 2002e18:	10c00035 	stwio	r3,0(r2)
		DEBUG_PRINT("[Task 3] Wait for first player\n");
 2002e1c:	010080b4 	movhi	r4,514
 2002e20:	210aa004 	addi	r4,r4,10880
 2002e24:	200a1b00 	call	200a1b0 <puts>
		while (!ready && !time_out) {
 2002e28:	00003506 	br	2002f00 <task3+0x264>
			int var = IORD(MEM_NIOS_PI_BASE, 1);
 2002e2c:	00800834 	movhi	r2,32
 2002e30:	10800104 	addi	r2,r2,4
 2002e34:	10800037 	ldwio	r2,0(r2)
 2002e38:	e0bfe415 	stw	r2,-112(fp)
			time_out = IORD(MEM_NIOS_PI_BASE, 15);
 2002e3c:	00800834 	movhi	r2,32
 2002e40:	10800f04 	addi	r2,r2,60
 2002e44:	10800037 	ldwio	r2,0(r2)
 2002e48:	e0bfe015 	stw	r2,-128(fp)
			if (time_out)
 2002e4c:	e0bfe017 	ldw	r2,-128(fp)
 2002e50:	10000426 	beq	r2,zero,2002e64 <task3+0x1c8>
				IOWR(MEM_NIOS_PI_BASE, 15, 0);
 2002e54:	0007883a 	mov	r3,zero
 2002e58:	00800834 	movhi	r2,32
 2002e5c:	10800f04 	addi	r2,r2,60
 2002e60:	10c00035 	stwio	r3,0(r2)
			if (var != 0) {
 2002e64:	e0bfe417 	ldw	r2,-112(fp)
 2002e68:	10000526 	beq	r2,zero,2002e80 <task3+0x1e4>
				ready = 1;
 2002e6c:	00800044 	movi	r2,1
 2002e70:	e0bfdc15 	stw	r2,-144(fp)
				first_player = var;
 2002e74:	e0bfe417 	ldw	r2,-112(fp)
 2002e78:	e0bfdd15 	stw	r2,-140(fp)
 2002e7c:	00001b06 	br	2002eec <task3+0x250>
			} else if (!time_out) {
 2002e80:	e0bfe017 	ldw	r2,-128(fp)
 2002e84:	1000191e 	bne	r2,zero,2002eec <task3+0x250>
				OS_FLAGS flag = OSFlagAccept(StartGameGrp, START_THE_GAME,
 2002e88:	d0a79417 	ldw	r2,-25008(gp)
 2002e8c:	e0ffee04 	addi	r3,fp,-72
 2002e90:	180f883a 	mov	r7,r3
 2002e94:	01802084 	movi	r6,130
 2002e98:	01400044 	movi	r5,1
 2002e9c:	1009883a 	mov	r4,r2
 2002ea0:	2019edc0 	call	2019edc <OSFlagAccept>
 2002ea4:	e0bfe50d 	sth	r2,-108(fp)
						OS_FLAG_WAIT_SET_ALL + OS_FLAG_CONSUME, &err);
				if (flag == START_THE_GAME && !ready_send) {
 2002ea8:	e0bfe50b 	ldhu	r2,-108(fp)
 2002eac:	10800058 	cmpnei	r2,r2,1
 2002eb0:	10000e1e 	bne	r2,zero,2002eec <task3+0x250>
 2002eb4:	e0bfde17 	ldw	r2,-136(fp)
 2002eb8:	10000c1e 	bne	r2,zero,2002eec <task3+0x250>
					IOWR(MTL_IP_BASE, 13, 3);
 2002ebc:	00c000c4 	movi	r3,3
 2002ec0:	008000b4 	movhi	r2,2
 2002ec4:	10800d04 	addi	r2,r2,52
 2002ec8:	10c00035 	stwio	r3,0(r2)
					DEBUG_PRINT("[Task 3] Player touch the screen\n");
 2002ecc:	010080b4 	movhi	r4,514
 2002ed0:	210aa804 	addi	r4,r4,10912
 2002ed4:	200a1b00 	call	200a1b0 <puts>
					ready_send = 1;
 2002ed8:	00800044 	movi	r2,1
 2002edc:	e0bfde15 	stw	r2,-136(fp)
					IOWR(MEM_NIOS_PI_BASE, 0, ID1);
 2002ee0:	00c00084 	movi	r3,2
 2002ee4:	00800834 	movhi	r2,32
 2002ee8:	10c00035 	stwio	r3,0(r2)
				}
			}
			OSTimeDlyHMSM(0, 0, 0, 100);
 2002eec:	01c01904 	movi	r7,100
 2002ef0:	000d883a 	mov	r6,zero
 2002ef4:	000b883a 	mov	r5,zero
 2002ef8:	0009883a 	mov	r4,zero
 2002efc:	201fbe00 	call	201fbe0 <OSTimeDlyHMSM>

		/* Wait for first player */
		OSFlagPost(ActivateTask4Grp, ACTIVATE_TASK4, OS_FLAG_SET, &err);
		IOWR(MTL_IP_BASE, 13, 2);
		DEBUG_PRINT("[Task 3] Wait for first player\n");
		while (!ready && !time_out) {
 2002f00:	e0bfdc17 	ldw	r2,-144(fp)
 2002f04:	1000021e 	bne	r2,zero,2002f10 <task3+0x274>
 2002f08:	e0bfe017 	ldw	r2,-128(fp)
 2002f0c:	103fc726 	beq	r2,zero,2002e2c <task3+0x190>
					IOWR(MEM_NIOS_PI_BASE, 0, ID1);
				}
			}
			OSTimeDlyHMSM(0, 0, 0, 100);
		}
		IOWR(MTL_IP_BASE,13,3);
 2002f10:	00c000c4 	movi	r3,3
 2002f14:	008000b4 	movhi	r2,2
 2002f18:	10800d04 	addi	r2,r2,52
 2002f1c:	10c00035 	stwio	r3,0(r2)
		/* Wait for all player */
		DEBUG_PRINT("[Task 3] Wait for all player are ready \n");
 2002f20:	010080b4 	movhi	r4,514
 2002f24:	210ab104 	addi	r4,r4,10948
 2002f28:	200a1b00 	call	200a1b0 <puts>
		while (!all_rdy && !time_out) {
 2002f2c:	00001006 	br	2002f70 <task3+0x2d4>
			time_out = IORD(MEM_NIOS_PI_BASE, 15);
 2002f30:	00800834 	movhi	r2,32
 2002f34:	10800f04 	addi	r2,r2,60
 2002f38:	10800037 	ldwio	r2,0(r2)
 2002f3c:	e0bfe015 	stw	r2,-128(fp)
			if (time_out)
 2002f40:	e0bfe017 	ldw	r2,-128(fp)
 2002f44:	10000426 	beq	r2,zero,2002f58 <task3+0x2bc>
				IOWR(MEM_NIOS_PI_BASE, 15, 0);
 2002f48:	0007883a 	mov	r3,zero
 2002f4c:	00800834 	movhi	r2,32
 2002f50:	10800f04 	addi	r2,r2,60
 2002f54:	10c00035 	stwio	r3,0(r2)
			if (IORD(MEM_NIOS_PI_BASE, 2))
 2002f58:	00800834 	movhi	r2,32
 2002f5c:	10800204 	addi	r2,r2,8
 2002f60:	10800037 	ldwio	r2,0(r2)
 2002f64:	10000226 	beq	r2,zero,2002f70 <task3+0x2d4>
				all_rdy = 1;
 2002f68:	00800044 	movi	r2,1
 2002f6c:	e0bfdf15 	stw	r2,-132(fp)
			OSTimeDlyHMSM(0, 0, 0, 100);
		}
		IOWR(MTL_IP_BASE,13,3);
		/* Wait for all player */
		DEBUG_PRINT("[Task 3] Wait for all player are ready \n");
		while (!all_rdy && !time_out) {
 2002f70:	e0bfdf17 	ldw	r2,-132(fp)
 2002f74:	1000021e 	bne	r2,zero,2002f80 <task3+0x2e4>
 2002f78:	e0bfe017 	ldw	r2,-128(fp)
 2002f7c:	103fec26 	beq	r2,zero,2002f30 <task3+0x294>
				IOWR(MEM_NIOS_PI_BASE, 15, 0);
			if (IORD(MEM_NIOS_PI_BASE, 2))
				all_rdy = 1;
		}

		activePlayer = first_player;
 2002f80:	e0bfdd17 	ldw	r2,-140(fp)
 2002f84:	e0bfdb15 	stw	r2,-148(fp)
		game_finish = 0;
 2002f88:	e03fef15 	stw	zero,-68(fp)
		DEBUG_PRINT("[Task 3] the game can start\n");
 2002f8c:	010080b4 	movhi	r4,514
 2002f90:	210abb04 	addi	r4,r4,10988
 2002f94:	200a1b00 	call	200a1b0 <puts>
		IOWR(MTL_IP_BASE, 13, 0);
 2002f98:	0007883a 	mov	r3,zero
 2002f9c:	008000b4 	movhi	r2,2
 2002fa0:	10800d04 	addi	r2,r2,52
 2002fa4:	10c00035 	stwio	r3,0(r2)
		while (!game_finish && !time_out){
 2002fa8:	00018106 	br	20035b0 <task3+0x914>
			time_out = IORD(MEM_NIOS_PI_BASE, 15);
 2002fac:	00800834 	movhi	r2,32
 2002fb0:	10800f04 	addi	r2,r2,60
 2002fb4:	10800037 	ldwio	r2,0(r2)
 2002fb8:	e0bfe015 	stw	r2,-128(fp)
			//DEBUG_PRINT("Time out : %d\n",time_out);
			if (time_out)
 2002fbc:	e0bfe017 	ldw	r2,-128(fp)
 2002fc0:	10000426 	beq	r2,zero,2002fd4 <task3+0x338>
				IOWR(MEM_NIOS_PI_BASE, 15, 0);
 2002fc4:	0007883a 	mov	r3,zero
 2002fc8:	00800834 	movhi	r2,32
 2002fcc:	10800f04 	addi	r2,r2,60
 2002fd0:	10c00035 	stwio	r3,0(r2)
			//DEBUG_PRINT("Start loop %d\n", activePlayer);
			if (activePlayer == ID1) {
 2002fd4:	e0bfdb17 	ldw	r2,-148(fp)
 2002fd8:	10800098 	cmpnei	r2,r2,2
 2002fdc:	1000051e 	bne	r2,zero,2002ff4 <task3+0x358>
				IOWR(MTL_IP_BASE, 12, 1);
 2002fe0:	00c00044 	movi	r3,1
 2002fe4:	008000b4 	movhi	r2,2
 2002fe8:	10800c04 	addi	r2,r2,48
 2002fec:	10c00035 	stwio	r3,0(r2)
 2002ff0:	00000406 	br	2003004 <task3+0x368>
			} else {
				IOWR(MTL_IP_BASE, 12, 0);
 2002ff4:	0007883a 	mov	r3,zero
 2002ff8:	008000b4 	movhi	r2,2
 2002ffc:	10800c04 	addi	r2,r2,48
 2003000:	10c00035 	stwio	r3,0(r2)
			}
			if (activePlayer == ID1 && !IORD(MEM_NIOS_PI_BASE, 7)
 2003004:	e0bfdb17 	ldw	r2,-148(fp)
 2003008:	10800098 	cmpnei	r2,r2,2
 200300c:	1000e51e 	bne	r2,zero,20033a4 <task3+0x708>
 2003010:	00800834 	movhi	r2,32
 2003014:	10800704 	addi	r2,r2,28
 2003018:	10800037 	ldwio	r2,0(r2)
 200301c:	1000e11e 	bne	r2,zero,20033a4 <task3+0x708>
					&& !time_out) {
 2003020:	e0bfe017 	ldw	r2,-128(fp)
 2003024:	1000df1e 	bne	r2,zero,20033a4 <task3+0x708>
				if(!set_send){
 2003028:	e0bfe217 	ldw	r2,-120(fp)
 200302c:	1000091e 	bne	r2,zero,2003054 <task3+0x3b8>
					set_send = 1;
 2003030:	00800044 	movi	r2,1
 2003034:	e0bfe215 	stw	r2,-120(fp)
					OSFlagPost(isActiveFlagGrp, IS_ACTIVE, OS_FLAG_SET, &err);
 2003038:	d0a79317 	ldw	r2,-25012(gp)
 200303c:	e0ffee04 	addi	r3,fp,-72
 2003040:	180f883a 	mov	r7,r3
 2003044:	01800044 	movi	r6,1
 2003048:	01400044 	movi	r5,1
 200304c:	1009883a 	mov	r4,r2
 2003050:	201adc00 	call	201adc0 <OSFlagPost>
				}
				//DEBUG_PRINT("[Task 3] Wait for value from task 1\n");
				data_valid_from_task1 = 0;
 2003054:	e03fe115 	stw	zero,-124(fp)
				int *vector_x = (int *) OSMboxPend(MailBox1, 100, &err);
 2003058:	d0a79217 	ldw	r2,-25016(gp)
 200305c:	e0ffee04 	addi	r3,fp,-72
 2003060:	180d883a 	mov	r6,r3
 2003064:	01401904 	movi	r5,100
 2003068:	1009883a 	mov	r4,r2
 200306c:	201b99c0 	call	201b99c <OSMboxPend>
 2003070:	e0bfe615 	stw	r2,-104(fp)
				if(err == OS_ERR_TIMEOUT && dir_x == 0) data_valid_from_task1 = 1;
 2003074:	e0bfee03 	ldbu	r2,-72(fp)
 2003078:	10803fcc 	andi	r2,r2,255
 200307c:	10800298 	cmpnei	r2,r2,10
 2003080:	1000051e 	bne	r2,zero,2003098 <task3+0x3fc>
 2003084:	e0bff117 	ldw	r2,-60(fp)
 2003088:	1000031e 	bne	r2,zero,2003098 <task3+0x3fc>
 200308c:	00800044 	movi	r2,1
 2003090:	e0bfe115 	stw	r2,-124(fp)
 2003094:	00000806 	br	20030b8 <task3+0x41c>
				else if(err == OS_ERR_NONE && dir_x == 0) dir_x = *vector_x;
 2003098:	e0bfee03 	ldbu	r2,-72(fp)
 200309c:	10803fcc 	andi	r2,r2,255
 20030a0:	1000051e 	bne	r2,zero,20030b8 <task3+0x41c>
 20030a4:	e0bff117 	ldw	r2,-60(fp)
 20030a8:	1000031e 	bne	r2,zero,20030b8 <task3+0x41c>
 20030ac:	e0bfe617 	ldw	r2,-104(fp)
 20030b0:	10800017 	ldw	r2,0(r2)
 20030b4:	e0bff115 	stw	r2,-60(fp)
				int *vector_y = (int *) OSMboxPend(MailBox2, 100, &err);
 20030b8:	d0a78c17 	ldw	r2,-25040(gp)
 20030bc:	e0ffee04 	addi	r3,fp,-72
 20030c0:	180d883a 	mov	r6,r3
 20030c4:	01401904 	movi	r5,100
 20030c8:	1009883a 	mov	r4,r2
 20030cc:	201b99c0 	call	201b99c <OSMboxPend>
 20030d0:	e0bfe715 	stw	r2,-100(fp)
				if(err == OS_ERR_TIMEOUT && dir_y == 0) data_valid_from_task1 = 1;
 20030d4:	e0bfee03 	ldbu	r2,-72(fp)
 20030d8:	10803fcc 	andi	r2,r2,255
 20030dc:	10800298 	cmpnei	r2,r2,10
 20030e0:	1000051e 	bne	r2,zero,20030f8 <task3+0x45c>
 20030e4:	e0bff217 	ldw	r2,-56(fp)
 20030e8:	1000031e 	bne	r2,zero,20030f8 <task3+0x45c>
 20030ec:	00800044 	movi	r2,1
 20030f0:	e0bfe115 	stw	r2,-124(fp)
 20030f4:	00000806 	br	2003118 <task3+0x47c>
				else if(err == OS_ERR_NONE && dir_y == 0) dir_y = *vector_y;
 20030f8:	e0bfee03 	ldbu	r2,-72(fp)
 20030fc:	10803fcc 	andi	r2,r2,255
 2003100:	1000051e 	bne	r2,zero,2003118 <task3+0x47c>
 2003104:	e0bff217 	ldw	r2,-56(fp)
 2003108:	1000031e 	bne	r2,zero,2003118 <task3+0x47c>
 200310c:	e0bfe717 	ldw	r2,-100(fp)
 2003110:	10800017 	ldw	r2,0(r2)
 2003114:	e0bff215 	stw	r2,-56(fp)
				int *effect_x = (int *) OSMboxPend(MailBox10, 100, &err);
 2003118:	d0a78b17 	ldw	r2,-25044(gp)
 200311c:	e0ffee04 	addi	r3,fp,-72
 2003120:	180d883a 	mov	r6,r3
 2003124:	01401904 	movi	r5,100
 2003128:	1009883a 	mov	r4,r2
 200312c:	201b99c0 	call	201b99c <OSMboxPend>
 2003130:	e0bfe815 	stw	r2,-96(fp)
				if(err == OS_ERR_TIMEOUT && ef_x == 0) data_valid_from_task1 = 1;
 2003134:	e0bfee03 	ldbu	r2,-72(fp)
 2003138:	10803fcc 	andi	r2,r2,255
 200313c:	10800298 	cmpnei	r2,r2,10
 2003140:	1000051e 	bne	r2,zero,2003158 <task3+0x4bc>
 2003144:	e0bff317 	ldw	r2,-52(fp)
 2003148:	1000031e 	bne	r2,zero,2003158 <task3+0x4bc>
 200314c:	00800044 	movi	r2,1
 2003150:	e0bfe115 	stw	r2,-124(fp)
 2003154:	00000806 	br	2003178 <task3+0x4dc>
				else if(err == OS_ERR_NONE && ef_x == 0) ef_x = *effect_x;
 2003158:	e0bfee03 	ldbu	r2,-72(fp)
 200315c:	10803fcc 	andi	r2,r2,255
 2003160:	1000051e 	bne	r2,zero,2003178 <task3+0x4dc>
 2003164:	e0bff317 	ldw	r2,-52(fp)
 2003168:	1000031e 	bne	r2,zero,2003178 <task3+0x4dc>
 200316c:	e0bfe817 	ldw	r2,-96(fp)
 2003170:	10800017 	ldw	r2,0(r2)
 2003174:	e0bff315 	stw	r2,-52(fp)
				int *effect_y = (int *) OSMboxPend(MailBox11, 100, &err);
 2003178:	d0a79117 	ldw	r2,-25020(gp)
 200317c:	e0ffee04 	addi	r3,fp,-72
 2003180:	180d883a 	mov	r6,r3
 2003184:	01401904 	movi	r5,100
 2003188:	1009883a 	mov	r4,r2
 200318c:	201b99c0 	call	201b99c <OSMboxPend>
 2003190:	e0bfe915 	stw	r2,-92(fp)
				if(err == OS_ERR_TIMEOUT && ef_y == 0) data_valid_from_task1 = 1;
 2003194:	e0bfee03 	ldbu	r2,-72(fp)
 2003198:	10803fcc 	andi	r2,r2,255
 200319c:	10800298 	cmpnei	r2,r2,10
 20031a0:	1000051e 	bne	r2,zero,20031b8 <task3+0x51c>
 20031a4:	e0bff417 	ldw	r2,-48(fp)
 20031a8:	1000031e 	bne	r2,zero,20031b8 <task3+0x51c>
 20031ac:	00800044 	movi	r2,1
 20031b0:	e0bfe115 	stw	r2,-124(fp)
 20031b4:	00000806 	br	20031d8 <task3+0x53c>
				else if(err == OS_ERR_NONE && ef_y == 0) ef_y = *effect_y;
 20031b8:	e0bfee03 	ldbu	r2,-72(fp)
 20031bc:	10803fcc 	andi	r2,r2,255
 20031c0:	1000051e 	bne	r2,zero,20031d8 <task3+0x53c>
 20031c4:	e0bff417 	ldw	r2,-48(fp)
 20031c8:	1000031e 	bne	r2,zero,20031d8 <task3+0x53c>
 20031cc:	e0bfe917 	ldw	r2,-92(fp)
 20031d0:	10800017 	ldw	r2,0(r2)
 20031d4:	e0bff415 	stw	r2,-48(fp)

				if(!data_valid_from_task1){
 20031d8:	e0bfe117 	ldw	r2,-124(fp)
 20031dc:	1000f41e 	bne	r2,zero,20035b0 <task3+0x914>

					OSMboxPost(MailBox4, &dir_x);
 20031e0:	d0a78f17 	ldw	r2,-25028(gp)
 20031e4:	e0fff104 	addi	r3,fp,-60
 20031e8:	180b883a 	mov	r5,r3
 20031ec:	1009883a 	mov	r4,r2
 20031f0:	201bd3c0 	call	201bd3c <OSMboxPost>
					OSMboxPost(MailBox5, &dir_y);
 20031f4:	d0a78917 	ldw	r2,-25052(gp)
 20031f8:	e0fff204 	addi	r3,fp,-56
 20031fc:	180b883a 	mov	r5,r3
 2003200:	1009883a 	mov	r4,r2
 2003204:	201bd3c0 	call	201bd3c <OSMboxPost>
					OSMboxPost(MailBox12, &ef_x);
 2003208:	d0a78d17 	ldw	r2,-25036(gp)
 200320c:	e0fff304 	addi	r3,fp,-52
 2003210:	180b883a 	mov	r5,r3
 2003214:	1009883a 	mov	r4,r2
 2003218:	201bd3c0 	call	201bd3c <OSMboxPost>
					OSMboxPost(MailBox13, &ef_y);
 200321c:	d0a78617 	ldw	r2,-25064(gp)
 2003220:	e0fff404 	addi	r3,fp,-48
 2003224:	180b883a 	mov	r5,r3
 2003228:	1009883a 	mov	r4,r2
 200322c:	201bd3c0 	call	201bd3c <OSMboxPost>
					OSMboxPost(MailBox7, &game_finish);
 2003230:	d0a79017 	ldw	r2,-25024(gp)
 2003234:	e0ffef04 	addi	r3,fp,-68
 2003238:	180b883a 	mov	r5,r3
 200323c:	1009883a 	mov	r4,r2
 2003240:	201bd3c0 	call	201bd3c <OSMboxPost>

					OSMboxPost(MailBox8, &number_of_ball); //transmit nbr ball to task 2
 2003244:	d0a78e17 	ldw	r2,-25032(gp)
 2003248:	e0fff004 	addi	r3,fp,-64
 200324c:	180b883a 	mov	r5,r3
 2003250:	1009883a 	mov	r4,r2
 2003254:	201bd3c0 	call	201bd3c <OSMboxPost>

					DEBUG_PRINT("[Task 3] Send value to the SPI\n");
 2003258:	010080b4 	movhi	r4,514
 200325c:	210ac204 	addi	r4,r4,11016
 2003260:	200a1b00 	call	200a1b0 <puts>
					IOWR(MEM_NIOS_PI_BASE, 4, number_of_ball);
 2003264:	e0fff017 	ldw	r3,-64(fp)
 2003268:	00800834 	movhi	r2,32
 200326c:	10800404 	addi	r2,r2,16
 2003270:	10c00035 	stwio	r3,0(r2)
					IOWR(MEM_NIOS_PI_BASE, 5, compress(dir_x, dir_y));
 2003274:	e0bff117 	ldw	r2,-60(fp)
 2003278:	e0fff217 	ldw	r3,-56(fp)
 200327c:	180b883a 	mov	r5,r3
 2003280:	1009883a 	mov	r4,r2
 2003284:	20002940 	call	2000294 <compress>
 2003288:	1007883a 	mov	r3,r2
 200328c:	00800834 	movhi	r2,32
 2003290:	10800504 	addi	r2,r2,20
 2003294:	10c00035 	stwio	r3,0(r2)
					IOWR(MEM_NIOS_PI_BASE, 6, compress(ef_x, ef_y));
 2003298:	e0bff317 	ldw	r2,-52(fp)
 200329c:	e0fff417 	ldw	r3,-48(fp)
 20032a0:	180b883a 	mov	r5,r3
 20032a4:	1009883a 	mov	r4,r2
 20032a8:	20002940 	call	2000294 <compress>
 20032ac:	1007883a 	mov	r3,r2
 20032b0:	00800834 	movhi	r2,32
 20032b4:	10800604 	addi	r2,r2,24
 20032b8:	10c00035 	stwio	r3,0(r2)
					IOWR(MEM_NIOS_PI_BASE, 3, 1); //*isSend = 1; // value are available
 20032bc:	00c00044 	movi	r3,1
 20032c0:	00800834 	movhi	r2,32
 20032c4:	10800304 	addi	r2,r2,12
 20032c8:	10c00035 	stwio	r3,0(r2)

					//opt_task1 = OS_FLAG_CLR;
					//OSFlagPost(isActiveFlagGrp, IS_ACTIVE, opt_task1, &err);
					OSFlagPend(AnimationFlagGrp, ANIMATION, OS_FLAG_WAIT_CLR_ALL, 0,
 20032cc:	d0e78817 	ldw	r3,-25056(gp)
 20032d0:	e0bfee04 	addi	r2,fp,-72
 20032d4:	d8800015 	stw	r2,0(sp)
 20032d8:	000f883a 	mov	r7,zero
 20032dc:	000d883a 	mov	r6,zero
 20032e0:	01400044 	movi	r5,1
 20032e4:	1809883a 	mov	r4,r3
 20032e8:	201a7a80 	call	201a7a8 <OSFlagPend>
							&err);

					int *nbr_ball = (int *) OSMboxPend(MailBox6, 0, &err);
 20032ec:	d0a78517 	ldw	r2,-25068(gp)
 20032f0:	e0ffee04 	addi	r3,fp,-72
 20032f4:	180d883a 	mov	r6,r3
 20032f8:	000b883a 	mov	r5,zero
 20032fc:	1009883a 	mov	r4,r2
 2003300:	201b99c0 	call	201b99c <OSMboxPend>
 2003304:	e0bfea15 	stw	r2,-88(fp)
					number_of_ball = *nbr_ball;
 2003308:	e0bfea17 	ldw	r2,-88(fp)
 200330c:	10800017 	ldw	r2,0(r2)
 2003310:	e0bff015 	stw	r2,-64(fp)
					DEBUG_PRINT("[Task 3] Number of ball : %i\n", number_of_ball);
 2003314:	e0bff017 	ldw	r2,-64(fp)
 2003318:	100b883a 	mov	r5,r2
 200331c:	010080b4 	movhi	r4,514
 2003320:	210aca04 	addi	r4,r4,11048
 2003324:	200a0300 	call	200a030 <printf>
					activePlayer = ID2;
 2003328:	00800044 	movi	r2,1
 200332c:	e0bfdb15 	stw	r2,-148(fp)
					dir_x = 0;
 2003330:	e03ff115 	stw	zero,-60(fp)
					dir_y = 0;
 2003334:	e03ff215 	stw	zero,-56(fp)
					ef_x = 0;
 2003338:	e03ff315 	stw	zero,-52(fp)
					ef_y = 0;
 200333c:	e03ff415 	stw	zero,-48(fp)
					set_send = 0;
 2003340:	e03fe215 	stw	zero,-120(fp)

					game_finish = number_of_ball == 9;
 2003344:	e0bff017 	ldw	r2,-64(fp)
 2003348:	10800260 	cmpeqi	r2,r2,9
 200334c:	10803fcc 	andi	r2,r2,255
 2003350:	e0bfef15 	stw	r2,-68(fp)
					if (game_finish == 1) {
 2003354:	e0bfef17 	ldw	r2,-68(fp)
 2003358:	10800058 	cmpnei	r2,r2,1
 200335c:	1000081e 	bne	r2,zero,2003380 <task3+0x6e4>
						DEBUG_PRINT("game finish\n");
 2003360:	010080b4 	movhi	r4,514
 2003364:	210ad204 	addi	r4,r4,11080
 2003368:	200a1b00 	call	200a1b0 <puts>
						IOWR(MEM_NIOS_PI_BASE, 14, 1); // game finish
 200336c:	00c00044 	movi	r3,1
 2003370:	00800834 	movhi	r2,32
 2003374:	10800e04 	addi	r2,r2,56
 2003378:	10c00035 	stwio	r3,0(r2)
 200337c:	00000406 	br	2003390 <task3+0x6f4>
					} else {
						IOWR(MEM_NIOS_PI_BASE, 14, 0); // game not finish
 2003380:	0007883a 	mov	r3,zero
 2003384:	00800834 	movhi	r2,32
 2003388:	10800e04 	addi	r2,r2,56
 200338c:	10c00035 	stwio	r3,0(r2)
					}
					IOWR(MEM_NIOS_PI_BASE, 13, 1); // turn finish
 2003390:	00c00044 	movi	r3,1
 2003394:	00800834 	movhi	r2,32
 2003398:	10800d04 	addi	r2,r2,52
 200339c:	10c00035 	stwio	r3,0(r2)
				IOWR(MTL_IP_BASE, 12, 1);
			} else {
				IOWR(MTL_IP_BASE, 12, 0);
			}
			if (activePlayer == ID1 && !IORD(MEM_NIOS_PI_BASE, 7)
					&& !time_out) {
 20033a0:	00008306 	br	20035b0 <task3+0x914>
						IOWR(MEM_NIOS_PI_BASE, 14, 0); // game not finish
					}
					IOWR(MEM_NIOS_PI_BASE, 13, 1); // turn finish
				}

			} else if (activePlayer == ID2 && IORD(MEM_NIOS_PI_BASE, 7)
 20033a4:	e0bfdb17 	ldw	r2,-148(fp)
 20033a8:	10800058 	cmpnei	r2,r2,1
 20033ac:	1000801e 	bne	r2,zero,20035b0 <task3+0x914>
 20033b0:	00800834 	movhi	r2,32
 20033b4:	10800704 	addi	r2,r2,28
 20033b8:	10800037 	ldwio	r2,0(r2)
 20033bc:	10007c26 	beq	r2,zero,20035b0 <task3+0x914>
					&& !time_out) {
 20033c0:	e0bfe017 	ldw	r2,-128(fp)
 20033c4:	10007a1e 	bne	r2,zero,20035b0 <task3+0x914>
				DEBUG_PRINT(" -- network shoot : %d --\n",time_out);
 20033c8:	e17fe017 	ldw	r5,-128(fp)
 20033cc:	010080b4 	movhi	r4,514
 20033d0:	210ad504 	addi	r4,r4,11092
 20033d4:	200a0300 	call	200a030 <printf>

				int dir = (int) (IORD(MEM_NIOS_PI_BASE, 9));
 20033d8:	00800834 	movhi	r2,32
 20033dc:	10800904 	addi	r2,r2,36
 20033e0:	10800037 	ldwio	r2,0(r2)
 20033e4:	e0bfeb15 	stw	r2,-84(fp)
				int effect = (int) (IORD(MEM_NIOS_PI_BASE, 10));
 20033e8:	00800834 	movhi	r2,32
 20033ec:	10800a04 	addi	r2,r2,40
 20033f0:	10800037 	ldwio	r2,0(r2)
 20033f4:	e0bfec15 	stw	r2,-80(fp)

				int x = x_uncompress(dir);
 20033f8:	e13feb17 	ldw	r4,-84(fp)
 20033fc:	20003300 	call	2000330 <x_uncompress>
 2003400:	e0bffb15 	stw	r2,-20(fp)
				int y = y_uncompress(dir);
 2003404:	e13feb17 	ldw	r4,-84(fp)
 2003408:	20003840 	call	2000384 <y_uncompress>
 200340c:	e0bffc15 	stw	r2,-16(fp)

				int effect_x = x_uncompress(effect);
 2003410:	e13fec17 	ldw	r4,-80(fp)
 2003414:	20003300 	call	2000330 <x_uncompress>
 2003418:	e0bffd15 	stw	r2,-12(fp)
				int effect_y = y_uncompress(effect);
 200341c:	e13fec17 	ldw	r4,-80(fp)
 2003420:	20003840 	call	2000384 <y_uncompress>
 2003424:	e0bffe15 	stw	r2,-8(fp)

				DEBUG_PRINT("[Task 3] dir : %x \t effect : %x\n", dir, effect);
 2003428:	e1bfec17 	ldw	r6,-80(fp)
 200342c:	e17feb17 	ldw	r5,-84(fp)
 2003430:	010080b4 	movhi	r4,514
 2003434:	210adc04 	addi	r4,r4,11120
 2003438:	200a0300 	call	200a030 <printf>
				DEBUG_PRINT("[Task 3] %x - %x \t effect : (%d, %d)\n", x, y,
 200343c:	e0fffb17 	ldw	r3,-20(fp)
 2003440:	e13ffc17 	ldw	r4,-16(fp)
 2003444:	e17ffd17 	ldw	r5,-12(fp)
 2003448:	e0bffe17 	ldw	r2,-8(fp)
 200344c:	d8800015 	stw	r2,0(sp)
 2003450:	280f883a 	mov	r7,r5
 2003454:	200d883a 	mov	r6,r4
 2003458:	180b883a 	mov	r5,r3
 200345c:	010080b4 	movhi	r4,514
 2003460:	210ae504 	addi	r4,r4,11156
 2003464:	200a0300 	call	200a030 <printf>
						effect_x, effect_y);

				OSMboxPost(MailBox4, &x);
 2003468:	d0a78f17 	ldw	r2,-25028(gp)
 200346c:	e0fffb04 	addi	r3,fp,-20
 2003470:	180b883a 	mov	r5,r3
 2003474:	1009883a 	mov	r4,r2
 2003478:	201bd3c0 	call	201bd3c <OSMboxPost>
				OSMboxPost(MailBox5, &y);
 200347c:	d0a78917 	ldw	r2,-25052(gp)
 2003480:	e0fffc04 	addi	r3,fp,-16
 2003484:	180b883a 	mov	r5,r3
 2003488:	1009883a 	mov	r4,r2
 200348c:	201bd3c0 	call	201bd3c <OSMboxPost>
				OSMboxPost(MailBox7, &game_finish);
 2003490:	d0a79017 	ldw	r2,-25024(gp)
 2003494:	e0ffef04 	addi	r3,fp,-68
 2003498:	180b883a 	mov	r5,r3
 200349c:	1009883a 	mov	r4,r2
 20034a0:	201bd3c0 	call	201bd3c <OSMboxPost>
				OSMboxPost(MailBox8, &number_of_ball);
 20034a4:	d0a78e17 	ldw	r2,-25032(gp)
 20034a8:	e0fff004 	addi	r3,fp,-64
 20034ac:	180b883a 	mov	r5,r3
 20034b0:	1009883a 	mov	r4,r2
 20034b4:	201bd3c0 	call	201bd3c <OSMboxPost>
				OSMboxPost(MailBox12, &effect_x);
 20034b8:	d0a78d17 	ldw	r2,-25036(gp)
 20034bc:	e0fffd04 	addi	r3,fp,-12
 20034c0:	180b883a 	mov	r5,r3
 20034c4:	1009883a 	mov	r4,r2
 20034c8:	201bd3c0 	call	201bd3c <OSMboxPost>
				OSMboxPost(MailBox13, &effect_y);
 20034cc:	d0a78617 	ldw	r2,-25064(gp)
 20034d0:	e0fffe04 	addi	r3,fp,-8
 20034d4:	180b883a 	mov	r5,r3
 20034d8:	1009883a 	mov	r4,r2
 20034dc:	201bd3c0 	call	201bd3c <OSMboxPost>

				OSFlagPend(AnimationFlagGrp, ANIMATION, OS_FLAG_WAIT_CLR_ALL, 0,
 20034e0:	d0e78817 	ldw	r3,-25056(gp)
 20034e4:	e0bfee04 	addi	r2,fp,-72
 20034e8:	d8800015 	stw	r2,0(sp)
 20034ec:	000f883a 	mov	r7,zero
 20034f0:	000d883a 	mov	r6,zero
 20034f4:	01400044 	movi	r5,1
 20034f8:	1809883a 	mov	r4,r3
 20034fc:	201a7a80 	call	201a7a8 <OSFlagPend>
						&err);

				IOWR(MEM_NIOS_PI_BASE, 7, 0);
 2003500:	0007883a 	mov	r3,zero
 2003504:	00800834 	movhi	r2,32
 2003508:	10800704 	addi	r2,r2,28
 200350c:	10c00035 	stwio	r3,0(r2)
				activePlayer = ID1;
 2003510:	00800084 	movi	r2,2
 2003514:	e0bfdb15 	stw	r2,-148(fp)
				int *nbr_ball = (int *) OSMboxPend(MailBox6, 0, &err);
 2003518:	d0a78517 	ldw	r2,-25068(gp)
 200351c:	e0ffee04 	addi	r3,fp,-72
 2003520:	180d883a 	mov	r6,r3
 2003524:	000b883a 	mov	r5,zero
 2003528:	1009883a 	mov	r4,r2
 200352c:	201b99c0 	call	201b99c <OSMboxPend>
 2003530:	e0bfed15 	stw	r2,-76(fp)
				number_of_ball = *nbr_ball;
 2003534:	e0bfed17 	ldw	r2,-76(fp)
 2003538:	10800017 	ldw	r2,0(r2)
 200353c:	e0bff015 	stw	r2,-64(fp)
				//DEBUG_PRINT("[Task 3] Hello\n");
				DEBUG_PRINT("[Task 3] Number of ball : %i\n", number_of_ball);
 2003540:	e0bff017 	ldw	r2,-64(fp)
 2003544:	100b883a 	mov	r5,r2
 2003548:	010080b4 	movhi	r4,514
 200354c:	210aca04 	addi	r4,r4,11048
 2003550:	200a0300 	call	200a030 <printf>

				game_finish = number_of_ball == 9;
 2003554:	e0bff017 	ldw	r2,-64(fp)
 2003558:	10800260 	cmpeqi	r2,r2,9
 200355c:	10803fcc 	andi	r2,r2,255
 2003560:	e0bfef15 	stw	r2,-68(fp)
				if (game_finish == 1) {
 2003564:	e0bfef17 	ldw	r2,-68(fp)
 2003568:	10800058 	cmpnei	r2,r2,1
 200356c:	1000081e 	bne	r2,zero,2003590 <task3+0x8f4>
					DEBUG_PRINT("game finish\n");
 2003570:	010080b4 	movhi	r4,514
 2003574:	210ad204 	addi	r4,r4,11080
 2003578:	200a1b00 	call	200a1b0 <puts>
					IOWR(MEM_NIOS_PI_BASE, 14, 1); // game finish
 200357c:	00c00044 	movi	r3,1
 2003580:	00800834 	movhi	r2,32
 2003584:	10800e04 	addi	r2,r2,56
 2003588:	10c00035 	stwio	r3,0(r2)
 200358c:	00000406 	br	20035a0 <task3+0x904>
				} else {
					IOWR(MEM_NIOS_PI_BASE, 14, 0); // game not finish
 2003590:	0007883a 	mov	r3,zero
 2003594:	00800834 	movhi	r2,32
 2003598:	10800e04 	addi	r2,r2,56
 200359c:	10c00035 	stwio	r3,0(r2)
				}
				IOWR(MEM_NIOS_PI_BASE, 13, 1); // turn finish
 20035a0:	00c00044 	movi	r3,1
 20035a4:	00800834 	movhi	r2,32
 20035a8:	10800d04 	addi	r2,r2,52
 20035ac:	10c00035 	stwio	r3,0(r2)

		activePlayer = first_player;
		game_finish = 0;
		DEBUG_PRINT("[Task 3] the game can start\n");
		IOWR(MTL_IP_BASE, 13, 0);
		while (!game_finish && !time_out){
 20035b0:	e0bfef17 	ldw	r2,-68(fp)
 20035b4:	1000021e 	bne	r2,zero,20035c0 <task3+0x924>
 20035b8:	e0bfe017 	ldw	r2,-128(fp)
 20035bc:	103e7b26 	beq	r2,zero,2002fac <task3+0x310>
					IOWR(MEM_NIOS_PI_BASE, 14, 0); // game not finish
				}
				IOWR(MEM_NIOS_PI_BASE, 13, 1); // turn finish
			}
		}
		int a = 0;
 20035c0:	e03ff515 	stw	zero,-44(fp)
		int b = 0;
 20035c4:	e03ff615 	stw	zero,-40(fp)
		int c = 0;
 20035c8:	e03ff715 	stw	zero,-36(fp)
		int d = 0;
 20035cc:	e03ff815 	stw	zero,-32(fp)
		int e = 0;
 20035d0:	e03ff915 	stw	zero,-28(fp)
		int f = game_finish || time_out;
 20035d4:	e0bfef17 	ldw	r2,-68(fp)
 20035d8:	1000021e 	bne	r2,zero,20035e4 <task3+0x948>
 20035dc:	e0bfe017 	ldw	r2,-128(fp)
 20035e0:	10000226 	beq	r2,zero,20035ec <task3+0x950>
 20035e4:	00800044 	movi	r2,1
 20035e8:	00000106 	br	20035f0 <task3+0x954>
 20035ec:	0005883a 	mov	r2,zero
 20035f0:	e0bffa15 	stw	r2,-24(fp)
		OSMboxPost(MailBox4, &a);
 20035f4:	d0a78f17 	ldw	r2,-25028(gp)
 20035f8:	e0fff504 	addi	r3,fp,-44
 20035fc:	180b883a 	mov	r5,r3
 2003600:	1009883a 	mov	r4,r2
 2003604:	201bd3c0 	call	201bd3c <OSMboxPost>
		OSMboxPost(MailBox5, &b);
 2003608:	d0a78917 	ldw	r2,-25052(gp)
 200360c:	e0fff604 	addi	r3,fp,-40
 2003610:	180b883a 	mov	r5,r3
 2003614:	1009883a 	mov	r4,r2
 2003618:	201bd3c0 	call	201bd3c <OSMboxPost>
		OSMboxPost(MailBox7, &f);
 200361c:	d0a79017 	ldw	r2,-25024(gp)
 2003620:	e0fffa04 	addi	r3,fp,-24
 2003624:	180b883a 	mov	r5,r3
 2003628:	1009883a 	mov	r4,r2
 200362c:	201bd3c0 	call	201bd3c <OSMboxPost>
		OSMboxPost(MailBox8, &c);
 2003630:	d0a78e17 	ldw	r2,-25032(gp)
 2003634:	e0fff704 	addi	r3,fp,-36
 2003638:	180b883a 	mov	r5,r3
 200363c:	1009883a 	mov	r4,r2
 2003640:	201bd3c0 	call	201bd3c <OSMboxPost>
		OSMboxPost(MailBox12, &d);
 2003644:	d0a78d17 	ldw	r2,-25036(gp)
 2003648:	e0fff804 	addi	r3,fp,-32
 200364c:	180b883a 	mov	r5,r3
 2003650:	1009883a 	mov	r4,r2
 2003654:	201bd3c0 	call	201bd3c <OSMboxPost>
		OSMboxPost(MailBox13, &e);
 2003658:	d0a78617 	ldw	r2,-25064(gp)
 200365c:	e0fff904 	addi	r3,fp,-28
 2003660:	180b883a 	mov	r5,r3
 2003664:	1009883a 	mov	r4,r2
 2003668:	201bd3c0 	call	201bd3c <OSMboxPost>
	}
 200366c:	003dc406 	br	2002d80 <task3+0xe4>

02003670 <task4>:

}

void task4(void* pdata) {
 2003670:	defff704 	addi	sp,sp,-36
 2003674:	dfc00815 	stw	ra,32(sp)
 2003678:	df000715 	stw	fp,28(sp)
 200367c:	df000704 	addi	fp,sp,28
 2003680:	e13fff15 	stw	r4,-4(fp)

	volatile int * MTL_controller = (int *) MTL_IP_BASE;
 2003684:	008000b4 	movhi	r2,2
 2003688:	e0bffc15 	stw	r2,-16(fp)

	int count = 0;
 200368c:	e03ffa15 	stw	zero,-24(fp)
	int count_old = 0;
 2003690:	e03ffd15 	stw	zero,-12(fp)

	int gesture_detected = 0;
 2003694:	e03ffb15 	stw	zero,-20(fp)

	INT8U err;
	//INT8U opt_task4;

	while (1) {
		OSFlagPend(ActivateTask4Grp, ACTIVATE_TASK4,
 2003698:	d0e78a17 	ldw	r3,-25048(gp)
 200369c:	e0bffe04 	addi	r2,fp,-8
 20036a0:	d8800015 	stw	r2,0(sp)
 20036a4:	000f883a 	mov	r7,zero
 20036a8:	01802084 	movi	r6,130
 20036ac:	01400044 	movi	r5,1
 20036b0:	1809883a 	mov	r4,r3
 20036b4:	201a7a80 	call	201a7a8 <OSFlagPend>
				OS_FLAG_WAIT_SET_ALL + OS_FLAG_CONSUME, 0, &err); // wait for a flag and consume it
		while (!gesture_detected) {
 20036b8:	00001006 	br	20036fc <task4+0x8c>
			count_old = count;
 20036bc:	e0bffa17 	ldw	r2,-24(fp)
 20036c0:	e0bffd15 	stw	r2,-12(fp)
			count = IORD(MTL_controller, 10); // rcupre le nombre de doigts prsent sur l'cran
 20036c4:	e0bffc17 	ldw	r2,-16(fp)
 20036c8:	10800a04 	addi	r2,r2,40
 20036cc:	10800037 	ldwio	r2,0(r2)
 20036d0:	e0bffa15 	stw	r2,-24(fp)
			if (count == 1 && count_old == 0) {
 20036d4:	e0bffa17 	ldw	r2,-24(fp)
 20036d8:	10800058 	cmpnei	r2,r2,1
 20036dc:	1000071e 	bne	r2,zero,20036fc <task4+0x8c>
 20036e0:	e0bffd17 	ldw	r2,-12(fp)
 20036e4:	1000051e 	bne	r2,zero,20036fc <task4+0x8c>
				DEBUG_PRINT("[Task 4] Player touch the screen\n");
 20036e8:	010080b4 	movhi	r4,514
 20036ec:	210aef04 	addi	r4,r4,11196
 20036f0:	200a1b00 	call	200a1b0 <puts>
				gesture_detected = 1;
 20036f4:	00800044 	movi	r2,1
 20036f8:	e0bffb15 	stw	r2,-20(fp)
	//INT8U opt_task4;

	while (1) {
		OSFlagPend(ActivateTask4Grp, ACTIVATE_TASK4,
				OS_FLAG_WAIT_SET_ALL + OS_FLAG_CONSUME, 0, &err); // wait for a flag and consume it
		while (!gesture_detected) {
 20036fc:	e0bffb17 	ldw	r2,-20(fp)
 2003700:	103fee26 	beq	r2,zero,20036bc <task4+0x4c>
			if (count == 1 && count_old == 0) {
				DEBUG_PRINT("[Task 4] Player touch the screen\n");
				gesture_detected = 1;
			}
		}
		gesture_detected = 0;
 2003704:	e03ffb15 	stw	zero,-20(fp)
		OSFlagPost(StartGameGrp, START_THE_GAME, OS_FLAG_SET, &err);
 2003708:	d0a79417 	ldw	r2,-25008(gp)
 200370c:	e0fffe04 	addi	r3,fp,-8
 2003710:	180f883a 	mov	r7,r3
 2003714:	01800044 	movi	r6,1
 2003718:	01400044 	movi	r5,1
 200371c:	1009883a 	mov	r4,r2
 2003720:	201adc00 	call	201adc0 <OSFlagPost>
		OSTimeDlyHMSM(0, 0, 0, 500);
 2003724:	01c07d04 	movi	r7,500
 2003728:	000d883a 	mov	r6,zero
 200372c:	000b883a 	mov	r5,zero
 2003730:	0009883a 	mov	r4,zero
 2003734:	201fbe00 	call	201fbe0 <OSTimeDlyHMSM>
	}
 2003738:	003fd706 	br	2003698 <task4+0x28>

0200373c <main>:

}

/* The main function creates two task and starts multi-tasking */
int main(void) {
 200373c:	defff804 	addi	sp,sp,-32
 2003740:	dfc00715 	stw	ra,28(sp)
 2003744:	df000615 	stw	fp,24(sp)
 2003748:	df000604 	addi	fp,sp,24
	INT8U err;

	IOWR(LED_BASE,0,1);
 200374c:	00c00044 	movi	r3,1
 2003750:	00800834 	movhi	r2,32
 2003754:	1080c004 	addi	r2,r2,768
 2003758:	10c00035 	stwio	r3,0(r2)

	MailBox1 = OSMboxCreate(NULL);
 200375c:	0009883a 	mov	r4,zero
 2003760:	201b6880 	call	201b688 <OSMboxCreate>
 2003764:	d0a79215 	stw	r2,-25016(gp)
	MailBox2 = OSMboxCreate(NULL);
 2003768:	0009883a 	mov	r4,zero
 200376c:	201b6880 	call	201b688 <OSMboxCreate>
 2003770:	d0a78c15 	stw	r2,-25040(gp)
	MailBox3 = OSMboxCreate(NULL);
 2003774:	0009883a 	mov	r4,zero
 2003778:	201b6880 	call	201b688 <OSMboxCreate>
 200377c:	d0a78715 	stw	r2,-25060(gp)

	MailBox4 = OSMboxCreate(NULL);
 2003780:	0009883a 	mov	r4,zero
 2003784:	201b6880 	call	201b688 <OSMboxCreate>
 2003788:	d0a78f15 	stw	r2,-25028(gp)
	MailBox5 = OSMboxCreate(NULL);
 200378c:	0009883a 	mov	r4,zero
 2003790:	201b6880 	call	201b688 <OSMboxCreate>
 2003794:	d0a78915 	stw	r2,-25052(gp)
	MailBox6 = OSMboxCreate(NULL);
 2003798:	0009883a 	mov	r4,zero
 200379c:	201b6880 	call	201b688 <OSMboxCreate>
 20037a0:	d0a78515 	stw	r2,-25068(gp)

	MailBox7 = OSMboxCreate(NULL);
 20037a4:	0009883a 	mov	r4,zero
 20037a8:	201b6880 	call	201b688 <OSMboxCreate>
 20037ac:	d0a79015 	stw	r2,-25024(gp)
	MailBox8 = OSMboxCreate(NULL);
 20037b0:	0009883a 	mov	r4,zero
 20037b4:	201b6880 	call	201b688 <OSMboxCreate>
 20037b8:	d0a78e15 	stw	r2,-25032(gp)
	MailBox9 = OSMboxCreate(NULL);
 20037bc:	0009883a 	mov	r4,zero
 20037c0:	201b6880 	call	201b688 <OSMboxCreate>
 20037c4:	d0a78415 	stw	r2,-25072(gp)

	MailBox10 = OSMboxCreate(NULL);
 20037c8:	0009883a 	mov	r4,zero
 20037cc:	201b6880 	call	201b688 <OSMboxCreate>
 20037d0:	d0a78b15 	stw	r2,-25044(gp)
	MailBox11 = OSMboxCreate(NULL);
 20037d4:	0009883a 	mov	r4,zero
 20037d8:	201b6880 	call	201b688 <OSMboxCreate>
 20037dc:	d0a79115 	stw	r2,-25020(gp)
	MailBox12 = OSMboxCreate(NULL);
 20037e0:	0009883a 	mov	r4,zero
 20037e4:	201b6880 	call	201b688 <OSMboxCreate>
 20037e8:	d0a78d15 	stw	r2,-25036(gp)
	MailBox13 = OSMboxCreate(NULL);
 20037ec:	0009883a 	mov	r4,zero
 20037f0:	201b6880 	call	201b688 <OSMboxCreate>
 20037f4:	d0a78615 	stw	r2,-25064(gp)

	isActiveFlagGrp = OSFlagCreate(0, &err);
 20037f8:	e17fff04 	addi	r5,fp,-4
 20037fc:	0009883a 	mov	r4,zero
 2003800:	201a1e40 	call	201a1e4 <OSFlagCreate>
 2003804:	d0a79315 	stw	r2,-25012(gp)
	AnimationFlagGrp = OSFlagCreate(0, &err);
 2003808:	e17fff04 	addi	r5,fp,-4
 200380c:	0009883a 	mov	r4,zero
 2003810:	201a1e40 	call	201a1e4 <OSFlagCreate>
 2003814:	d0a78815 	stw	r2,-25056(gp)
	ActivateTask4Grp = OSFlagCreate(0, &err);
 2003818:	e17fff04 	addi	r5,fp,-4
 200381c:	0009883a 	mov	r4,zero
 2003820:	201a1e40 	call	201a1e4 <OSFlagCreate>
 2003824:	d0a78a15 	stw	r2,-25048(gp)
	StartGameGrp = OSFlagCreate(0, &err);
 2003828:	e17fff04 	addi	r5,fp,-4
 200382c:	0009883a 	mov	r4,zero
 2003830:	201a1e40 	call	201a1e4 <OSFlagCreate>
 2003834:	d0a79415 	stw	r2,-25008(gp)

	accel_spi = alt_up_accelerometer_spi_open_dev(accel_name);
 2003838:	d0a00017 	ldw	r2,-32768(gp)
 200383c:	1009883a 	mov	r4,r2
 2003840:	2020eb00 	call	2020eb0 <alt_up_accelerometer_spi_open_dev>
 2003844:	d0a78315 	stw	r2,-25076(gp)
	if (accel_spi == NULL) {
 2003848:	d0a78317 	ldw	r2,-25076(gp)
 200384c:	1000031e 	bne	r2,zero,200385c <main+0x120>
		printf("Accelerometer device not found.\n");
 2003850:	010080b4 	movhi	r4,514
 2003854:	210af804 	addi	r4,r4,11232
 2003858:	200a1b00 	call	200a1b0 <puts>
	}

	OSTaskCreateExt(task1,
 200385c:	d8000415 	stw	zero,16(sp)
 2003860:	d8000315 	stw	zero,12(sp)
 2003864:	00820004 	movi	r2,2048
 2003868:	d8800215 	stw	r2,8(sp)
 200386c:	008080b4 	movhi	r2,514
 2003870:	109bc304 	addi	r2,r2,28428
 2003874:	d8800115 	stw	r2,4(sp)
 2003878:	00800044 	movi	r2,1
 200387c:	d8800015 	stw	r2,0(sp)
 2003880:	01c00044 	movi	r7,1
 2003884:	018080f4 	movhi	r6,515
 2003888:	31a3c204 	addi	r6,r6,-28920
 200388c:	000b883a 	mov	r5,zero
 2003890:	01008034 	movhi	r4,512
 2003894:	2100f904 	addi	r4,r4,996
 2003898:	201ea0c0 	call	201ea0c <OSTaskCreateExt>
	TASK1_PRIORITY,
	TASK1_PRIORITY, task1_stk,
	TASK_STACKSIZE,
	NULL, 0);

	OSTaskCreateExt(task2,
 200389c:	d8000415 	stw	zero,16(sp)
 20038a0:	d8000315 	stw	zero,12(sp)
 20038a4:	00820004 	movi	r2,2048
 20038a8:	d8800215 	stw	r2,8(sp)
 20038ac:	008080f4 	movhi	r2,515
 20038b0:	10abc304 	addi	r2,r2,-20724
 20038b4:	d8800115 	stw	r2,4(sp)
 20038b8:	00800084 	movi	r2,2
 20038bc:	d8800015 	stw	r2,0(sp)
 20038c0:	01c00084 	movi	r7,2
 20038c4:	018080f4 	movhi	r6,515
 20038c8:	31b3c204 	addi	r6,r6,-12536
 20038cc:	000b883a 	mov	r5,zero
 20038d0:	01008034 	movhi	r4,512
 20038d4:	2101e904 	addi	r4,r4,1956
 20038d8:	201ea0c0 	call	201ea0c <OSTaskCreateExt>
	NULL, (void *) &task2_stk[TASK_STACKSIZE - 1],
	TASK2_PRIORITY,
	TASK2_PRIORITY, task2_stk,
	TASK_STACKSIZE,
	NULL, 0);
	OSTaskCreateExt(task3,
 20038dc:	d8000415 	stw	zero,16(sp)
 20038e0:	d8000315 	stw	zero,12(sp)
 20038e4:	00820004 	movi	r2,2048
 20038e8:	d8800215 	stw	r2,8(sp)
 20038ec:	008080f4 	movhi	r2,515
 20038f0:	10b3c304 	addi	r2,r2,-12532
 20038f4:	d8800115 	stw	r2,4(sp)
 20038f8:	008000c4 	movi	r2,3
 20038fc:	d8800015 	stw	r2,0(sp)
 2003900:	01c000c4 	movi	r7,3
 2003904:	018080f4 	movhi	r6,515
 2003908:	31bbc204 	addi	r6,r6,-4344
 200390c:	000b883a 	mov	r5,zero
 2003910:	01008034 	movhi	r4,512
 2003914:	210b2704 	addi	r4,r4,11420
 2003918:	201ea0c0 	call	201ea0c <OSTaskCreateExt>
	NULL, (void *) &task3_stk[TASK_STACKSIZE - 1],
	TASK3_PRIORITY,
	TASK3_PRIORITY, task3_stk,
	TASK_STACKSIZE,
	NULL, 0);
	OSTaskCreateExt(task4,
 200391c:	d8000415 	stw	zero,16(sp)
 2003920:	d8000315 	stw	zero,12(sp)
 2003924:	00820004 	movi	r2,2048
 2003928:	d8800215 	stw	r2,8(sp)
 200392c:	008080f4 	movhi	r2,515
 2003930:	10a3c304 	addi	r2,r2,-28916
 2003934:	d8800115 	stw	r2,4(sp)
 2003938:	00800104 	movi	r2,4
 200393c:	d8800015 	stw	r2,0(sp)
 2003940:	01c00104 	movi	r7,4
 2003944:	018080f4 	movhi	r6,515
 2003948:	31abc204 	addi	r6,r6,-20728
 200394c:	000b883a 	mov	r5,zero
 2003950:	01008034 	movhi	r4,512
 2003954:	210d9c04 	addi	r4,r4,13936
 2003958:	201ea0c0 	call	201ea0c <OSTaskCreateExt>
	TASK4_PRIORITY,
	TASK4_PRIORITY, task4_stk,
	TASK_STACKSIZE,
	NULL, 0);

	OSStart();
 200395c:	20188ac0 	call	20188ac <OSStart>
	return 0;
 2003960:	0005883a 	mov	r2,zero
}
 2003964:	e037883a 	mov	sp,fp
 2003968:	dfc00117 	ldw	ra,4(sp)
 200396c:	df000017 	ldw	fp,0(sp)
 2003970:	dec00204 	addi	sp,sp,8
 2003974:	f800283a 	ret

02003978 <whole_collide>:
#include "physics.h"
#include <stdio.h>

int whole_list [6][2]={{86,63},{446,63},{806,63},{86,463},{446,463},{806,463}};

int whole_collide(float ball [2], float velocity [2]){
 2003978:	defff604 	addi	sp,sp,-40
 200397c:	dfc00915 	stw	ra,36(sp)
 2003980:	df000815 	stw	fp,32(sp)
 2003984:	df000804 	addi	fp,sp,32
 2003988:	e13ffe15 	stw	r4,-8(fp)
 200398c:	e17fff15 	stw	r5,-4(fp)
	float x = ball[0]+velocity[0];
 2003990:	e0bffe17 	ldw	r2,-8(fp)
 2003994:	10c00017 	ldw	r3,0(r2)
 2003998:	e13fff17 	ldw	r4,-4(fp)
 200399c:	20800017 	ldw	r2,0(r4)
 20039a0:	1885ff72 	custom	253,r2,r3,r2
 20039a4:	e0bffa15 	stw	r2,-24(fp)
	float y = ball[1]+velocity[1];
 20039a8:	e0bffe17 	ldw	r2,-8(fp)
 20039ac:	10800104 	addi	r2,r2,4
 20039b0:	10c00017 	ldw	r3,0(r2)
 20039b4:	e0bfff17 	ldw	r2,-4(fp)
 20039b8:	11000104 	addi	r4,r2,4
 20039bc:	20800017 	ldw	r2,0(r4)
 20039c0:	1885ff72 	custom	253,r2,r3,r2
 20039c4:	e0bffb15 	stw	r2,-20(fp)

	int collision = 0;
 20039c8:	e03ff815 	stw	zero,-32(fp)
	int cnt;

	for (cnt=0;cnt<6;cnt++){
 20039cc:	e03ff915 	stw	zero,-28(fp)
 20039d0:	00003d06 	br	2003ac8 <whole_collide+0x150>
		float dx = whole_list[cnt][0]-x;
 20039d4:	008080b4 	movhi	r2,514
 20039d8:	108d3404 	addi	r2,r2,13520
 20039dc:	e0fff917 	ldw	r3,-28(fp)
 20039e0:	180690fa 	slli	r3,r3,3
 20039e4:	10c5883a 	add	r2,r2,r3
 20039e8:	10800017 	ldw	r2,0(r2)
 20039ec:	1007feb2 	custom	250,r3,r2,zero
 20039f0:	e0bffa17 	ldw	r2,-24(fp)
 20039f4:	1885ffb2 	custom	254,r2,r3,r2
 20039f8:	e0bffc15 	stw	r2,-16(fp)
		float dy = whole_list[cnt][1]-y;
 20039fc:	008080b4 	movhi	r2,514
 2003a00:	108d3404 	addi	r2,r2,13520
 2003a04:	e0fff917 	ldw	r3,-28(fp)
 2003a08:	180690fa 	slli	r3,r3,3
 2003a0c:	10c5883a 	add	r2,r2,r3
 2003a10:	10800104 	addi	r2,r2,4
 2003a14:	10800017 	ldw	r2,0(r2)
 2003a18:	1007feb2 	custom	250,r3,r2,zero
 2003a1c:	e0bffb17 	ldw	r2,-20(fp)
 2003a20:	1885ffb2 	custom	254,r2,r3,r2
 2003a24:	e0bffd15 	stw	r2,-12(fp)

		collision = collision || (dx*dx+dy*dy <= ((SIZE+WHOLE_SIZE)*(SIZE+WHOLE_SIZE)*0.85));
 2003a28:	e0bff817 	ldw	r2,-32(fp)
 2003a2c:	1000131e 	bne	r2,zero,2003a7c <whole_collide+0x104>
 2003a30:	e0fffc17 	ldw	r3,-16(fp)
 2003a34:	e0bffc17 	ldw	r2,-16(fp)
 2003a38:	1887ff32 	custom	252,r3,r3,r2
 2003a3c:	e13ffd17 	ldw	r4,-12(fp)
 2003a40:	e0bffd17 	ldw	r2,-12(fp)
 2003a44:	2085ff32 	custom	252,r2,r4,r2
 2003a48:	1885ff72 	custom	253,r2,r3,r2
 2003a4c:	1009883a 	mov	r4,r2
 2003a50:	20099440 	call	2009944 <__extendsfdf2>
 2003a54:	1011883a 	mov	r8,r2
 2003a58:	1813883a 	mov	r9,r3
 2003a5c:	01b33374 	movhi	r6,52429
 2003a60:	31b33344 	addi	r6,r6,-13107
 2003a64:	01d021b4 	movhi	r7,16518
 2003a68:	39d5b304 	addi	r7,r7,22220
 2003a6c:	4009883a 	mov	r4,r8
 2003a70:	480b883a 	mov	r5,r9
 2003a74:	200883c0 	call	200883c <__ledf2>
 2003a78:	00800216 	blt	zero,r2,2003a84 <whole_collide+0x10c>
 2003a7c:	00800044 	movi	r2,1
 2003a80:	00000106 	br	2003a88 <whole_collide+0x110>
 2003a84:	0005883a 	mov	r2,zero
 2003a88:	e0bff815 	stw	r2,-32(fp)

		if (collision){
 2003a8c:	e0bff817 	ldw	r2,-32(fp)
 2003a90:	10000a26 	beq	r2,zero,2003abc <whole_collide+0x144>
			ball[0]=0;
 2003a94:	e0bffe17 	ldw	r2,-8(fp)
 2003a98:	10000015 	stw	zero,0(r2)
			ball[1]=0;
 2003a9c:	e0bffe17 	ldw	r2,-8(fp)
 2003aa0:	10800104 	addi	r2,r2,4
 2003aa4:	10000015 	stw	zero,0(r2)
			velocity[0]=0;
 2003aa8:	e0bfff17 	ldw	r2,-4(fp)
 2003aac:	10000015 	stw	zero,0(r2)
			velocity[1]=0;
 2003ab0:	e0bfff17 	ldw	r2,-4(fp)
 2003ab4:	10800104 	addi	r2,r2,4
 2003ab8:	10000015 	stw	zero,0(r2)
	float y = ball[1]+velocity[1];

	int collision = 0;
	int cnt;

	for (cnt=0;cnt<6;cnt++){
 2003abc:	e0bff917 	ldw	r2,-28(fp)
 2003ac0:	10800044 	addi	r2,r2,1
 2003ac4:	e0bff915 	stw	r2,-28(fp)
 2003ac8:	e0bff917 	ldw	r2,-28(fp)
 2003acc:	10800190 	cmplti	r2,r2,6
 2003ad0:	103fc01e 	bne	r2,zero,20039d4 <whole_collide+0x5c>
			ball[1]=0;
			velocity[0]=0;
			velocity[1]=0;
		}
	}
	return collision;
 2003ad4:	e0bff817 	ldw	r2,-32(fp)
}
 2003ad8:	e037883a 	mov	sp,fp
 2003adc:	dfc00117 	ldw	ra,4(sp)
 2003ae0:	df000017 	ldw	fp,0(sp)
 2003ae4:	dec00204 	addi	sp,sp,8
 2003ae8:	f800283a 	ret

02003aec <borderCollide>:


void borderCollide(float* ball, int* border_collision, float* velocity)
{
 2003aec:	defffa04 	addi	sp,sp,-24
 2003af0:	df000515 	stw	fp,20(sp)
 2003af4:	df000504 	addi	fp,sp,20
 2003af8:	e13ffd15 	stw	r4,-12(fp)
 2003afc:	e17ffe15 	stw	r5,-8(fp)
 2003b00:	e1bfff15 	stw	r6,-4(fp)
	int collide_x = 0;
 2003b04:	e03ffb15 	stw	zero,-20(fp)
	int collide_y = 0;
 2003b08:	e03ffc15 	stw	zero,-16(fp)
	collide_x = (ball[0] < BORDER_X + BORDER + SIZE || ball[0] > (MAX_X + BORDER_X)-(BORDER + SIZE));
 2003b0c:	e0bffd17 	ldw	r2,-12(fp)
 2003b10:	10c00017 	ldw	r3,0(r2)
 2003b14:	0090b1b4 	movhi	r2,17094
 2003b18:	1885f9f2 	custom	231,r2,r3,r2
 2003b1c:	1000061e 	bne	r2,zero,2003b38 <borderCollide+0x4c>
 2003b20:	e0bffd17 	ldw	r2,-12(fp)
 2003b24:	10c00017 	ldw	r3,0(r2)
 2003b28:	009111b4 	movhi	r2,17478
 2003b2c:	10900004 	addi	r2,r2,16384
 2003b30:	1885f972 	custom	229,r2,r3,r2
 2003b34:	10000226 	beq	r2,zero,2003b40 <borderCollide+0x54>
 2003b38:	00800044 	movi	r2,1
 2003b3c:	00000106 	br	2003b44 <borderCollide+0x58>
 2003b40:	0005883a 	mov	r2,zero
 2003b44:	e0bffb15 	stw	r2,-20(fp)
	collide_y = (ball[1] < BORDER_Y + BORDER + SIZE || ball[1] > (MAX_Y + BORDER_Y)-(BORDER + SIZE));
 2003b48:	e0bffd17 	ldw	r2,-12(fp)
 2003b4c:	10800104 	addi	r2,r2,4
 2003b50:	10c00017 	ldw	r3,0(r2)
 2003b54:	0090a634 	movhi	r2,17048
 2003b58:	1885f9f2 	custom	231,r2,r3,r2
 2003b5c:	1000061e 	bne	r2,zero,2003b78 <borderCollide+0x8c>
 2003b60:	e0bffd17 	ldw	r2,-12(fp)
 2003b64:	10800104 	addi	r2,r2,4
 2003b68:	10c00017 	ldw	r3,0(r2)
 2003b6c:	0090f874 	movhi	r2,17377
 2003b70:	1885f972 	custom	229,r2,r3,r2
 2003b74:	10000226 	beq	r2,zero,2003b80 <borderCollide+0x94>
 2003b78:	00800044 	movi	r2,1
 2003b7c:	00000106 	br	2003b84 <borderCollide+0x98>
 2003b80:	0005883a 	mov	r2,zero
 2003b84:	e0bffc15 	stw	r2,-16(fp)
	if(!border_collision[0] && collide_x)
 2003b88:	e0bffe17 	ldw	r2,-8(fp)
 2003b8c:	10800017 	ldw	r2,0(r2)
 2003b90:	1000081e 	bne	r2,zero,2003bb4 <borderCollide+0xc8>
 2003b94:	e0bffb17 	ldw	r2,-20(fp)
 2003b98:	10000626 	beq	r2,zero,2003bb4 <borderCollide+0xc8>
	{
		velocity[0] = 0 - velocity[0];
 2003b9c:	e0ffff17 	ldw	r3,-4(fp)
 2003ba0:	18800017 	ldw	r2,0(r3)
 2003ba4:	0007883a 	mov	r3,zero
 2003ba8:	1887ffb2 	custom	254,r3,r3,r2
 2003bac:	e0bfff17 	ldw	r2,-4(fp)
 2003bb0:	10c00015 	stw	r3,0(r2)
	}
	if(!border_collision[2] && collide_y)
 2003bb4:	e0bffe17 	ldw	r2,-8(fp)
 2003bb8:	10800204 	addi	r2,r2,8
 2003bbc:	10800017 	ldw	r2,0(r2)
 2003bc0:	10000a1e 	bne	r2,zero,2003bec <borderCollide+0x100>
 2003bc4:	e0bffc17 	ldw	r2,-16(fp)
 2003bc8:	10000826 	beq	r2,zero,2003bec <borderCollide+0x100>
	{
		velocity[1] = 0 - velocity[1];
 2003bcc:	e0bfff17 	ldw	r2,-4(fp)
 2003bd0:	10800104 	addi	r2,r2,4
 2003bd4:	e0ffff17 	ldw	r3,-4(fp)
 2003bd8:	19000104 	addi	r4,r3,4
 2003bdc:	20c00017 	ldw	r3,0(r4)
 2003be0:	0009883a 	mov	r4,zero
 2003be4:	20c7ffb2 	custom	254,r3,r4,r3
 2003be8:	10c00015 	stw	r3,0(r2)
	}

	border_collision[0] = border_collision[1];
 2003bec:	e0bffe17 	ldw	r2,-8(fp)
 2003bf0:	10c00117 	ldw	r3,4(r2)
 2003bf4:	e0bffe17 	ldw	r2,-8(fp)
 2003bf8:	10c00015 	stw	r3,0(r2)
	border_collision[1] = collide_x;
 2003bfc:	e0bffe17 	ldw	r2,-8(fp)
 2003c00:	10800104 	addi	r2,r2,4
 2003c04:	e0fffb17 	ldw	r3,-20(fp)
 2003c08:	10c00015 	stw	r3,0(r2)
	border_collision[2] = border_collision[3];
 2003c0c:	e0bffe17 	ldw	r2,-8(fp)
 2003c10:	10800204 	addi	r2,r2,8
 2003c14:	e0fffe17 	ldw	r3,-8(fp)
 2003c18:	18c00317 	ldw	r3,12(r3)
 2003c1c:	10c00015 	stw	r3,0(r2)
	border_collision[3] = collide_y;
 2003c20:	e0bffe17 	ldw	r2,-8(fp)
 2003c24:	10800304 	addi	r2,r2,12
 2003c28:	e0fffc17 	ldw	r3,-16(fp)
 2003c2c:	10c00015 	stw	r3,0(r2)
}
 2003c30:	0001883a 	nop
 2003c34:	e037883a 	mov	sp,fp
 2003c38:	df000017 	ldw	fp,0(sp)
 2003c3c:	dec00104 	addi	sp,sp,4
 2003c40:	f800283a 	ret

02003c44 <momentum>:

float momentum (float* velocity){
 2003c44:	defffd04 	addi	sp,sp,-12
 2003c48:	df000215 	stw	fp,8(sp)
 2003c4c:	df000204 	addi	fp,sp,8
 2003c50:	e13fff15 	stw	r4,-4(fp)
	float result=velocity[0]*velocity[0]+velocity[1]*velocity[1];
 2003c54:	e0bfff17 	ldw	r2,-4(fp)
 2003c58:	10c00017 	ldw	r3,0(r2)
 2003c5c:	e13fff17 	ldw	r4,-4(fp)
 2003c60:	20800017 	ldw	r2,0(r4)
 2003c64:	1887ff32 	custom	252,r3,r3,r2
 2003c68:	e0bfff17 	ldw	r2,-4(fp)
 2003c6c:	10800104 	addi	r2,r2,4
 2003c70:	11000017 	ldw	r4,0(r2)
 2003c74:	e0bfff17 	ldw	r2,-4(fp)
 2003c78:	11400104 	addi	r5,r2,4
 2003c7c:	28800017 	ldw	r2,0(r5)
 2003c80:	2085ff32 	custom	252,r2,r4,r2
 2003c84:	1885ff72 	custom	253,r2,r3,r2
 2003c88:	e0bffe15 	stw	r2,-8(fp)
	return result;
 2003c8c:	e0bffe17 	ldw	r2,-8(fp)
 2003c90:	1007883a 	mov	r3,r2
}
 2003c94:	1805883a 	mov	r2,r3
 2003c98:	e037883a 	mov	sp,fp
 2003c9c:	df000017 	ldw	fp,0(sp)
 2003ca0:	dec00104 	addi	sp,sp,4
 2003ca4:	f800283a 	ret

02003ca8 <detect_collide>:

void detect_collide(float* ball1, float* ball2, int* collision){
 2003ca8:	defff604 	addi	sp,sp,-40
 2003cac:	df000915 	stw	fp,36(sp)
 2003cb0:	df000904 	addi	fp,sp,36
 2003cb4:	e13ffd15 	stw	r4,-12(fp)
 2003cb8:	e17ffe15 	stw	r5,-8(fp)
 2003cbc:	e1bfff15 	stw	r6,-4(fp)
	collision[0]=collision[1];
 2003cc0:	e0bfff17 	ldw	r2,-4(fp)
 2003cc4:	10c00117 	ldw	r3,4(r2)
 2003cc8:	e0bfff17 	ldw	r2,-4(fp)
 2003ccc:	10c00015 	stw	r3,0(r2)

	float x1,y1,x2,y2,dx,dy;
	x1=ball1[0];
 2003cd0:	e0bffd17 	ldw	r2,-12(fp)
 2003cd4:	10800017 	ldw	r2,0(r2)
 2003cd8:	e0bff715 	stw	r2,-36(fp)
	x2=ball2[0];
 2003cdc:	e0bffe17 	ldw	r2,-8(fp)
 2003ce0:	10800017 	ldw	r2,0(r2)
 2003ce4:	e0bff815 	stw	r2,-32(fp)

	y1=ball1[1];
 2003ce8:	e0bffd17 	ldw	r2,-12(fp)
 2003cec:	10800117 	ldw	r2,4(r2)
 2003cf0:	e0bff915 	stw	r2,-28(fp)
	y2=ball2[1];
 2003cf4:	e0bffe17 	ldw	r2,-8(fp)
 2003cf8:	10800117 	ldw	r2,4(r2)
 2003cfc:	e0bffa15 	stw	r2,-24(fp)

	dx=x2-x1;
 2003d00:	e0fff817 	ldw	r3,-32(fp)
 2003d04:	e0bff717 	ldw	r2,-36(fp)
 2003d08:	1885ffb2 	custom	254,r2,r3,r2
 2003d0c:	e0bffb15 	stw	r2,-20(fp)
	dy=y2-y1;
 2003d10:	e0fffa17 	ldw	r3,-24(fp)
 2003d14:	e0bff917 	ldw	r2,-28(fp)
 2003d18:	1885ffb2 	custom	254,r2,r3,r2
 2003d1c:	e0bffc15 	stw	r2,-16(fp)
	collision[1]=dx*dx + dy*dy <= 4*SIZE*SIZE;
 2003d20:	e0bfff17 	ldw	r2,-4(fp)
 2003d24:	10800104 	addi	r2,r2,4
 2003d28:	e13ffb17 	ldw	r4,-20(fp)
 2003d2c:	e0fffb17 	ldw	r3,-20(fp)
 2003d30:	20c9ff32 	custom	252,r4,r4,r3
 2003d34:	e17ffc17 	ldw	r5,-16(fp)
 2003d38:	e0fffc17 	ldw	r3,-16(fp)
 2003d3c:	28c7ff32 	custom	252,r3,r5,r3
 2003d40:	20c9ff72 	custom	253,r4,r4,r3
 2003d44:	00d10a74 	movhi	r3,17449
 2003d48:	20c7f9b2 	custom	230,r3,r4,r3
 2003d4c:	18c03fcc 	andi	r3,r3,255
 2003d50:	10c00015 	stw	r3,0(r2)
}
 2003d54:	0001883a 	nop
 2003d58:	e037883a 	mov	sp,fp
 2003d5c:	df000017 	ldw	fp,0(sp)
 2003d60:	dec00104 	addi	sp,sp,4
 2003d64:	f800283a 	ret

02003d68 <collide_calc>:


void collide_calc(float* ball1, float* ball2,float* velocity1, float* velocity2, int* collision,int id){
 2003d68:	deffeb04 	addi	sp,sp,-84
 2003d6c:	dfc01415 	stw	ra,80(sp)
 2003d70:	df001315 	stw	fp,76(sp)
 2003d74:	dc401215 	stw	r17,72(sp)
 2003d78:	dc001115 	stw	r16,68(sp)
 2003d7c:	df001304 	addi	fp,sp,76
 2003d80:	e13ffa15 	stw	r4,-24(fp)
 2003d84:	e17ffb15 	stw	r5,-20(fp)
 2003d88:	e1bffc15 	stw	r6,-16(fp)
 2003d8c:	e1fffd15 	stw	r7,-12(fp)
	if ((!collision[0] && collision[1]) || (collision[0] && collision[1] && ball1[0]!=0 && ball1[1] && ball2[0] && ball2[1])){
 2003d90:	e0800217 	ldw	r2,8(fp)
 2003d94:	10800017 	ldw	r2,0(r2)
 2003d98:	1000041e 	bne	r2,zero,2003dac <collide_calc+0x44>
 2003d9c:	e0800217 	ldw	r2,8(fp)
 2003da0:	10800104 	addi	r2,r2,4
 2003da4:	10800017 	ldw	r2,0(r2)
 2003da8:	10001d1e 	bne	r2,zero,2003e20 <collide_calc+0xb8>
 2003dac:	e0800217 	ldw	r2,8(fp)
 2003db0:	10800017 	ldw	r2,0(r2)
 2003db4:	1000c626 	beq	r2,zero,20040d0 <collide_calc+0x368>
 2003db8:	e0800217 	ldw	r2,8(fp)
 2003dbc:	10800104 	addi	r2,r2,4
 2003dc0:	10800017 	ldw	r2,0(r2)
 2003dc4:	1000c226 	beq	r2,zero,20040d0 <collide_calc+0x368>
 2003dc8:	e0fffa17 	ldw	r3,-24(fp)
 2003dcc:	18800017 	ldw	r2,0(r3)
 2003dd0:	0007883a 	mov	r3,zero
 2003dd4:	10c5f8f2 	custom	227,r2,r2,r3
 2003dd8:	1000bd1e 	bne	r2,zero,20040d0 <collide_calc+0x368>
 2003ddc:	e0bffa17 	ldw	r2,-24(fp)
 2003de0:	10c00104 	addi	r3,r2,4
 2003de4:	18800017 	ldw	r2,0(r3)
 2003de8:	0007883a 	mov	r3,zero
 2003dec:	10c5f8f2 	custom	227,r2,r2,r3
 2003df0:	1000b71e 	bne	r2,zero,20040d0 <collide_calc+0x368>
 2003df4:	e0fffb17 	ldw	r3,-20(fp)
 2003df8:	18800017 	ldw	r2,0(r3)
 2003dfc:	0007883a 	mov	r3,zero
 2003e00:	10c5f8f2 	custom	227,r2,r2,r3
 2003e04:	1000b21e 	bne	r2,zero,20040d0 <collide_calc+0x368>
 2003e08:	e0bffb17 	ldw	r2,-20(fp)
 2003e0c:	10c00104 	addi	r3,r2,4
 2003e10:	18800017 	ldw	r2,0(r3)
 2003e14:	0007883a 	mov	r3,zero
 2003e18:	10c5f8f2 	custom	227,r2,r2,r3
 2003e1c:	1000ac1e 	bne	r2,zero,20040d0 <collide_calc+0x368>
		int sign;
		float v21 [2];
		float a;
		float dv;

		x1=ball1[0];
 2003e20:	e0bffa17 	ldw	r2,-24(fp)
 2003e24:	10800017 	ldw	r2,0(r2)
 2003e28:	e0bfef15 	stw	r2,-68(fp)
		x2=ball2[0];
 2003e2c:	e0bffb17 	ldw	r2,-20(fp)
 2003e30:	10800017 	ldw	r2,0(r2)
 2003e34:	e0bff015 	stw	r2,-64(fp)
		y1=ball1[1];
 2003e38:	e0bffa17 	ldw	r2,-24(fp)
 2003e3c:	10800117 	ldw	r2,4(r2)
 2003e40:	e0bff115 	stw	r2,-60(fp)
		y2=ball2[1];
 2003e44:	e0bffb17 	ldw	r2,-20(fp)
 2003e48:	10800117 	ldw	r2,4(r2)
 2003e4c:	e0bff215 	stw	r2,-56(fp)

		//m1=1.0;
		//m2=1.0;
		m21 = 1.0; // m1 = 1.0 / m2 = 1.0
 2003e50:	008fe034 	movhi	r2,16256
 2003e54:	e0bff315 	stw	r2,-52(fp)
		x21 = x2-x1;
 2003e58:	e0fff017 	ldw	r3,-64(fp)
 2003e5c:	e0bfef17 	ldw	r2,-68(fp)
 2003e60:	1885ffb2 	custom	254,r2,r3,r2
 2003e64:	e0bfed15 	stw	r2,-76(fp)
		y21 = y2-y1;
 2003e68:	e0fff217 	ldw	r3,-56(fp)
 2003e6c:	e0bff117 	ldw	r2,-60(fp)
 2003e70:	1885ffb2 	custom	254,r2,r3,r2
 2003e74:	e0bff415 	stw	r2,-48(fp)
		v21[0]=velocity2[0]-velocity1[0];
 2003e78:	e0bffd17 	ldw	r2,-12(fp)
 2003e7c:	10c00017 	ldw	r3,0(r2)
 2003e80:	e13ffc17 	ldw	r4,-16(fp)
 2003e84:	20800017 	ldw	r2,0(r4)
 2003e88:	1885ffb2 	custom	254,r2,r3,r2
 2003e8c:	e0bff815 	stw	r2,-32(fp)
		v21[1]=velocity2[1]-velocity1[1];
 2003e90:	e0bffd17 	ldw	r2,-12(fp)
 2003e94:	10800104 	addi	r2,r2,4
 2003e98:	10c00017 	ldw	r3,0(r2)
 2003e9c:	e0bffc17 	ldw	r2,-16(fp)
 2003ea0:	11000104 	addi	r4,r2,4
 2003ea4:	20800017 	ldw	r2,0(r4)
 2003ea8:	1885ffb2 	custom	254,r2,r3,r2
 2003eac:	e0bff915 	stw	r2,-28(fp)

		if ((v21[0]*x21 + v21[1]*y21) >=0){
 2003eb0:	e0fff817 	ldw	r3,-32(fp)
 2003eb4:	e0bfed17 	ldw	r2,-76(fp)
 2003eb8:	1887ff32 	custom	252,r3,r3,r2
 2003ebc:	e13ff917 	ldw	r4,-28(fp)
 2003ec0:	e0bff417 	ldw	r2,-48(fp)
 2003ec4:	2085ff32 	custom	252,r2,r4,r2
 2003ec8:	1885ff72 	custom	253,r2,r3,r2
 2003ecc:	0007883a 	mov	r3,zero
 2003ed0:	10c5f932 	custom	228,r2,r2,r3
 2003ed4:	10007e1e 	bne	r2,zero,20040d0 <collide_calc+0x368>
			//DEBUG_PRINT("error in collision\n");
		}
		else{
			fy21=0.000001*fabs(y21);
 2003ed8:	e0bff417 	ldw	r2,-48(fp)
 2003edc:	1005f832 	custom	224,r2,r2,zero
 2003ee0:	1009883a 	mov	r4,r2
 2003ee4:	20099440 	call	2009944 <__extendsfdf2>
 2003ee8:	1011883a 	mov	r8,r2
 2003eec:	1813883a 	mov	r9,r3
 2003ef0:	01a82db4 	movhi	r6,41142
 2003ef4:	31bb6344 	addi	r6,r6,-4723
 2003ef8:	01cfac74 	movhi	r7,16049
 2003efc:	39f1bdc4 	addi	r7,r7,-14601
 2003f00:	4009883a 	mov	r4,r8
 2003f04:	480b883a 	mov	r5,r9
 2003f08:	20089300 	call	2008930 <__muldf3>
 2003f0c:	1009883a 	mov	r4,r2
 2003f10:	180b883a 	mov	r5,r3
 2003f14:	2005883a 	mov	r2,r4
 2003f18:	2807883a 	mov	r3,r5
 2003f1c:	1009883a 	mov	r4,r2
 2003f20:	180b883a 	mov	r5,r3
 2003f24:	2009a540 	call	2009a54 <__truncdfsf2>
 2003f28:	1007883a 	mov	r3,r2
 2003f2c:	e0fff515 	stw	r3,-44(fp)
			if(fabs(x21) < fy21){
 2003f30:	e0bfed17 	ldw	r2,-76(fp)
 2003f34:	1007f832 	custom	224,r3,r2,zero
 2003f38:	e0bff517 	ldw	r2,-44(fp)
 2003f3c:	1885f9f2 	custom	231,r2,r3,r2
 2003f40:	10000e26 	beq	r2,zero,2003f7c <collide_calc+0x214>
				if (x21<0) sign = -1;
 2003f44:	e0bfed17 	ldw	r2,-76(fp)
 2003f48:	0007883a 	mov	r3,zero
 2003f4c:	10c5f9f2 	custom	231,r2,r2,r3
 2003f50:	10000326 	beq	r2,zero,2003f60 <collide_calc+0x1f8>
 2003f54:	00bfffc4 	movi	r2,-1
 2003f58:	e0bfee15 	stw	r2,-72(fp)
 2003f5c:	00000206 	br	2003f68 <collide_calc+0x200>
				else sign=1;
 2003f60:	00800044 	movi	r2,1
 2003f64:	e0bfee15 	stw	r2,-72(fp)
				x21=fy21*sign;
 2003f68:	e0bfee17 	ldw	r2,-72(fp)
 2003f6c:	1007feb2 	custom	250,r3,r2,zero
 2003f70:	e0bff517 	ldw	r2,-44(fp)
 2003f74:	1885ff32 	custom	252,r2,r3,r2
 2003f78:	e0bfed15 	stw	r2,-76(fp)
			}
			a=y21/x21;
 2003f7c:	e0fff417 	ldw	r3,-48(fp)
 2003f80:	e0bfed17 	ldw	r2,-76(fp)
 2003f84:	1885fff2 	custom	255,r2,r3,r2
 2003f88:	e0bff615 	stw	r2,-40(fp)
            dv = -2.0*(v21[0]+a*v21[1])/((1+a*a)*(1+m21));
 2003f8c:	e0fff817 	ldw	r3,-32(fp)
 2003f90:	e13ff917 	ldw	r4,-28(fp)
 2003f94:	e0bff617 	ldw	r2,-40(fp)
 2003f98:	2085ff32 	custom	252,r2,r4,r2
 2003f9c:	1885ff72 	custom	253,r2,r3,r2
 2003fa0:	1009883a 	mov	r4,r2
 2003fa4:	20099440 	call	2009944 <__extendsfdf2>
 2003fa8:	1011883a 	mov	r8,r2
 2003fac:	1813883a 	mov	r9,r3
 2003fb0:	000d883a 	mov	r6,zero
 2003fb4:	01f00034 	movhi	r7,49152
 2003fb8:	4009883a 	mov	r4,r8
 2003fbc:	480b883a 	mov	r5,r9
 2003fc0:	20089300 	call	2008930 <__muldf3>
 2003fc4:	1009883a 	mov	r4,r2
 2003fc8:	180b883a 	mov	r5,r3
 2003fcc:	2021883a 	mov	r16,r4
 2003fd0:	2823883a 	mov	r17,r5
 2003fd4:	e0fff617 	ldw	r3,-40(fp)
 2003fd8:	e0bff617 	ldw	r2,-40(fp)
 2003fdc:	1887ff32 	custom	252,r3,r3,r2
 2003fe0:	008fe034 	movhi	r2,16256
 2003fe4:	1887ff72 	custom	253,r3,r3,r2
 2003fe8:	e13ff317 	ldw	r4,-52(fp)
 2003fec:	008fe034 	movhi	r2,16256
 2003ff0:	2085ff72 	custom	253,r2,r4,r2
 2003ff4:	1885ff32 	custom	252,r2,r3,r2
 2003ff8:	1009883a 	mov	r4,r2
 2003ffc:	20099440 	call	2009944 <__extendsfdf2>
 2004000:	1009883a 	mov	r4,r2
 2004004:	180b883a 	mov	r5,r3
 2004008:	200d883a 	mov	r6,r4
 200400c:	280f883a 	mov	r7,r5
 2004010:	8009883a 	mov	r4,r16
 2004014:	880b883a 	mov	r5,r17
 2004018:	2007df00 	call	2007df0 <__divdf3>
 200401c:	1009883a 	mov	r4,r2
 2004020:	180b883a 	mov	r5,r3
 2004024:	2005883a 	mov	r2,r4
 2004028:	2807883a 	mov	r3,r5
 200402c:	1009883a 	mov	r4,r2
 2004030:	180b883a 	mov	r5,r3
 2004034:	2009a540 	call	2009a54 <__truncdfsf2>
 2004038:	1007883a 	mov	r3,r2
 200403c:	e0fff715 	stw	r3,-36(fp)
            velocity2[0] += dv;
 2004040:	e0bffd17 	ldw	r2,-12(fp)
 2004044:	10c00017 	ldw	r3,0(r2)
 2004048:	e0bff717 	ldw	r2,-36(fp)
 200404c:	1887ff72 	custom	253,r3,r3,r2
 2004050:	e0bffd17 	ldw	r2,-12(fp)
 2004054:	10c00015 	stw	r3,0(r2)
            velocity2[1] += a*dv;
 2004058:	e0bffd17 	ldw	r2,-12(fp)
 200405c:	10800104 	addi	r2,r2,4
 2004060:	e0fffd17 	ldw	r3,-12(fp)
 2004064:	18c00104 	addi	r3,r3,4
 2004068:	19000017 	ldw	r4,0(r3)
 200406c:	e17ff617 	ldw	r5,-40(fp)
 2004070:	e0fff717 	ldw	r3,-36(fp)
 2004074:	28c7ff32 	custom	252,r3,r5,r3
 2004078:	20c7ff72 	custom	253,r3,r4,r3
 200407c:	10c00015 	stw	r3,0(r2)

            velocity1[0] -= m21*dv;
 2004080:	e0bffc17 	ldw	r2,-16(fp)
 2004084:	10c00017 	ldw	r3,0(r2)
 2004088:	e13ff317 	ldw	r4,-52(fp)
 200408c:	e0bff717 	ldw	r2,-36(fp)
 2004090:	2085ff32 	custom	252,r2,r4,r2
 2004094:	1887ffb2 	custom	254,r3,r3,r2
 2004098:	e0bffc17 	ldw	r2,-16(fp)
 200409c:	10c00015 	stw	r3,0(r2)
            velocity1[1] -= a*m21*dv;
 20040a0:	e0bffc17 	ldw	r2,-16(fp)
 20040a4:	10800104 	addi	r2,r2,4
 20040a8:	e0fffc17 	ldw	r3,-16(fp)
 20040ac:	18c00104 	addi	r3,r3,4
 20040b0:	19000017 	ldw	r4,0(r3)
 20040b4:	e17ff617 	ldw	r5,-40(fp)
 20040b8:	e0fff317 	ldw	r3,-52(fp)
 20040bc:	28cbff32 	custom	252,r5,r5,r3
 20040c0:	e0fff717 	ldw	r3,-36(fp)
 20040c4:	28c7ff32 	custom	252,r3,r5,r3
 20040c8:	20c7ffb2 	custom	254,r3,r4,r3
 20040cc:	10c00015 	stw	r3,0(r2)
            //DEBUG_PRINT("collision - ball 1 [ %f, %f] - ball 2 [ %f, %f] - V1 [%f, %f] - V2 [%f,%f]\n", ball1[0],ball1[1],
            //					ball2[0],ball2[1],velocity1[0] , velocity1[1],velocity2[0],velocity2[1]);
		}
	}
}
 20040d0:	0001883a 	nop
 20040d4:	e6fffe04 	addi	sp,fp,-8
 20040d8:	dfc00317 	ldw	ra,12(sp)
 20040dc:	df000217 	ldw	fp,8(sp)
 20040e0:	dc400117 	ldw	r17,4(sp)
 20040e4:	dc000017 	ldw	r16,0(sp)
 20040e8:	dec00404 	addi	sp,sp,16
 20040ec:	f800283a 	ret

020040f0 <moveBall>:


void moveBall(float* ball, float* velocity, float theta, int neutre){
 20040f0:	defff704 	addi	sp,sp,-36
 20040f4:	dfc00815 	stw	ra,32(sp)
 20040f8:	df000715 	stw	fp,28(sp)
 20040fc:	dc800615 	stw	r18,24(sp)
 2004100:	dc400515 	stw	r17,20(sp)
 2004104:	dc000415 	stw	r16,16(sp)
 2004108:	df000704 	addi	fp,sp,28
 200410c:	e13ff915 	stw	r4,-28(fp)
 2004110:	e17ffa15 	stw	r5,-24(fp)
 2004114:	e1bffb15 	stw	r6,-20(fp)
 2004118:	e1fffc15 	stw	r7,-16(fp)
	if(neutre != 0)
 200411c:	e0bffc17 	ldw	r2,-16(fp)
 2004120:	10001a26 	beq	r2,zero,200418c <moveBall+0x9c>
	{
		ball[0] += velocity[0]*cosf(theta);
 2004124:	e0bff917 	ldw	r2,-28(fp)
 2004128:	14000017 	ldw	r16,0(r2)
 200412c:	e0bffa17 	ldw	r2,-24(fp)
 2004130:	14400017 	ldw	r17,0(r2)
 2004134:	e13ffb17 	ldw	r4,-20(fp)
 2004138:	20044980 	call	2004498 <cosf>
 200413c:	1007883a 	mov	r3,r2
 2004140:	88c5ff32 	custom	252,r2,r17,r3
 2004144:	8087ff72 	custom	253,r3,r16,r2
 2004148:	e0bff917 	ldw	r2,-28(fp)
 200414c:	10c00015 	stw	r3,0(r2)
		ball[1] += velocity[1]*sinf(theta);
 2004150:	e0bff917 	ldw	r2,-28(fp)
 2004154:	14000104 	addi	r16,r2,4
 2004158:	e0bff917 	ldw	r2,-28(fp)
 200415c:	10800104 	addi	r2,r2,4
 2004160:	14400017 	ldw	r17,0(r2)
 2004164:	e0bffa17 	ldw	r2,-24(fp)
 2004168:	10800104 	addi	r2,r2,4
 200416c:	14800017 	ldw	r18,0(r2)
 2004170:	e13ffb17 	ldw	r4,-20(fp)
 2004174:	20045d80 	call	20045d8 <sinf>
 2004178:	1007883a 	mov	r3,r2
 200417c:	90c5ff32 	custom	252,r2,r18,r3
 2004180:	8885ff72 	custom	253,r2,r17,r2
 2004184:	80800015 	stw	r2,0(r16)
	else
	{
		ball[0] += velocity[0];
		ball[1] += velocity[1];
	}
}
 2004188:	00001106 	br	20041d0 <moveBall+0xe0>
		ball[0] += velocity[0]*cosf(theta);
		ball[1] += velocity[1]*sinf(theta);
	}
	else
	{
		ball[0] += velocity[0];
 200418c:	e0bff917 	ldw	r2,-28(fp)
 2004190:	10c00017 	ldw	r3,0(r2)
 2004194:	e13ffa17 	ldw	r4,-24(fp)
 2004198:	20800017 	ldw	r2,0(r4)
 200419c:	1887ff72 	custom	253,r3,r3,r2
 20041a0:	e0bff917 	ldw	r2,-28(fp)
 20041a4:	10c00015 	stw	r3,0(r2)
		ball[1] += velocity[1];
 20041a8:	e0bff917 	ldw	r2,-28(fp)
 20041ac:	10800104 	addi	r2,r2,4
 20041b0:	e0fff917 	ldw	r3,-28(fp)
 20041b4:	18c00104 	addi	r3,r3,4
 20041b8:	19000017 	ldw	r4,0(r3)
 20041bc:	e0fffa17 	ldw	r3,-24(fp)
 20041c0:	19400104 	addi	r5,r3,4
 20041c4:	28c00017 	ldw	r3,0(r5)
 20041c8:	20c7ff72 	custom	253,r3,r4,r3
 20041cc:	10c00015 	stw	r3,0(r2)
	}
}
 20041d0:	0001883a 	nop
 20041d4:	e6fffd04 	addi	sp,fp,-12
 20041d8:	dfc00417 	ldw	ra,16(sp)
 20041dc:	df000317 	ldw	fp,12(sp)
 20041e0:	dc800217 	ldw	r18,8(sp)
 20041e4:	dc400117 	ldw	r17,4(sp)
 20041e8:	dc000017 	ldw	r16,0(sp)
 20041ec:	dec00504 	addi	sp,sp,20
 20041f0:	f800283a 	ret

020041f4 <damping>:


void damping(float* velocity){
 20041f4:	defffc04 	addi	sp,sp,-16
 20041f8:	dfc00315 	stw	ra,12(sp)
 20041fc:	df000215 	stw	fp,8(sp)
 2004200:	dc000115 	stw	r16,4(sp)
 2004204:	df000204 	addi	fp,sp,8
 2004208:	e13ffe15 	stw	r4,-8(fp)
	velocity[0] *= DAMPING;
 200420c:	e0bffe17 	ldw	r2,-8(fp)
 2004210:	10c00017 	ldw	r3,0(r2)
 2004214:	1809883a 	mov	r4,r3
 2004218:	20099440 	call	2009944 <__extendsfdf2>
 200421c:	1011883a 	mov	r8,r2
 2004220:	1813883a 	mov	r9,r3
 2004224:	018f5c74 	movhi	r6,15729
 2004228:	31a8f5c4 	addi	r6,r6,-23593
 200422c:	01cffc34 	movhi	r7,16368
 2004230:	39f5c284 	addi	r7,r7,-10486
 2004234:	4009883a 	mov	r4,r8
 2004238:	480b883a 	mov	r5,r9
 200423c:	20089300 	call	2008930 <__muldf3>
 2004240:	1009883a 	mov	r4,r2
 2004244:	180b883a 	mov	r5,r3
 2004248:	2005883a 	mov	r2,r4
 200424c:	2807883a 	mov	r3,r5
 2004250:	1009883a 	mov	r4,r2
 2004254:	180b883a 	mov	r5,r3
 2004258:	2009a540 	call	2009a54 <__truncdfsf2>
 200425c:	1007883a 	mov	r3,r2
 2004260:	e0bffe17 	ldw	r2,-8(fp)
 2004264:	10c00015 	stw	r3,0(r2)
	velocity[1] *= DAMPING;
 2004268:	e0bffe17 	ldw	r2,-8(fp)
 200426c:	14000104 	addi	r16,r2,4
 2004270:	e0bffe17 	ldw	r2,-8(fp)
 2004274:	10800104 	addi	r2,r2,4
 2004278:	10c00017 	ldw	r3,0(r2)
 200427c:	1809883a 	mov	r4,r3
 2004280:	20099440 	call	2009944 <__extendsfdf2>
 2004284:	1011883a 	mov	r8,r2
 2004288:	1813883a 	mov	r9,r3
 200428c:	018f5c74 	movhi	r6,15729
 2004290:	31a8f5c4 	addi	r6,r6,-23593
 2004294:	01cffc34 	movhi	r7,16368
 2004298:	39f5c284 	addi	r7,r7,-10486
 200429c:	4009883a 	mov	r4,r8
 20042a0:	480b883a 	mov	r5,r9
 20042a4:	20089300 	call	2008930 <__muldf3>
 20042a8:	1009883a 	mov	r4,r2
 20042ac:	180b883a 	mov	r5,r3
 20042b0:	2005883a 	mov	r2,r4
 20042b4:	2807883a 	mov	r3,r5
 20042b8:	1009883a 	mov	r4,r2
 20042bc:	180b883a 	mov	r5,r3
 20042c0:	2009a540 	call	2009a54 <__truncdfsf2>
 20042c4:	1007883a 	mov	r3,r2
 20042c8:	80c00015 	stw	r3,0(r16)
}
 20042cc:	0001883a 	nop
 20042d0:	e6ffff04 	addi	sp,fp,-4
 20042d4:	dfc00217 	ldw	ra,8(sp)
 20042d8:	df000117 	ldw	fp,4(sp)
 20042dc:	dc000017 	ldw	r16,0(sp)
 20042e0:	dec00304 	addi	sp,sp,12
 20042e4:	f800283a 	ret

020042e8 <fmin>:
#else
	double fmin(x,y)
	double x;
	double y;
#endif
{
 20042e8:	defffa04 	addi	sp,sp,-24
 20042ec:	dfc00515 	stw	ra,20(sp)
 20042f0:	df000415 	stw	fp,16(sp)
 20042f4:	df000404 	addi	fp,sp,16
 20042f8:	e13ffc15 	stw	r4,-16(fp)
 20042fc:	e17ffd15 	stw	r5,-12(fp)
 2004300:	e1bffe15 	stw	r6,-8(fp)
 2004304:	e1ffff15 	stw	r7,-4(fp)
  if (__fpclassifyd(x) == FP_NAN)
 2004308:	e13ffc17 	ldw	r4,-16(fp)
 200430c:	e17ffd17 	ldw	r5,-12(fp)
 2004310:	20043940 	call	2004394 <__fpclassifyd>
 2004314:	1000031e 	bne	r2,zero,2004324 <fmin+0x3c>
    return y;
 2004318:	e0bffe17 	ldw	r2,-8(fp)
 200431c:	e0ffff17 	ldw	r3,-4(fp)
 2004320:	00001306 	br	2004370 <fmin+0x88>
  if (__fpclassifyd(y) == FP_NAN)
 2004324:	e13ffe17 	ldw	r4,-8(fp)
 2004328:	e17fff17 	ldw	r5,-4(fp)
 200432c:	20043940 	call	2004394 <__fpclassifyd>
 2004330:	1000031e 	bne	r2,zero,2004340 <fmin+0x58>
    return x;
 2004334:	e0bffc17 	ldw	r2,-16(fp)
 2004338:	e0fffd17 	ldw	r3,-12(fp)
 200433c:	00000c06 	br	2004370 <fmin+0x88>
  
  return x < y ? x : y;
 2004340:	e1bffe17 	ldw	r6,-8(fp)
 2004344:	e1ffff17 	ldw	r7,-4(fp)
 2004348:	e13ffc17 	ldw	r4,-16(fp)
 200434c:	e17ffd17 	ldw	r5,-12(fp)
 2004350:	200883c0 	call	200883c <__ledf2>
 2004354:	1000030e 	bge	r2,zero,2004364 <fmin+0x7c>
 2004358:	e0bffc17 	ldw	r2,-16(fp)
 200435c:	e0fffd17 	ldw	r3,-12(fp)
 2004360:	00000206 	br	200436c <fmin+0x84>
 2004364:	e0bffe17 	ldw	r2,-8(fp)
 2004368:	e0ffff17 	ldw	r3,-4(fp)
 200436c:	0001883a 	nop
 2004370:	1009883a 	mov	r4,r2
 2004374:	180b883a 	mov	r5,r3
}
 2004378:	2005883a 	mov	r2,r4
 200437c:	2807883a 	mov	r3,r5
 2004380:	e037883a 	mov	sp,fp
 2004384:	dfc00117 	ldw	ra,4(sp)
 2004388:	df000017 	ldw	fp,0(sp)
 200438c:	dec00204 	addi	sp,sp,8
 2004390:	f800283a 	ret

02004394 <__fpclassifyd>:

#include "fdlibm.h"

int
__fpclassifyd (double x)
{
 2004394:	defff904 	addi	sp,sp,-28
 2004398:	df000615 	stw	fp,24(sp)
 200439c:	df000604 	addi	fp,sp,24
 20043a0:	e13ffe15 	stw	r4,-8(fp)
 20043a4:	e17fff15 	stw	r5,-4(fp)
  __uint32_t msw, lsw;

  EXTRACT_WORDS(msw,lsw,x);
 20043a8:	e0bffe17 	ldw	r2,-8(fp)
 20043ac:	e0bffc15 	stw	r2,-16(fp)
 20043b0:	e0bfff17 	ldw	r2,-4(fp)
 20043b4:	e0bffd15 	stw	r2,-12(fp)
 20043b8:	e0bffd17 	ldw	r2,-12(fp)
 20043bc:	e0bffa15 	stw	r2,-24(fp)
 20043c0:	e0bffc17 	ldw	r2,-16(fp)
 20043c4:	e0bffb15 	stw	r2,-20(fp)

  if ((msw == 0x00000000 && lsw == 0x00000000) ||
 20043c8:	e0bffa17 	ldw	r2,-24(fp)
 20043cc:	1000021e 	bne	r2,zero,20043d8 <__fpclassifyd+0x44>
 20043d0:	e0bffb17 	ldw	r2,-20(fp)
 20043d4:	10000526 	beq	r2,zero,20043ec <__fpclassifyd+0x58>
 20043d8:	e0fffa17 	ldw	r3,-24(fp)
 20043dc:	00a00034 	movhi	r2,32768
 20043e0:	1880041e 	bne	r3,r2,20043f4 <__fpclassifyd+0x60>
      (msw == 0x80000000 && lsw == 0x00000000))
 20043e4:	e0bffb17 	ldw	r2,-20(fp)
 20043e8:	1000021e 	bne	r2,zero,20043f4 <__fpclassifyd+0x60>
    return FP_ZERO;
 20043ec:	00800084 	movi	r2,2
 20043f0:	00002506 	br	2004488 <__fpclassifyd+0xf4>
  else if ((msw >= 0x00100000 && msw <= 0x7fefffff) ||
 20043f4:	e0fffa17 	ldw	r3,-24(fp)
 20043f8:	00800434 	movhi	r2,16
 20043fc:	18800336 	bltu	r3,r2,200440c <__fpclassifyd+0x78>
 2004400:	e0fffa17 	ldw	r3,-24(fp)
 2004404:	009ffc34 	movhi	r2,32752
 2004408:	18800636 	bltu	r3,r2,2004424 <__fpclassifyd+0x90>
 200440c:	e0fffa17 	ldw	r3,-24(fp)
 2004410:	00a00434 	movhi	r2,32784
 2004414:	18800536 	bltu	r3,r2,200442c <__fpclassifyd+0x98>
           (msw >= 0x80100000 && msw <= 0xffefffff))
 2004418:	e0fffa17 	ldw	r3,-24(fp)
 200441c:	00bffc34 	movhi	r2,65520
 2004420:	1880022e 	bgeu	r3,r2,200442c <__fpclassifyd+0x98>
    return FP_NORMAL;
 2004424:	00800104 	movi	r2,4
 2004428:	00001706 	br	2004488 <__fpclassifyd+0xf4>
  else if ((msw >= 0x00000000 && msw <= 0x000fffff) ||
 200442c:	e0fffa17 	ldw	r3,-24(fp)
 2004430:	00800434 	movhi	r2,16
 2004434:	18800536 	bltu	r3,r2,200444c <__fpclassifyd+0xb8>
           (msw >= 0x80000000 && msw <= 0x800fffff))
 2004438:	e0bffa17 	ldw	r2,-24(fp)
      (msw == 0x80000000 && lsw == 0x00000000))
    return FP_ZERO;
  else if ((msw >= 0x00100000 && msw <= 0x7fefffff) ||
           (msw >= 0x80100000 && msw <= 0xffefffff))
    return FP_NORMAL;
  else if ((msw >= 0x00000000 && msw <= 0x000fffff) ||
 200443c:	1000050e 	bge	r2,zero,2004454 <__fpclassifyd+0xc0>
           (msw >= 0x80000000 && msw <= 0x800fffff))
 2004440:	e0fffa17 	ldw	r3,-24(fp)
 2004444:	00a00434 	movhi	r2,32784
 2004448:	1880022e 	bgeu	r3,r2,2004454 <__fpclassifyd+0xc0>
    /* zero is already handled above */
    return FP_SUBNORMAL;
 200444c:	008000c4 	movi	r2,3
 2004450:	00000d06 	br	2004488 <__fpclassifyd+0xf4>
  else if ((msw == 0x7ff00000 && lsw == 0x00000000) ||
 2004454:	e0fffa17 	ldw	r3,-24(fp)
 2004458:	009ffc34 	movhi	r2,32752
 200445c:	1880021e 	bne	r3,r2,2004468 <__fpclassifyd+0xd4>
 2004460:	e0bffb17 	ldw	r2,-20(fp)
 2004464:	10000526 	beq	r2,zero,200447c <__fpclassifyd+0xe8>
 2004468:	e0fffa17 	ldw	r3,-24(fp)
 200446c:	00bffc34 	movhi	r2,65520
 2004470:	1880041e 	bne	r3,r2,2004484 <__fpclassifyd+0xf0>
           (msw == 0xfff00000 && lsw == 0x00000000))
 2004474:	e0bffb17 	ldw	r2,-20(fp)
 2004478:	1000021e 	bne	r2,zero,2004484 <__fpclassifyd+0xf0>
    return FP_INFINITE;
 200447c:	00800044 	movi	r2,1
 2004480:	00000106 	br	2004488 <__fpclassifyd+0xf4>
  else
    return FP_NAN;
 2004484:	0005883a 	mov	r2,zero
}
 2004488:	e037883a 	mov	sp,fp
 200448c:	df000017 	ldw	fp,0(sp)
 2004490:	dec00104 	addi	sp,sp,4
 2004494:	f800283a 	ret

02004498 <cosf>:
	float cosf(float x)
#else
	float cosf(x)
	float x;
#endif
{
 2004498:	defff704 	addi	sp,sp,-36
 200449c:	dfc00815 	stw	ra,32(sp)
 20044a0:	df000715 	stw	fp,28(sp)
 20044a4:	df000704 	addi	fp,sp,28
 20044a8:	e13fff15 	stw	r4,-4(fp)
	float y[2],z=0.0;
 20044ac:	e03ff915 	stw	zero,-28(fp)
	__int32_t n,ix;

	GET_FLOAT_WORD(ix,x);
 20044b0:	e0bfff17 	ldw	r2,-4(fp)
 20044b4:	e0bffe15 	stw	r2,-8(fp)
 20044b8:	e0bffe17 	ldw	r2,-8(fp)
 20044bc:	e0bffa15 	stw	r2,-24(fp)

    /* |x| ~< pi/4 */
	ix &= 0x7fffffff;
 20044c0:	e0fffa17 	ldw	r3,-24(fp)
 20044c4:	00a00034 	movhi	r2,32768
 20044c8:	10bfffc4 	addi	r2,r2,-1
 20044cc:	1884703a 	and	r2,r3,r2
 20044d0:	e0bffa15 	stw	r2,-24(fp)
	if(ix <= 0x3f490fd8) return __kernel_cosf(x,z);
 20044d4:	e0fffa17 	ldw	r3,-24(fp)
 20044d8:	008fd274 	movhi	r2,16201
 20044dc:	1083f604 	addi	r2,r2,4056
 20044e0:	10c00516 	blt	r2,r3,20044f8 <cosf+0x60>
 20044e4:	e17ff917 	ldw	r5,-28(fp)
 20044e8:	e13fff17 	ldw	r4,-4(fp)
 20044ec:	20059a00 	call	20059a0 <__kernel_cosf>
 20044f0:	1007883a 	mov	r3,r2
 20044f4:	00003206 	br	20045c0 <cosf+0x128>

    /* cos(Inf or NaN) is NaN */
	else if (!FLT_UWORD_IS_FINITE(ix)) return x-x;
 20044f8:	e0fffa17 	ldw	r3,-24(fp)
 20044fc:	009fe034 	movhi	r2,32640
 2004500:	18800416 	blt	r3,r2,2004514 <cosf+0x7c>
 2004504:	e0ffff17 	ldw	r3,-4(fp)
 2004508:	e0bfff17 	ldw	r2,-4(fp)
 200450c:	1887ffb2 	custom	254,r3,r3,r2
 2004510:	00002b06 	br	20045c0 <cosf+0x128>

    /* argument reduction needed */
	else {
	    n = __ieee754_rem_pio2f(x,y);
 2004514:	e0bffc04 	addi	r2,fp,-16
 2004518:	100b883a 	mov	r5,r2
 200451c:	e13fff17 	ldw	r4,-4(fp)
 2004520:	200532c0 	call	200532c <__ieee754_rem_pio2f>
 2004524:	e0bffb15 	stw	r2,-20(fp)
	    switch(n&3) {
 2004528:	e0bffb17 	ldw	r2,-20(fp)
 200452c:	108000cc 	andi	r2,r2,3
 2004530:	10c00060 	cmpeqi	r3,r2,1
 2004534:	18000a1e 	bne	r3,zero,2004560 <cosf+0xc8>
 2004538:	10c000a0 	cmpeqi	r3,r2,2
 200453c:	1800111e 	bne	r3,zero,2004584 <cosf+0xec>
 2004540:	1000181e 	bne	r2,zero,20045a4 <cosf+0x10c>
		case 0: return  __kernel_cosf(y[0],y[1]);
 2004544:	e0bffc17 	ldw	r2,-16(fp)
 2004548:	e0fffd17 	ldw	r3,-12(fp)
 200454c:	180b883a 	mov	r5,r3
 2004550:	1009883a 	mov	r4,r2
 2004554:	20059a00 	call	20059a0 <__kernel_cosf>
 2004558:	1007883a 	mov	r3,r2
 200455c:	00001806 	br	20045c0 <cosf+0x128>
		case 1: return -__kernel_sinf(y[0],y[1],1);
 2004560:	e0bffc17 	ldw	r2,-16(fp)
 2004564:	e0fffd17 	ldw	r3,-12(fp)
 2004568:	01800044 	movi	r6,1
 200456c:	180b883a 	mov	r5,r3
 2004570:	1009883a 	mov	r4,r2
 2004574:	2006a040 	call	2006a04 <__kernel_sinf>
 2004578:	1007883a 	mov	r3,r2
 200457c:	1807f872 	custom	225,r3,r3,zero
 2004580:	00000f06 	br	20045c0 <cosf+0x128>
		case 2: return -__kernel_cosf(y[0],y[1]);
 2004584:	e0bffc17 	ldw	r2,-16(fp)
 2004588:	e0fffd17 	ldw	r3,-12(fp)
 200458c:	180b883a 	mov	r5,r3
 2004590:	1009883a 	mov	r4,r2
 2004594:	20059a00 	call	20059a0 <__kernel_cosf>
 2004598:	1007883a 	mov	r3,r2
 200459c:	1807f872 	custom	225,r3,r3,zero
 20045a0:	00000706 	br	20045c0 <cosf+0x128>
		default:
		        return  __kernel_sinf(y[0],y[1],1);
 20045a4:	e0bffc17 	ldw	r2,-16(fp)
 20045a8:	e0fffd17 	ldw	r3,-12(fp)
 20045ac:	01800044 	movi	r6,1
 20045b0:	180b883a 	mov	r5,r3
 20045b4:	1009883a 	mov	r4,r2
 20045b8:	2006a040 	call	2006a04 <__kernel_sinf>
 20045bc:	1007883a 	mov	r3,r2
 20045c0:	1805883a 	mov	r2,r3
	    }
	}
}
 20045c4:	e037883a 	mov	sp,fp
 20045c8:	dfc00117 	ldw	ra,4(sp)
 20045cc:	df000017 	ldw	fp,0(sp)
 20045d0:	dec00204 	addi	sp,sp,8
 20045d4:	f800283a 	ret

020045d8 <sinf>:
	float sinf(float x)
#else
	float sinf(x)
	float x;
#endif
{
 20045d8:	defff704 	addi	sp,sp,-36
 20045dc:	dfc00815 	stw	ra,32(sp)
 20045e0:	df000715 	stw	fp,28(sp)
 20045e4:	df000704 	addi	fp,sp,28
 20045e8:	e13fff15 	stw	r4,-4(fp)
	float y[2],z=0.0;
 20045ec:	e03ff915 	stw	zero,-28(fp)
	__int32_t n,ix;

	GET_FLOAT_WORD(ix,x);
 20045f0:	e0bfff17 	ldw	r2,-4(fp)
 20045f4:	e0bffe15 	stw	r2,-8(fp)
 20045f8:	e0bffe17 	ldw	r2,-8(fp)
 20045fc:	e0bffa15 	stw	r2,-24(fp)

    /* |x| ~< pi/4 */
	ix &= 0x7fffffff;
 2004600:	e0fffa17 	ldw	r3,-24(fp)
 2004604:	00a00034 	movhi	r2,32768
 2004608:	10bfffc4 	addi	r2,r2,-1
 200460c:	1884703a 	and	r2,r3,r2
 2004610:	e0bffa15 	stw	r2,-24(fp)
	if(ix <= 0x3f490fd8) return __kernel_sinf(x,z,0);
 2004614:	e0fffa17 	ldw	r3,-24(fp)
 2004618:	008fd274 	movhi	r2,16201
 200461c:	1083f604 	addi	r2,r2,4056
 2004620:	10c00616 	blt	r2,r3,200463c <sinf+0x64>
 2004624:	000d883a 	mov	r6,zero
 2004628:	e17ff917 	ldw	r5,-28(fp)
 200462c:	e13fff17 	ldw	r4,-4(fp)
 2004630:	2006a040 	call	2006a04 <__kernel_sinf>
 2004634:	1007883a 	mov	r3,r2
 2004638:	00003206 	br	2004704 <sinf+0x12c>

    /* sin(Inf or NaN) is NaN */
	else if (!FLT_UWORD_IS_FINITE(ix)) return x-x;
 200463c:	e0fffa17 	ldw	r3,-24(fp)
 2004640:	009fe034 	movhi	r2,32640
 2004644:	18800416 	blt	r3,r2,2004658 <sinf+0x80>
 2004648:	e0ffff17 	ldw	r3,-4(fp)
 200464c:	e0bfff17 	ldw	r2,-4(fp)
 2004650:	1887ffb2 	custom	254,r3,r3,r2
 2004654:	00002b06 	br	2004704 <sinf+0x12c>

    /* argument reduction needed */
	else {
	    n = __ieee754_rem_pio2f(x,y);
 2004658:	e0bffc04 	addi	r2,fp,-16
 200465c:	100b883a 	mov	r5,r2
 2004660:	e13fff17 	ldw	r4,-4(fp)
 2004664:	200532c0 	call	200532c <__ieee754_rem_pio2f>
 2004668:	e0bffb15 	stw	r2,-20(fp)
	    switch(n&3) {
 200466c:	e0bffb17 	ldw	r2,-20(fp)
 2004670:	108000cc 	andi	r2,r2,3
 2004674:	10c00060 	cmpeqi	r3,r2,1
 2004678:	18000b1e 	bne	r3,zero,20046a8 <sinf+0xd0>
 200467c:	10c000a0 	cmpeqi	r3,r2,2
 2004680:	1800101e 	bne	r3,zero,20046c4 <sinf+0xec>
 2004684:	1000181e 	bne	r2,zero,20046e8 <sinf+0x110>
		case 0: return  __kernel_sinf(y[0],y[1],1);
 2004688:	e0bffc17 	ldw	r2,-16(fp)
 200468c:	e0fffd17 	ldw	r3,-12(fp)
 2004690:	01800044 	movi	r6,1
 2004694:	180b883a 	mov	r5,r3
 2004698:	1009883a 	mov	r4,r2
 200469c:	2006a040 	call	2006a04 <__kernel_sinf>
 20046a0:	1007883a 	mov	r3,r2
 20046a4:	00001706 	br	2004704 <sinf+0x12c>
		case 1: return  __kernel_cosf(y[0],y[1]);
 20046a8:	e0bffc17 	ldw	r2,-16(fp)
 20046ac:	e0fffd17 	ldw	r3,-12(fp)
 20046b0:	180b883a 	mov	r5,r3
 20046b4:	1009883a 	mov	r4,r2
 20046b8:	20059a00 	call	20059a0 <__kernel_cosf>
 20046bc:	1007883a 	mov	r3,r2
 20046c0:	00001006 	br	2004704 <sinf+0x12c>
		case 2: return -__kernel_sinf(y[0],y[1],1);
 20046c4:	e0bffc17 	ldw	r2,-16(fp)
 20046c8:	e0fffd17 	ldw	r3,-12(fp)
 20046cc:	01800044 	movi	r6,1
 20046d0:	180b883a 	mov	r5,r3
 20046d4:	1009883a 	mov	r4,r2
 20046d8:	2006a040 	call	2006a04 <__kernel_sinf>
 20046dc:	1007883a 	mov	r3,r2
 20046e0:	1807f872 	custom	225,r3,r3,zero
 20046e4:	00000706 	br	2004704 <sinf+0x12c>
		default:
			return -__kernel_cosf(y[0],y[1]);
 20046e8:	e0bffc17 	ldw	r2,-16(fp)
 20046ec:	e0fffd17 	ldw	r3,-12(fp)
 20046f0:	180b883a 	mov	r5,r3
 20046f4:	1009883a 	mov	r4,r2
 20046f8:	20059a00 	call	20059a0 <__kernel_cosf>
 20046fc:	1007883a 	mov	r3,r2
 2004700:	1807f872 	custom	225,r3,r3,zero
 2004704:	1805883a 	mov	r2,r3
	    }
	}
}
 2004708:	e037883a 	mov	sp,fp
 200470c:	dfc00117 	ldw	ra,4(sp)
 2004710:	df000017 	ldw	fp,0(sp)
 2004714:	dec00204 	addi	sp,sp,8
 2004718:	f800283a 	ret

0200471c <sqrt>:
	double sqrt(double x)		/* wrapper sqrt */
#else
	double sqrt(x)			/* wrapper sqrt */
	double x;
#endif
{
 200471c:	defff104 	addi	sp,sp,-60
 2004720:	dfc00e15 	stw	ra,56(sp)
 2004724:	df000d15 	stw	fp,52(sp)
 2004728:	df000d04 	addi	fp,sp,52
 200472c:	e13ffe15 	stw	r4,-8(fp)
 2004730:	e17fff15 	stw	r5,-4(fp)
#ifdef _IEEE_LIBM
	return __ieee754_sqrt(x);
#else
	struct exception exc;
	double z;
	z = __ieee754_sqrt(x);
 2004734:	e13ffe17 	ldw	r4,-8(fp)
 2004738:	e17fff17 	ldw	r5,-4(fp)
 200473c:	20048d00 	call	20048d0 <__ieee754_sqrt>
 2004740:	e0bff315 	stw	r2,-52(fp)
 2004744:	e0fff415 	stw	r3,-48(fp)
	if(_LIB_VERSION == _IEEE_ || isnan(x)) return z;
 2004748:	d0a02817 	ldw	r2,-32608(gp)
 200474c:	10bfffe0 	cmpeqi	r2,r2,-1
 2004750:	1000041e 	bne	r2,zero,2004764 <sqrt+0x48>
 2004754:	e13ffe17 	ldw	r4,-8(fp)
 2004758:	e17fff17 	ldw	r5,-4(fp)
 200475c:	20043940 	call	2004394 <__fpclassifyd>
 2004760:	1000031e 	bne	r2,zero,2004770 <sqrt+0x54>
 2004764:	e0bff317 	ldw	r2,-52(fp)
 2004768:	e0fff417 	ldw	r3,-48(fp)
 200476c:	00003f06 	br	200486c <sqrt+0x150>
	if(x<0.0) {
 2004770:	000d883a 	mov	r6,zero
 2004774:	000f883a 	mov	r7,zero
 2004778:	e13ffe17 	ldw	r4,-8(fp)
 200477c:	e17fff17 	ldw	r5,-4(fp)
 2004780:	200883c0 	call	200883c <__ledf2>
 2004784:	1000370e 	bge	r2,zero,2004864 <sqrt+0x148>
	  exc.type = DOMAIN;
 2004788:	00800044 	movi	r2,1
 200478c:	e0bff515 	stw	r2,-44(fp)
	  exc.name = "sqrt";
 2004790:	008080b4 	movhi	r2,514
 2004794:	108b0004 	addi	r2,r2,11264
 2004798:	e0bff615 	stw	r2,-40(fp)
	  exc.err = 0;
 200479c:	e03ffd15 	stw	zero,-12(fp)
