
comm.elf:     file format elf32-littlenios2
comm.elf
architecture: nios2:r1, flags 0x00000112:
EXEC_P, HAS_SYMS, D_PAGED
start address 0x02000230

Program Header:
    LOAD off    0x00001000 vaddr 0x02000000 paddr 0x02000000 align 2**12
         filesz 0x00000020 memsz 0x00000020 flags r-x
    LOAD off    0x00001020 vaddr 0x02000020 paddr 0x02000020 align 2**12
         filesz 0x0001b940 memsz 0x0001b940 flags r-x
    LOAD off    0x0001c960 vaddr 0x0201b960 paddr 0x0201d4d8 align 2**12
         filesz 0x00001b78 memsz 0x00001b78 flags rw-
    LOAD off    0x0001f050 vaddr 0x0201f050 paddr 0x0201f050 align 2**12
         filesz 0x00000000 memsz 0x00009408 flags rw-

Sections:
Idx Name          Size      VMA       LMA       File off  Algn
  0 .entry        00000020  02000000  02000000  00001000  2**5
                  CONTENTS, ALLOC, LOAD, READONLY, CODE
  1 .exceptions   00000210  02000020  02000020  00001020  2**2
                  CONTENTS, ALLOC, LOAD, READONLY, CODE
  2 .text         0001b204  02000230  02000230  00001230  2**2
                  CONTENTS, ALLOC, LOAD, READONLY, CODE
  3 .rodata       0000052c  0201b434  0201b434  0001c434  2**2
                  CONTENTS, ALLOC, LOAD, READONLY, DATA
  4 .rwdata       00001b78  0201b960  0201d4d8  0001c960  2**2
                  CONTENTS, ALLOC, LOAD, DATA, SMALL_DATA
  5 .bss          00009408  0201f050  0201f050  0001f050  2**2
                  ALLOC, SMALL_DATA
  6 .mem_Nios_PI  00000000  00200000  00200000  0001e4d8  2**0
                  CONTENTS
  7 .sdram_controller 00000000  02028458  02028458  0001e4d8  2**0
                  CONTENTS
  8 .comment      00000023  00000000  00000000  0001e4d8  2**0
                  CONTENTS, READONLY
  9 .debug_aranges 00001250  00000000  00000000  0001e500  2**3
                  CONTENTS, READONLY, DEBUGGING
 10 .debug_info   000303fa  00000000  00000000  0001f750  2**0
                  CONTENTS, READONLY, DEBUGGING
 11 .debug_abbrev 0000bebd  00000000  00000000  0004fb4a  2**0
                  CONTENTS, READONLY, DEBUGGING
 12 .debug_line   0000f4a2  00000000  00000000  0005ba07  2**0
                  CONTENTS, READONLY, DEBUGGING
 13 .debug_frame  00003610  00000000  00000000  0006aeac  2**2
                  CONTENTS, READONLY, DEBUGGING
 14 .debug_str    0000537e  00000000  00000000  0006e4bc  2**0
                  CONTENTS, READONLY, DEBUGGING
 15 .debug_loc    0001ab71  00000000  00000000  0007383a  2**0
                  CONTENTS, READONLY, DEBUGGING
 16 .debug_alt_sim_info 00000010  00000000  00000000  0008e3ac  2**2
                  CONTENTS, READONLY, DEBUGGING
 17 .debug_ranges 00001f38  00000000  00000000  0008e3c0  2**3
                  CONTENTS, READONLY, DEBUGGING
 18 .thread_model 00000006  00000000  00000000  000952aa  2**0
                  CONTENTS, READONLY
 19 .cpu          00000003  00000000  00000000  000952b0  2**0
                  CONTENTS, READONLY
 20 .qsys         00000001  00000000  00000000  000952b3  2**0
                  CONTENTS, READONLY
 21 .simulation_enabled 00000001  00000000  00000000  000952b4  2**0
                  CONTENTS, READONLY
 22 .sysid_hash   00000004  00000000  00000000  000952b5  2**0
                  CONTENTS, READONLY
 23 .sysid_base   00000004  00000000  00000000  000952b9  2**0
                  CONTENTS, READONLY
 24 .sysid_time   00000004  00000000  00000000  000952bd  2**0
                  CONTENTS, READONLY
 25 .stderr_dev   00000009  00000000  00000000  000952c1  2**0
                  CONTENTS, READONLY
 26 .stdin_dev    00000009  00000000  00000000  000952ca  2**0
                  CONTENTS, READONLY
 27 .stdout_dev   00000009  00000000  00000000  000952d3  2**0
                  CONTENTS, READONLY
 28 .sopc_system_name 00000009  00000000  00000000  000952dc  2**0
                  CONTENTS, READONLY
 29 .quartus_project_dir 0000003f  00000000  00000000  000952e5  2**0
                  CONTENTS, READONLY
 30 .jdi          0000380b  00000000  00000000  00095324  2**0
                  CONTENTS, READONLY
 31 .sopcinfo     0005203d  00000000  00000000  00098b2f  2**0
                  CONTENTS, READONLY
SYMBOL TABLE:
02000000 l    d  .entry	00000000 .entry
02000020 l    d  .exceptions	00000000 .exceptions
02000230 l    d  .text	00000000 .text
0201b434 l    d  .rodata	00000000 .rodata
0201b960 l    d  .rwdata	00000000 .rwdata
0201f050 l    d  .bss	00000000 .bss
00200000 l    d  .mem_Nios_PI	00000000 .mem_Nios_PI
02028458 l    d  .sdram_controller	00000000 .sdram_controller
00000000 l    d  .comment	00000000 .comment
00000000 l    d  .debug_aranges	00000000 .debug_aranges
00000000 l    d  .debug_info	00000000 .debug_info
00000000 l    d  .debug_abbrev	00000000 .debug_abbrev
00000000 l    d  .debug_line	00000000 .debug_line
00000000 l    d  .debug_frame	00000000 .debug_frame
00000000 l    d  .debug_str	00000000 .debug_str
00000000 l    d  .debug_loc	00000000 .debug_loc
00000000 l    d  .debug_alt_sim_info	00000000 .debug_alt_sim_info
00000000 l    d  .debug_ranges	00000000 .debug_ranges
00000000 l    df *ABS*	00000000 ../comm_bsp//obj/HAL/src/crt0.o
02000268 l       .text	00000000 alt_after_alt_main
00000000 l    df *ABS*	00000000 alt_irq_handler.c
00000000 l    df *ABS*	00000000 alt_instruction_exception_entry.c
00000000 l    df *ABS*	00000000 hello_ucosii.c
00000000 l    df *ABS*	00000000 physics.c
00000000 l    df *ABS*	00000000 wf_sqrt.c
00000000 l    df *ABS*	00000000 ef_sqrt.c
00000000 l    df *ABS*	00000000 s_lib_ver.c
00000000 l    df *ABS*	00000000 s_matherr.c
00000000 l    df *ABS*	00000000 sf_fpclassify.c
00000000 l    df *ABS*	00000000 lib2-mul.c
00000000 l    df *ABS*	00000000 addsf3.c
00000000 l    df *ABS*	00000000 divsf3.c
00000000 l    df *ABS*	00000000 gesf2.c
00000000 l    df *ABS*	00000000 lesf2.c
00000000 l    df *ABS*	00000000 mulsf3.c
00000000 l    df *ABS*	00000000 subsf3.c
00000000 l    df *ABS*	00000000 fixsfsi.c
00000000 l    df *ABS*	00000000 floatsisf.c
00000000 l    df *ABS*	00000000 divdf3.c
00000000 l    df *ABS*	00000000 gedf2.c
00000000 l    df *ABS*	00000000 muldf3.c
00000000 l    df *ABS*	00000000 extendsfdf2.c
00000000 l    df *ABS*	00000000 truncdfsf2.c
00000000 l    df *ABS*	00000000 libgcc2.c
00000000 l    df *ABS*	00000000 lib2-divmod.c
00000000 l    df *ABS*	00000000 libgcc2.c
00000000 l    df *ABS*	00000000 errno.c
00000000 l    df *ABS*	00000000 impure.c
0201b960 l     O .rwdata	00000424 impure_data
00000000 l    df *ABS*	00000000 printf.c
00000000 l    df *ABS*	00000000 puts.c
00000000 l    df *ABS*	00000000 strlen.c
00000000 l    df *ABS*	00000000 vfprintf.c
0201b68e l     O .rodata	00000010 zeroes.4404
02006b68 l     F .text	000000bc __sbprintf
0201b69e l     O .rodata	00000010 blanks.4403
00000000 l    df *ABS*	00000000 wsetup.c
00000000 l    df *ABS*	00000000 dtoa.c
02006d78 l     F .text	00000228 quorem
00000000 l    df *ABS*	00000000 fflush.c
00000000 l    df *ABS*	00000000 findfp.c
020088d0 l     F .text	00000008 __fp_unlock
020088e4 l     F .text	0000019c __sinit.part.1
02008a80 l     F .text	00000008 __fp_lock
00000000 l    df *ABS*	00000000 mallocr.c
00000000 l    df *ABS*	00000000 fvwrite.c
00000000 l    df *ABS*	00000000 fwalk.c
00000000 l    df *ABS*	00000000 locale.c
0201bda4 l     O .rwdata	00000020 lc_ctype_charset
0201bd84 l     O .rwdata	00000020 lc_message_charset
0201bdc4 l     O .rwdata	00000038 lconv
00000000 l    df *ABS*	00000000 makebuf.c
00000000 l    df *ABS*	00000000 mallocr.c
00000000 l    df *ABS*	00000000 memchr.c
00000000 l    df *ABS*	00000000 memcpy.c
00000000 l    df *ABS*	00000000 memmove.c
00000000 l    df *ABS*	00000000 memset.c
00000000 l    df *ABS*	00000000 mprec.c
0201b6cc l     O .rodata	0000000c p05.2768
00000000 l    df *ABS*	00000000 mallocr.c
00000000 l    df *ABS*	00000000 s_fpclassify.c
00000000 l    df *ABS*	00000000 sbrkr.c
00000000 l    df *ABS*	00000000 stdio.c
00000000 l    df *ABS*	00000000 strcmp.c
00000000 l    df *ABS*	00000000 vfprintf.c
0200bf54 l     F .text	000000fc __sprint_r.part.0
0201b7f0 l     O .rodata	00000010 zeroes.4349
0200d590 l     F .text	000000bc __sbprintf
0201b800 l     O .rodata	00000010 blanks.4348
00000000 l    df *ABS*	00000000 writer.c
00000000 l    df *ABS*	00000000 closer.c
00000000 l    df *ABS*	00000000 mallocr.c
00000000 l    df *ABS*	00000000 fclose.c
00000000 l    df *ABS*	00000000 fputwc.c
00000000 l    df *ABS*	00000000 fstatr.c
00000000 l    df *ABS*	00000000 int_errno.c
00000000 l    df *ABS*	00000000 isattyr.c
00000000 l    df *ABS*	00000000 lseekr.c
00000000 l    df *ABS*	00000000 readr.c
00000000 l    df *ABS*	00000000 wbuf.c
00000000 l    df *ABS*	00000000 wcrtomb.c
00000000 l    df *ABS*	00000000 wctomb_r.c
00000000 l    df *ABS*	00000000 libgcc2.c
00000000 l    df *ABS*	00000000 libgcc2.c
00000000 l    df *ABS*	00000000 adddf3.c
00000000 l    df *ABS*	00000000 eqdf2.c
00000000 l    df *ABS*	00000000 ledf2.c
00000000 l    df *ABS*	00000000 subdf3.c
00000000 l    df *ABS*	00000000 fixdfsi.c
00000000 l    df *ABS*	00000000 floatsidf.c
00000000 l    df *ABS*	00000000 floatunsidf.c
00000000 l    df *ABS*	00000000 alt_close.c
02010080 l     F .text	0000003c alt_get_errno
00000000 l    df *ABS*	00000000 alt_dev.c
02010194 l     F .text	0000002c alt_dev_null_write
00000000 l    df *ABS*	00000000 alt_errno.c
00000000 l    df *ABS*	00000000 alt_fstat.c
020101c0 l     F .text	0000003c alt_get_errno
00000000 l    df *ABS*	00000000 alt_isatty.c
020102b4 l     F .text	0000003c alt_get_errno
00000000 l    df *ABS*	00000000 alt_load.c
0201039c l     F .text	00000068 alt_load_section
00000000 l    df *ABS*	00000000 alt_lseek.c
02010488 l     F .text	0000003c alt_get_errno
00000000 l    df *ABS*	00000000 alt_main.c
00000000 l    df *ABS*	00000000 alt_read.c
0201065c l     F .text	0000003c alt_get_errno
00000000 l    df *ABS*	00000000 alt_release_fd.c
00000000 l    df *ABS*	00000000 alt_sbrk.c
0201d44c l     O .rwdata	00000004 heap_end
00000000 l    df *ABS*	00000000 alt_write.c
020108d0 l     F .text	0000003c alt_get_errno
00000000 l    df *ABS*	00000000 alt_env_lock.c
0201d450 l     O .rwdata	00000004 lockid
0201f09c l     O .bss	00000004 locks
00000000 l    df *ABS*	00000000 alt_malloc_lock.c
0201d454 l     O .rwdata	00000004 lockid
0201f0a4 l     O .bss	00000004 locks
00000000 l    df *ABS*	00000000 os_core.c
02012308 l     F .text	00000048 OS_InitMisc
02012350 l     F .text	0000006c OS_InitRdyList
020124bc l     F .text	000000e4 OS_InitTCBList
02012228 l     F .text	000000e0 OS_InitEventList
020123bc l     F .text	00000080 OS_InitTaskIdle
0201243c l     F .text	00000080 OS_InitTaskStat
0201272c l     F .text	00000074 OS_SchedNew
00000000 l    df *ABS*	00000000 os_dbg.c
00000000 l    df *ABS*	00000000 os_flag.c
0201443c l     F .text	000000f4 OS_FlagTaskRdy
020141fc l     F .text	00000160 OS_FlagBlock
00000000 l    df *ABS*	00000000 os_mbox.c
00000000 l    df *ABS*	00000000 os_mem.c
00000000 l    df *ABS*	00000000 os_q.c
00000000 l    df *ABS*	00000000 os_sem.c
00000000 l    df *ABS*	00000000 os_task.c
00000000 l    df *ABS*	00000000 os_time.c
00000000 l    df *ABS*	00000000 alt_sys_init.c
02018fdc l     F .text	00000034 alt_dev_reg
0201c3ac l     O .rwdata	0000106c jtag_uart
00000000 l    df *ABS*	00000000 altera_avalon_jtag_uart_fd.c
00000000 l    df *ABS*	00000000 altera_avalon_jtag_uart_init.c
02019354 l     F .text	000002a4 altera_avalon_jtag_uart_irq
020195f8 l     F .text	00000104 altera_avalon_jtag_uart_timeout
00000000 l    df *ABS*	00000000 altera_avalon_jtag_uart_ioctl.c
00000000 l    df *ABS*	00000000 altera_avalon_jtag_uart_read.c
00000000 l    df *ABS*	00000000 altera_avalon_jtag_uart_write.c
00000000 l    df *ABS*	00000000 altera_avalon_timer_sc.c
02019dd4 l     F .text	00000078 alt_avalon_timer_sc_irq
00000000 l    df *ABS*	00000000 alt_alarm_start.c
00000000 l    df *ABS*	00000000 alt_dcache_flush_all.c
00000000 l    df *ABS*	00000000 alt_dev_llist_insert.c
0201a014 l     F .text	0000003c alt_get_errno
00000000 l    df *ABS*	00000000 alt_do_ctors.c
00000000 l    df *ABS*	00000000 alt_do_dtors.c
00000000 l    df *ABS*	00000000 alt_icache_flush_all.c
00000000 l    df *ABS*	00000000 alt_iic.c
00000000 l    df *ABS*	00000000 alt_iic_isr_register.c
00000000 l    df *ABS*	00000000 alt_io_redirect.c
0201a474 l     F .text	000000e4 alt_open_fd
00000000 l    df *ABS*	00000000 alt_irq_vars.c
00000000 l    df *ABS*	00000000 alt_open.c
0201a5d4 l     F .text	0000003c alt_get_errno
0201a610 l     F .text	000000ec alt_file_locked
00000000 l    df *ABS*	00000000 alt_tick.c
00000000 l    df *ABS*	00000000 altera_nios2_gen2_irq.c
00000000 l    df *ABS*	00000000 os_cpu_a.o
00000040 l       *ABS*	00000000 OSCtxSw_SWITCH_PC
00000000 l    df *ABS*	00000000 os_cpu_c.c
00000014 l       *ABS*	00000000 OSTCBNext_OFFSET
00000032 l       *ABS*	00000000 OSTCBPrio_OFFSET
00000000 l       *ABS*	00000000 OSTCBStkPtr_OFFSET
00000000 l    df *ABS*	00000000 alt_find_dev.c
00000000 l    df *ABS*	00000000 alt_find_file.c
00000000 l    df *ABS*	00000000 alt_get_fd.c
00000000 l    df *ABS*	00000000 atexit.c
00000000 l    df *ABS*	00000000 exit.c
00000000 l    df *ABS*	00000000 memcmp.c
00000000 l    df *ABS*	00000000 __atexit.c
00000000 l    df *ABS*	00000000 __call_atexit.c
00000000 l    df *ABS*	00000000 alt_exit.c
0201f108 g     O .bss	00000004 alt_instruction_exception_handler
0200b598 g     F .text	00000074 _mprec_log10
0201d4a2 g     O .rwdata	00000002 OSTaskNameSize
0200b684 g     F .text	0000008c __any_on
0200db44 g     F .text	00000054 _isatty_r
0201b6d8 g     O .rodata	00000028 __mprec_tinytens
020105a0 g     F .text	000000bc alt_main
02004704 g     F .text	000000c0 _puts_r
02028358 g     O .bss	00000100 alt_irq
0201f050 g     O .bss	00000004 MailBox6
0200db98 g     F .text	00000060 _lseek_r
02015724 g     F .text	000000d8 OS_MemInit
0201d4d8 g       *ABS*	00000000 __flash_rwdata_start
02018f7c g     F .text	00000060 OSTimeSet
0200f404 g     F .text	00000088 .hidden __eqdf2
02010f7c g     F .text	00000610 OSEventPendMulti
02028458 g       *ABS*	00000000 __alt_heap_start
0201ac4c g     F .text	00000024 OSTaskCreateHook
0201f134 g     O .bss	00002000 task1_stk
020046c8 g     F .text	0000003c printf
0201d47a g     O .rwdata	00000002 OSMboxEn
020115e4 g     F .text	0000004c OSIntEnter
0200ddb0 g     F .text	0000009c _wcrtomb_r
0200be14 g     F .text	0000005c __sseek
02008c30 g     F .text	00000010 __sinit
0200dc58 g     F .text	00000140 __swbuf_r
0201d48a g     O .rwdata	00000002 OSQEn
02009704 g     F .text	0000007c _setlocale_r
02008a88 g     F .text	00000078 __sfmoreglue
02010c50 g     F .text	000000cc __malloc_unlock
0201acb4 g     F .text	00000020 OSTaskStatHook
0201f0ac g     O .bss	00000001 OSLockNesting
02001e34 g     F .text	00000440 .hidden __divsf3
0201d4c8 g     O .rwdata	00000002 OSDataSize
0201f0ad g     O .bss	00000001 OSRunning
0200a3d4 g     F .text	0000015c memmove
0201acf4 g     F .text	00000020 OSInitHookBegin
0201d4c0 g     O .rwdata	00000002 OSTmrSize
02008c18 g     F .text	00000018 _cleanup
0200a658 g     F .text	000000a8 _Balloc
02002d0c g     F .text	00000070 .hidden __fixsfsi
0201f0b0 g     O .bss	00000004 OSIdleCtr
02003870 g     F .text	000000dc .hidden __gtdf2
0201a9fc g     F .text	00000024 altera_nios2_gen2_irq_init
0201aacc g       .text	00000000 OSStartTsk
02004688 g     F .text	00000010 __errno
02012a5c g     F .text	000002d4 OS_TCBInit
02000000 g     F .entry	0000000c __reset
00200000 g       *ABS*	00000000 __alt_mem_mem_Nios_PI
0201d4c6 g     O .rwdata	00000002 OSTmrWheelTblSize
02000020 g       *ABS*	00000000 __flash_exceptions_start
0201d466 g     O .rwdata	00000002 OSEventSize
0201f0b4 g     O .bss	00000001 OSPrioHighRdy
0200dae8 g     F .text	0000005c _fstat_r
0201ac70 g     F .text	00000024 OSTaskDelHook
0201f088 g     O .bss	00000004 errno
0200bd90 g     F .text	00000008 __seofread
0201aaac g       .text	00000000 OSStartHighRdy
020179fc g     F .text	000001e4 OSTaskCreateExt
02000000 g       *ABS*	00000000 __alt_mem_sdram_controller
02013d44 g     F .text	00000060 OSFlagPendGetFlagsRdy
0201d4a6 g     O .rwdata	00000002 OSTaskStatStkSize
02012ec0 g     F .text	00000308 OSFlagAccept
02015d68 g     F .text	000000b8 OSQFlush
020157fc g     F .text	00000140 OSQAccept
0201f094 g     O .bss	00000004 alt_argv
02025418 g       *ABS*	00000000 _gp
02002828 g     F .text	000004e4 .hidden __subsf3
02017850 g     F .text	000001ac OSTaskCreate
02017360 g     F .text	000004f0 OSTaskChangePrio
0201f0a8 g     O .bss	00000004 alt_heapsem
02012d30 g     F .text	00000190 OSDebugInit
02017be0 g     F .text	00000344 OSTaskDel
0200167c g     F .text	00000114 sqrtf
0201c22c g     O .rwdata	00000180 alt_fd_list
02025134 g     O .bss	00000370 OSFlagTbl
02012008 g     F .text	000000b8 OS_EventTaskRemove
0201ad78 g     F .text	00000090 alt_find_dev
0200a28c g     F .text	00000148 memcpy
0201d490 g     O .rwdata	00000002 OSRdyTblSize
0201f054 g     O .bss	00000004 MailBox3
020088d8 g     F .text	0000000c _cleanup_r
0200fefc g     F .text	000000dc .hidden __floatsidf
0201a558 g     F .text	0000007c alt_io_redirect
0200f48c g     F .text	000000f4 .hidden __ltdf2
0201b434 g       *ABS*	00000000 __DTOR_END__
020047c4 g     F .text	00000014 puts
0201b004 g     F .text	0000009c alt_exception_cause_generated_bad_addr
02010d1c g     F .text	00000120 OSEventNameGet
0201d474 g     O .rwdata	00000002 OSFlagMax
0200bc74 g     F .text	00000074 __fpclassifyd
0200b4f4 g     F .text	000000a4 __ratio
02011630 g     F .text	000000f8 OSIntExit
0200d574 g     F .text	0000001c __vfiprintf_internal
0201d4ae g     O .rwdata	00000002 OSTCBSize
0201f0b5 g     O .bss	00000001 OSPrioCur
02019854 g     F .text	000002bc altera_avalon_jtag_uart_read
02004698 g     F .text	00000030 _printf_r
020045cc g     F .text	00000064 .hidden __udivsi3
020102f0 g     F .text	000000ac isatty
0201d494 g     O .rwdata	00000002 OSStkWidth
0201b728 g     O .rodata	000000c8 __mprec_tens
0201d488 g     O .rwdata	00000002 OSPtrSize
02009780 g     F .text	0000000c __locale_charset
02002330 g     F .text	000000c8 .hidden __lesf2
0201d468 g     O .rwdata	00000002 OSEventTblSize
0201aa20 g       .text	00000000 OSCtxSw
0201f084 g     O .bss	00000004 __malloc_top_pad
0201f0b8 g     O .bss	00000004 OSTCBList
020018ec g     F .text	00000058 __fpclassifyf
0201f08c g     O .bss	00000004 alt_fd_list_lock
0201d424 g     O .rwdata	00000004 __mb_cur_max
020097b0 g     F .text	0000000c _localeconv_r
0200aa8c g     F .text	0000003c __i2b
020090b4 g     F .text	000004c8 __sfvwrite_r
020254a4 g     O .bss	00000c30 OSMemTbl
0201f0bc g     O .bss	00000001 OSTickStepState
0200bce8 g     F .text	00000054 _sbrk_r
0201d48c g     O .rwdata	00000002 OSQMax
020260d4 g     O .bss	00000800 OSTaskStatStk
02015360 g     F .text	000000f0 OSMemNameGet
0201d46c g     O .rwdata	00000002 OSFlagEn
0200dbf8 g     F .text	00000060 _read_r
0201d4b2 g     O .rwdata	00000002 OSTimeTickHookEn
02016218 g     F .text	00000168 OSQPost
02014530 g     F .text	000000a4 OS_FlagUnlink
0201d444 g     O .rwdata	00000004 alt_max_fd
020125f4 g     F .text	00000068 OS_MemCopy
0201265c g     F .text	000000d0 OS_Sched
0200d7dc g     F .text	000000f0 _fclose_r
02015270 g     F .text	000000f0 OSMemGet
02014f8c g     F .text	00000110 OSMboxQuery
0201820c g     F .text	000001b4 OSTaskNameSet
020088a0 g     F .text	00000030 fflush
0201f080 g     O .bss	00000004 __malloc_max_sbrked_mem
0201f0c0 g     O .bss	00000004 OSCtxSwCtr
0201acd4 g     F .text	00000020 OSTimeTickHook
0201d476 g     O .rwdata	00000002 OSFlagNameSize
0201f058 g     O .bss	00000004 AnimationFlagGrp
020041b8 g     F .text	00000110 .hidden __extendsfdf2
020120c0 g     F .text	00000100 OS_EventTaskRemoveMulti
0200eb58 g     F .text	000008ac .hidden __adddf3
02011eb8 g     F .text	00000150 OS_EventTaskWaitMulti
0200b29c g     F .text	0000010c __b2d
0201d48e g     O .rwdata	00000002 OSQSize
0200e594 g     F .text	000005c4 .hidden __umoddi3
020104c4 g     F .text	000000dc lseek
02016cc8 g     F .text	0000020c OSSemPend
0201d418 g     O .rwdata	00000004 __fdlib_version
0201d41c g     O .rwdata	00000004 _global_impure_ptr
0200b710 g     F .text	00000564 _realloc_r
0201d478 g     O .rwdata	00000002 OSLowestPrio
02028458 g       *ABS*	00000000 __bss_end
0201a384 g     F .text	000000f0 alt_iic_isr_register
0201ad54 g     F .text	00000024 OSTCBInitHook
0201d4be g     O .rwdata	00000002 OSTmrCfgTicksPerSec
0201a8f4 g     F .text	00000108 alt_tick
02014d20 g     F .text	00000110 OSMboxPost
0200df98 g     F .text	000005fc .hidden __udivdi3
0200da44 g     F .text	00000024 _fputwc_r
0201d460 g     O .rwdata	00000002 OSEventEn
0201b700 g     O .rodata	00000028 __mprec_bigtens
0200a870 g     F .text	00000104 __s2b
0201d4ba g     O .rwdata	00000002 OSTmrCfgNameSize
0200ffd8 g     F .text	000000a8 .hidden __floatunsidf
0200afdc g     F .text	00000060 __mcmp
02008c50 g     F .text	00000018 __fp_lock_all
0201a338 g     F .text	0000004c alt_ic_irq_enabled
0201f05c g     O .bss	00000004 MailBox5
0201435c g     F .text	000000e0 OS_FlagInit
0201a858 g     F .text	0000009c alt_alarm_stop
0201d49c g     O .rwdata	00000002 OSTaskIdleStkSize
0201f0fc g     O .bss	00000004 alt_irq_active
02016900 g     F .text	000000b0 OSSemAccept
02015564 g     F .text	000000d8 OSMemPut
0201509c g     F .text	000001d4 OSMemCreate
0201f0c4 g     O .bss	00000004 OSIdleCtrMax
020000fc g     F .exceptions	000000d4 alt_irq_handler
0201c204 g     O .rwdata	00000028 alt_dev_null
0201d4b0 g     O .rwdata	00000002 OSTicksPerSec
0201aa20 g       .text	00000000 OSIntCtxSw
02019ff4 g     F .text	00000020 alt_dcache_flush_all
0200a974 g     F .text	00000068 __hi0bits
0200fe7c g     F .text	00000080 .hidden __fixdfsi
0201f0c8 g     O .bss	00000004 OSTCBFreeList
0201d4d8 g       *ABS*	00000000 __ram_rwdata_end
02016ed4 g     F .text	0000016c OSSemPendAbort
0201d43c g     O .rwdata	00000008 alt_dev_list
0201090c g     F .text	00000100 write
0201d4b4 g     O .rwdata	00000002 OSVersionNbr
02002274 g     F .text	000000bc .hidden __gtsf2
0201b960 g       *ABS*	00000000 __ram_rodata_end
020101fc g     F .text	000000b8 fstat
0200f48c g     F .text	000000f4 .hidden __ledf2
0201d45c g     O .rwdata	00000004 OSEndiannessTest
0200ad54 g     F .text	00000140 __pow5mult
0200c068 g     F .text	0000150c ___vfiprintf_internal_r
0201f078 g     O .bss	00000004 __nlocale_changed
02004630 g     F .text	00000058 .hidden __umodsi3
0201d46e g     O .rwdata	00000002 OSFlagGrpSize
02028458 g       *ABS*	00000000 end
0201920c g     F .text	00000148 altera_avalon_jtag_uart_init
020128c4 g     F .text	000000cc OS_TaskStat
020001d0 g     F .exceptions	00000060 alt_instruction_exception_entry
0201b434 g       *ABS*	00000000 __CTOR_LIST__
04000000 g       *ABS*	00000000 __alt_stack_pointer
02019e4c g     F .text	0000007c alt_avalon_timer_sc_init
02004470 g     F .text	00000064 .hidden __clzsi2
02019b10 g     F .text	000002c4 altera_avalon_jtag_uart_write
02008c40 g     F .text	00000004 __sfp_lock_acquire
0200a1a8 g     F .text	000000e4 memchr
020125a0 g     F .text	00000054 OS_MemClr
02004870 g     F .text	000022dc ___vfprintf_internal_r
0201aaf0 g     F .text	0000015c OSTaskStkInit
0200026c g     F .text	00000204 task1
02008da4 g     F .text	00000310 _free_r
0200978c g     F .text	00000010 __locale_mb_cur_max
02011c10 g     F .text	00000198 OS_EventTaskRdy
0201b280 g     F .text	00000180 __call_exitprocs
0201f0cc g     O .bss	00000001 OSCPUUsage
0201f074 g     O .bss	00000004 __mlocale_changed
0201d428 g     O .rwdata	00000004 __malloc_sbrk_base
02000230 g     F .text	0000003c _start
02000470 g     F .text	00000658 task2
0201f100 g     O .bss	00000004 _alt_tick_rate
02015e20 g     F .text	0000028c OSQPend
02018acc g     F .text	00000104 OSTimeDly
02001524 g     F .text	00000158 borderCollide
0200ae94 g     F .text	00000148 __lshift
0201f104 g     O .bss	00000004 _alt_nticks
02010698 g     F .text	00000104 read
02019048 g     F .text	00000060 alt_sys_init
02002d7c g     F .text	00000124 .hidden __floatsisf
0201b168 g     F .text	00000118 __register_exitproc
0201f0cd g     O .bss	00000001 OSTaskCtr
0201f060 g     O .bss	00000004 MailBox2
02018bd0 g     F .text	0000017c OSTimeDlyHMSM
0200aac8 g     F .text	0000028c __multiply
020196fc g     F .text	00000068 altera_avalon_jtag_uart_close
02001944 g     F .text	00000028 .hidden __mulsi3
0201b960 g       *ABS*	00000000 __ram_rwdata_start
0201b434 g       *ABS*	00000000 __ram_rodata_start
0201f10c g     O .bss	00000028 __malloc_current_mallinfo
0201d462 g     O .rwdata	00000002 OSEventMax
0200b3a8 g     F .text	0000014c __d2b
02017040 g     F .text	00000110 OSSemPost
020117b4 g     F .text	000000dc OSSchedUnlock
020190a8 g     F .text	00000060 altera_avalon_jtag_uart_read_fd
0201af10 g     F .text	000000f4 alt_get_fd
0201f0d0 g     O .bss	00000004 OSMemFreeList
02011900 g     F .text	000000b0 OSStatInit
02014138 g     F .text	000000c4 OSFlagQuery
0201d498 g     O .rwdata	00000002 OSTaskCreateExtEn
0200d6ac g     F .text	00000054 _close_r
0201b0ec g     F .text	0000007c memcmp
02011bf0 g     F .text	00000020 OS_Dummy
02019168 g     F .text	00000050 altera_avalon_jtag_uart_close_fd
02028458 g       *ABS*	00000000 __alt_stack_base
020191b8 g     F .text	00000054 altera_avalon_jtag_uart_ioctl_fd
02006c24 g     F .text	00000154 __swsetup_r
020268d4 g     O .bss	000001e0 OSQTbl
02002ea0 g     F .text	000009d0 .hidden __divdf3
02008b00 g     F .text	00000118 __sfp
0200b60c g     F .text	00000078 __copybits
0201bdfc g     O .rwdata	00000408 __malloc_av_
02008c4c g     F .text	00000004 __sinit_lock_release
0201f0d4 g     O .bss	00000004 OSTCBHighRdy
0200394c g     F .text	0000086c .hidden __muldf3
0200bd3c g     F .text	00000054 __sread
0201f0d8 g     O .bss	00000004 OSQFreeList
0201ae08 g     F .text	00000108 alt_find_file
0201a050 g     F .text	000000a4 alt_dev_llist_insert
02010b30 g     F .text	00000120 __malloc_lock
02010820 g     F .text	000000b0 sbrk
02010e3c g     F .text	00000140 OSEventNameSet
02008844 g     F .text	0000005c _fflush_r
0200d700 g     F .text	000000dc _calloc_r
0201f0dc g     O .bss	00000001 OSRdyGrp
0201f050 g       *ABS*	00000000 __bss_start
0200a530 g     F .text	00000128 memset
02001790 g     F .text	00000154 __ieee754_sqrtf
020013d0 g     F .text	00000154 main
0201f098 g     O .bss	00000004 alt_envp
0201f07c g     O .bss	00000004 __malloc_max_total_mem
02019108 g     F .text	00000060 altera_avalon_jtag_uart_write_fd
0200dd98 g     F .text	00000018 __swbuf
0201b82c g     O .rodata	00000100 OSUnMapTbl
02002330 g     F .text	000000c8 .hidden __ltsf2
0201d492 g     O .rwdata	00000002 OSSemEn
02013da4 g     F .text	00000394 OSFlagPost
0200be70 g     F .text	00000008 __sclose
020018e4 g     F .text	00000008 matherr
04000000 g       *ABS*	00000000 __alt_heap_limit
0200d8cc g     F .text	00000014 fclose
02011da8 g     F .text	00000110 OS_EventTaskWait
02021134 g     O .bss	00002000 task2_stk
020042c8 g     F .text	000001a8 .hidden __truncdfsf2
02012990 g     F .text	000000cc OS_TaskStatStkChk
02017f24 g     F .text	00000150 OSTaskDelReq
02006fa0 g     F .text	00001688 _dtoa_r
0200999c g     F .text	0000080c _malloc_r
0200df0c g     F .text	00000030 __ascii_wctomb
0201d448 g     O .rwdata	00000004 alt_errno
02011890 g     F .text	00000070 OSStart
02023134 g     O .bss	00002000 task3_stk
02010ad0 g     F .text	00000060 __env_unlock
0200957c g     F .text	000000c4 _fwalk
020183c0 g     F .text	000001d4 OSTaskResume
0201563c g     F .text	000000e8 OSMemQuery
0201d4a4 g     O .rwdata	00000002 OSTaskStatEn
0201d47e g     O .rwdata	00000002 OSMemMax
02016380 g     F .text	00000170 OSQPostFront
020044d4 g     F .text	00000084 .hidden __divsi3
0201f0dd g     O .bss	00000003 OSRdyTbl
0201d458 g     O .rwdata	00000002 OSDebugEn
02008c80 g     F .text	00000124 _malloc_trim_r
0201f064 g     O .bss	00000004 MailBox4
0201b434 g       *ABS*	00000000 __CTOR_END__
020023f8 g     F .text	00000430 .hidden __mulsf3
0201d470 g     O .rwdata	00000002 OSFlagNodeSize
0201d4b8 g     O .rwdata	00000002 OSTmrCfgMax
0200be78 g     F .text	000000dc strcmp
0201593c g     F .text	000001ac OSQCreate
02018074 g     F .text	00000198 OSTaskNameGet
0201b434 g       *ABS*	00000000 __flash_rodata_start
020164f0 g     F .text	0000020c OSQPostOpt
020119b0 g     F .text	00000220 OSTimeTick
0201d4a0 g     O .rwdata	00000002 OSTaskMax
0201b434 g       *ABS*	00000000 __DTOR_LIST__
020169b0 g     F .text	000000d8 OSSemCreate
0201d4c4 g     O .rwdata	00000002 OSTmrWheelSize
0200f404 g     F .text	00000088 .hidden __nedf2
0201d49a g     O .rwdata	00000002 OSTaskDelEn
02017150 g     F .text	00000110 OSSemQuery
02015ae8 g     F .text	00000280 OSQDel
020160ac g     F .text	0000016c OSQPendAbort
02019010 g     F .text	00000038 alt_irq_init
0201079c g     F .text	00000084 alt_release_fd
0201b542 g     O .rodata	00000100 .hidden __clz_tab
0201f070 g     O .bss	00000004 _PathLocale
0201b0a0 g     F .text	00000014 atexit
02002274 g     F .text	000000bc .hidden __gesf2
0200d64c g     F .text	00000060 _write_r
02011728 g     F .text	0000008c OSSchedLock
020097bc g     F .text	00000018 setlocale
020131c8 g     F .text	00000108 OSFlagCreate
0201d420 g     O .rwdata	00000004 _impure_ptr
0201f090 g     O .bss	00000004 alt_argc
02008628 g     F .text	0000021c __sflush_r
0201a154 g     F .text	00000060 _do_dtors
020097a8 g     F .text	00000008 __locale_cjk_lang
0201d46a g     O .rwdata	00000002 OSEventMultiEn
020132d0 g     F .text	00000248 OSFlagDel
0201f0e0 g     O .bss	00000004 OSEventFreeList
02000020 g       .exceptions	00000000 alt_irq_entry
02014bb4 g     F .text	0000016c OSMboxPendAbort
0200b238 g     F .text	00000064 __ulp
0201d4b6 g     O .rwdata	00000002 OSTmrEn
0201378c g     F .text	000005b8 OSFlagPend
02008c68 g     F .text	00000018 __fp_unlock_all
0201d434 g     O .rwdata	00000008 alt_fs_list
020127a0 g     F .text	00000074 OS_StrCopy
0201d480 g     O .rwdata	00000002 OSMemNameSize
0201ad14 g     F .text	00000020 OSInitHookEnd
02000020 g       *ABS*	00000000 __ram_exceptions_start
0201d4ac g     O .rwdata	00000002 OSTCBPrioTblMax
020097d4 g     F .text	0000000c localeconv
0201d4a8 g     O .rwdata	00000002 OSTaskStatStkChkEn
0201466c g     F .text	000000d4 OSMboxCreate
0201a1d4 g     F .text	00000050 alt_ic_isr_register
0201d47c g     O .rwdata	00000002 OSMemEn
0201d486 g     O .rwdata	00000002 OSMutexEn
0201d4d8 g       *ABS*	00000000 _edata
02000ee4 g     F .text	000004ec collide_calc
02028458 g       *ABS*	00000000 _end
0201f0e4 g     O .bss	00000001 OSIntNesting
0200d8e0 g     F .text	00000164 __fputwc
02000230 g       *ABS*	00000000 __ram_exceptions_end
02019764 g     F .text	000000f0 altera_avalon_jtag_uart_ioctl
02018d4c g     F .text	000001d4 OSTimeDlyResume
02013640 g     F .text	0000014c OSFlagNameSet
02014980 g     F .text	00000234 OSMboxPend
02018594 g     F .text	000001c0 OSTaskStkChk
0201a2ac g     F .text	0000008c alt_ic_irq_disable
0201d482 g     O .rwdata	00000002 OSMemSize
0200bd98 g     F .text	0000007c __swrite
0201d42c g     O .rwdata	00000004 __malloc_trim_threshold
0200979c g     F .text	0000000c __locale_msgcharset
0201f0e8 g     O .bss	00000004 OSTCBCur
0201b0b4 g     F .text	00000038 exit
0201d484 g     O .rwdata	00000002 OSMemTblSize
02009640 g     F .text	000000c4 _fwalk_reent
0201f068 g     O .bss	00000004 MailBox1
0200b03c g     F .text	000001fc __mdiff
02004558 g     F .text	00000074 .hidden __modsi3
020145d4 g     F .text	00000098 OSMboxAccept
04000000 g       *ABS*	00000000 __alt_data_end
02000020 g     F .exceptions	00000000 alt_exception
02008c44 g     F .text	00000004 __sfp_lock_release
0201158c g     F .text	00000058 OSInit
02018938 g     F .text	00000124 OSTaskQuery
02016858 g     F .text	000000a8 OS_QInit
02012814 g     F .text	00000054 OS_StrLen
02015450 g     F .text	00000114 OSMemNameSet
0201d49e g     O .rwdata	00000002 OSTaskProfileEn
0201f0ec g     O .bss	00000004 OSTime
0201f06c g     O .bss	00000004 isActiveFlagGrp
02026ab4 g     O .bss	00000800 OSTaskIdleStk
0201b400 g     F .text	00000034 _exit
02014e30 g     F .text	0000015c OSMboxPostOpt
02019ec8 g     F .text	0000012c alt_alarm_start
02013518 g     F .text	00000128 OSFlagNameGet
02000d58 g     F .text	0000018c detect_collide
02018f20 g     F .text	0000005c OSTimeGet
020097e0 g     F .text	000001bc __smakebuf_r
020047d8 g     F .text	00000098 strlen
0201ac94 g     F .text	00000020 OSTaskSwHook
0201a6fc g     F .text	0000015c open
020272b4 g     O .bss	00000b40 OSEventTbl
02003870 g     F .text	000000dc .hidden __gedf2
02027df4 g     O .bss	00000510 OSTCBTbl
02017260 g     F .text	00000100 OSSemSet
0201d430 g     O .rwdata	00000004 __wctomb
0200c050 g     F .text	00000018 __sprint_r
0201a1b4 g     F .text	00000020 alt_icache_flush_all
0201d4cc g     O .rwdata	00000004 alt_priority_mask
02016a88 g     F .text	00000240 OSSemDel
0201f0f0 g     O .bss	00000004 OSFlagFreeList
02000ac8 g     F .text	00000290 task3
0201a224 g     F .text	00000088 alt_ic_irq_enable
0201d464 g     O .rwdata	00000002 OSEventNameSize
02014740 g     F .text	00000240 OSMboxDel
02006b4c g     F .text	0000001c __vfprintf_internal
0201f0f4 g     O .bss	00000001 OSStatRdy
02028304 g     O .bss	00000054 OSTCBPrioTbl
0200df3c g     F .text	0000005c _wctomb_r
02010a0c g     F .text	000000c4 __env_lock
0201d4aa g     O .rwdata	00000002 OSTaskSwHookEn
0200f580 g     F .text	000008fc .hidden __subdf3
0200a9dc g     F .text	000000b0 __lo0bits
0201d4d0 g     O .rwdata	00000008 alt_alarm_list
0201d472 g     O .rwdata	00000002 OSFlagWidth
0201a0f4 g     F .text	00000060 _do_ctors
0200de4c g     F .text	000000c0 wcrtomb
020100bc g     F .text	000000d8 close
0200196c g     F .text	000004c8 .hidden __addsf3
0201f0a0 g     O .bss	00000004 alt_envsem
0201f0f8 g     O .bss	00000004 OSIdleCtrRun
02011bd0 g     F .text	00000020 OSVersion
0201d4bc g     O .rwdata	00000002 OSTmrCfgWheelSize
02010404 g     F .text	00000084 alt_load
02018a5c g     F .text	00000070 OS_TaskStkClr
0201d496 g     O .rwdata	00000002 OSTaskCreateEn
020121c0 g     F .text	00000068 OS_EventWaitListInit
0200da68 g     F .text	00000080 fputwc
0201ad34 g     F .text	00000020 OSTaskIdleHook
02008c48 g     F .text	00000004 __sinit_lock_acquire
0200a728 g     F .text	00000148 __multadd
02018754 g     F .text	000001e4 OSTaskSuspend
0200a700 g     F .text	00000028 _Bfree
02012868 g     F .text	0000005c OS_TaskIdle
0201d4c2 g     O .rwdata	00000002 OSTmrTblSize
020166fc g     F .text	0000015c OSQQuery



Disassembly of section .entry:

02000000 <__reset>:
 * Jump to the _start entry point in the .text section if reset code
 * is allowed or if optimizing for RTL simulation.
 */
#if defined(ALT_ALLOW_CODE_AT_RESET) || defined(ALT_SIM_OPTIMIZE)
    /* Jump to the _start entry point in the .text section. */
    movhi r1, %hi(_start)
 2000000:	00408034 	movhi	at,512
    ori r1, r1, %lo(_start)
 2000004:	08408c14 	ori	at,at,560
    jmp r1
 2000008:	0800683a 	jmp	at
	...

Disassembly of section .exceptions:

02000020 <alt_exception>:

#else /* ALT_EXCEPTION_STACK disabled */
        /* 
         * Reserve space on normal stack for registers about to be pushed.
         */
        addi  sp, sp, -76
 2000020:	deffed04 	addi	sp,sp,-76
         * documentation for details).
         *
         * Leave a gap in the stack frame at 4(sp) for the muldiv handler to
         * store zero into.
         */
        stw   ra,  0(sp)
 2000024:	dfc00015 	stw	ra,0(sp)
        stw   r1,   8(sp)
 2000028:	d8400215 	stw	at,8(sp)
        stw   r2,  12(sp)
 200002c:	d8800315 	stw	r2,12(sp)
        stw   r3,  16(sp)
 2000030:	d8c00415 	stw	r3,16(sp)
        stw   r4,  20(sp)
 2000034:	d9000515 	stw	r4,20(sp)
        stw   r5,  24(sp)
 2000038:	d9400615 	stw	r5,24(sp)
        stw   r6,  28(sp)
 200003c:	d9800715 	stw	r6,28(sp)
        stw   r7,  32(sp)
 2000040:	d9c00815 	stw	r7,32(sp)
        rdctl r5, estatus   /* Read early to avoid usage stall */
 2000044:	000b307a 	rdctl	r5,estatus
        stw   r8,  36(sp)
 2000048:	da000915 	stw	r8,36(sp)
        stw   r9,  40(sp)
 200004c:	da400a15 	stw	r9,40(sp)
        stw   r10, 44(sp)
 2000050:	da800b15 	stw	r10,44(sp)
        stw   r11, 48(sp)
 2000054:	dac00c15 	stw	r11,48(sp)
        stw   r12, 52(sp)
 2000058:	db000d15 	stw	r12,52(sp)
        stw   r13, 56(sp)
 200005c:	db400e15 	stw	r13,56(sp)
        stw   r14, 60(sp)
 2000060:	db800f15 	stw	r14,60(sp)
        stw   r15, 64(sp)
 2000064:	dbc01015 	stw	r15,64(sp)
        /*
         * ea-4 contains the address of the instruction being executed
         * when the exception occured. For interrupt exceptions, we will
         * will be re-issue the isntruction. Store it in 72(sp)
         */
        stw   r5,  68(sp)  /* estatus */
 2000068:	d9401115 	stw	r5,68(sp)
        addi  r15, ea, -4  /* instruction that caused exception */
 200006c:	ebffff04 	addi	r15,ea,-4
        stw   r15,  72(sp)
 2000070:	dbc01215 	stw	r15,72(sp)
#else
        /*
         * Test to see if the exception was a software exception or caused 
         * by an external interrupt, and vector accordingly.
         */
        rdctl r4, ipending
 2000074:	0009313a 	rdctl	r4,ipending
        andi  r2, r5, 1
 2000078:	2880004c 	andi	r2,r5,1
        beq   r2, zero, .Lnot_irq
 200007c:	10000326 	beq	r2,zero,200008c <alt_exception+0x6c>
        beq   r4, zero, .Lnot_irq
 2000080:	20000226 	beq	r4,zero,200008c <alt_exception+0x6c>
        /*
         * Now that all necessary registers have been preserved, call 
         * alt_irq_handler() to process the interrupts.
         */

        call alt_irq_handler
 2000084:	20000fc0 	call	20000fc <alt_irq_handler>

        .section .exceptions.irqreturn, "xa"

        br    .Lexception_exit
 2000088:	00000706 	br	20000a8 <alt_exception+0x88>
         * upon completion, so we write ea (address of instruction *after*
         * the one where the exception occured) into 72(sp). The actual
         * instruction that caused the exception is written in r2, which these
         * handlers will utilize.
         */
        stw ea, 72(sp) /* EA is PC+4 so will skip over instruction causing exception */
 200008c:	df401215 	stw	ea,72(sp)
.Lunknown_16bit:
        addi.n r4, r4, 2 /* Need PC+2 to skip over instruction causing exception */
        stw r4, 72(sp)

#else /* CDX is not Enabled and all instructions are 32bits */
        ldw r2, -4(ea) /* Instruction value that caused exception */
 2000090:	e8bfff17 	ldw	r2,-4(ea)
         * debugger is present) or go into an infinite loop since the
         * handling behavior is undefined; in that case we will not return here.
         */

        /* Load exception-causing address as first argument (r4) */
        addi   r4, ea, -4
 2000094:	e93fff04 	addi	r4,ea,-4

        /* Call the instruction-exception entry */
        call   alt_instruction_exception_entry
 2000098:	20001d00 	call	20001d0 <alt_instruction_exception_entry>
         * instruction
         *
         * Return code was 0: Skip. The instruction after the exception is
         * already stored in 72(sp).
         */
        bne   r2, r0, .Lexception_exit
 200009c:	1000021e 	bne	r2,zero,20000a8 <alt_exception+0x88>

        /*
         * Otherwise, modify 72(sp) to re-issue the instruction that caused the
         * exception.
         */
        addi  r15, ea, -4  /* instruction that caused exception */
 20000a0:	ebffff04 	addi	r15,ea,-4
        stw   r15,  72(sp)
 20000a4:	dbc01215 	stw	r15,72(sp)
        /* 
         * Restore the saved registers, so that all general purpose registers 
         * have been restored to their state at the time the interrupt occured.
         */

        ldw   r5,  68(sp)
 20000a8:	d9401117 	ldw	r5,68(sp)
        ldw   ea,  72(sp)  /* This becomes the PC once eret is executed */
 20000ac:	df401217 	ldw	ea,72(sp)
        ldw   ra,   0(sp)
 20000b0:	dfc00017 	ldw	ra,0(sp)

        wrctl estatus, r5
 20000b4:	2801707a 	wrctl	estatus,r5

        ldw   r1,   8(sp)
 20000b8:	d8400217 	ldw	at,8(sp)
        ldw   r2,  12(sp)
 20000bc:	d8800317 	ldw	r2,12(sp)
        ldw   r3,  16(sp)
 20000c0:	d8c00417 	ldw	r3,16(sp)
        ldw   r4,  20(sp)
 20000c4:	d9000517 	ldw	r4,20(sp)
        ldw   r5,  24(sp)
 20000c8:	d9400617 	ldw	r5,24(sp)
        ldw   r6,  28(sp)
 20000cc:	d9800717 	ldw	r6,28(sp)
        ldw   r7,  32(sp)
 20000d0:	d9c00817 	ldw	r7,32(sp)

#if defined(ALT_EXCEPTION_STACK) && defined(ALT_STACK_CHECK)
        ldw   et, %gprel(alt_exception_old_stack_limit)(gp)
#endif

        ldw   r8,  36(sp)
 20000d4:	da000917 	ldw	r8,36(sp)
        ldw   r9,  40(sp)
 20000d8:	da400a17 	ldw	r9,40(sp)
        ldw   r10, 44(sp)
 20000dc:	da800b17 	ldw	r10,44(sp)
        ldw   r11, 48(sp)
 20000e0:	dac00c17 	ldw	r11,48(sp)
        ldw   r12, 52(sp)
 20000e4:	db000d17 	ldw	r12,52(sp)
        ldw   r13, 56(sp)
 20000e8:	db400e17 	ldw	r13,56(sp)
        ldw   r14, 60(sp)
 20000ec:	db800f17 	ldw	r14,60(sp)
        ldw   r15, 64(sp)
 20000f0:	dbc01017 	ldw	r15,64(sp)
        stw   et, %gprel(alt_stack_limit_value)(gp)
        stw   zero, %gprel(alt_exception_old_stack_limit)(gp)
#endif /* ALT_STACK_CHECK */
        ldw   sp,  76(sp)
#else /* ALT_EXCEPTION_STACK disabled */
        addi  sp, sp, 76
 20000f4:	dec01304 	addi	sp,sp,76

        /*
         * Return to the interrupted instruction.
         */

        eret
 20000f8:	ef80083a 	eret

020000fc <alt_irq_handler>:
 * instruction is present if the macro ALT_CI_INTERRUPT_VECTOR defined.
 */

void alt_irq_handler (void) __attribute__ ((section (".exceptions")));
void alt_irq_handler (void)
{
 20000fc:	defff904 	addi	sp,sp,-28
 2000100:	dfc00615 	stw	ra,24(sp)
 2000104:	df000515 	stw	fp,20(sp)
 2000108:	df000504 	addi	fp,sp,20
  
  /*
   * Notify the operating system that we are at interrupt level.
   */ 
  
  ALT_OS_INT_ENTER();
 200010c:	20115e40 	call	20115e4 <OSIntEnter>
#ifndef NIOS2_EIC_PRESENT
static ALT_INLINE alt_u32 ALT_ALWAYS_INLINE alt_irq_pending (void)
{
  alt_u32 active;

  NIOS2_READ_IPENDING (active);
 2000110:	0005313a 	rdctl	r2,ipending
 2000114:	e0bffe15 	stw	r2,-8(fp)

  return active;
 2000118:	e0bffe17 	ldw	r2,-8(fp)
   * Consider the case where the high priority interupt is asserted during
   * the interrupt entry sequence for a lower priority interrupt to see why
   * this is the case.
   */

  active = alt_irq_pending ();
 200011c:	e0bffb15 	stw	r2,-20(fp)

  do
  {
    i = 0;
 2000120:	e03ffd15 	stw	zero,-12(fp)
    mask = 1;
 2000124:	00800044 	movi	r2,1
 2000128:	e0bffc15 	stw	r2,-16(fp)
     * called to clear the interrupt condition.
     */

    do
    {
      if (active & mask)
 200012c:	e0fffb17 	ldw	r3,-20(fp)
 2000130:	e0bffc17 	ldw	r2,-16(fp)
 2000134:	1884703a 	and	r2,r3,r2
 2000138:	10001426 	beq	r2,zero,200018c <alt_irq_handler+0x90>
      { 
#ifdef ALT_ENHANCED_INTERRUPT_API_PRESENT
        alt_irq[i].handler(alt_irq[i].context); 
 200013c:	008080f4 	movhi	r2,515
 2000140:	10a0d604 	addi	r2,r2,-31912
 2000144:	e0fffd17 	ldw	r3,-12(fp)
 2000148:	180690fa 	slli	r3,r3,3
 200014c:	10c5883a 	add	r2,r2,r3
 2000150:	10c00017 	ldw	r3,0(r2)
 2000154:	008080f4 	movhi	r2,515
 2000158:	10a0d604 	addi	r2,r2,-31912
 200015c:	e13ffd17 	ldw	r4,-12(fp)
 2000160:	200890fa 	slli	r4,r4,3
 2000164:	1105883a 	add	r2,r2,r4
 2000168:	10800104 	addi	r2,r2,4
 200016c:	10800017 	ldw	r2,0(r2)
 2000170:	1009883a 	mov	r4,r2
 2000174:	183ee83a 	callr	r3
#else
        alt_irq[i].handler(alt_irq[i].context, i); 
#endif
        break;
 2000178:	0001883a 	nop
#ifndef NIOS2_EIC_PRESENT
static ALT_INLINE alt_u32 ALT_ALWAYS_INLINE alt_irq_pending (void)
{
  alt_u32 active;

  NIOS2_READ_IPENDING (active);
 200017c:	0005313a 	rdctl	r2,ipending
 2000180:	e0bfff15 	stw	r2,-4(fp)

  return active;
 2000184:	e0bfff17 	ldw	r2,-4(fp)
 2000188:	00000706 	br	20001a8 <alt_irq_handler+0xac>
      }
      mask <<= 1;
 200018c:	e0bffc17 	ldw	r2,-16(fp)
 2000190:	1085883a 	add	r2,r2,r2
 2000194:	e0bffc15 	stw	r2,-16(fp)
      i++;
 2000198:	e0bffd17 	ldw	r2,-12(fp)
 200019c:	10800044 	addi	r2,r2,1
 20001a0:	e0bffd15 	stw	r2,-12(fp)

    } while (1);
 20001a4:	003fe106 	br	200012c <alt_irq_handler+0x30>

    active = alt_irq_pending ();
 20001a8:	e0bffb15 	stw	r2,-20(fp)
    
  } while (active);
 20001ac:	e0bffb17 	ldw	r2,-20(fp)
 20001b0:	103fdb1e 	bne	r2,zero,2000120 <alt_irq_handler+0x24>

  /*
   * Notify the operating system that interrupt processing is complete.
   */ 

  ALT_OS_INT_EXIT();
 20001b4:	20116300 	call	2011630 <OSIntExit>
}
 20001b8:	0001883a 	nop
 20001bc:	e037883a 	mov	sp,fp
 20001c0:	dfc00117 	ldw	ra,4(sp)
 20001c4:	df000017 	ldw	fp,0(sp)
 20001c8:	dec00204 	addi	sp,sp,8
 20001cc:	f800283a 	ret

020001d0 <alt_instruction_exception_entry>:
 * that handler if it has been registered. Absent a handler, it will
 * break break or hang as discussed below.
 */
int 
alt_instruction_exception_entry (alt_u32 exception_pc)
{
 20001d0:	defffb04 	addi	sp,sp,-20
 20001d4:	dfc00415 	stw	ra,16(sp)
 20001d8:	df000315 	stw	fp,12(sp)
 20001dc:	df000304 	addi	fp,sp,12
 20001e0:	e13fff15 	stw	r4,-4(fp)
  cause = ( (cause & NIOS2_EXCEPTION_REG_CAUSE_MASK) >>
              NIOS2_EXCEPTION_REG_CAUSE_OFST );

  NIOS2_READ_BADADDR(badaddr);
#else
  cause = NIOS2_EXCEPTION_CAUSE_NOT_PRESENT;
 20001e4:	00bfffc4 	movi	r2,-1
 20001e8:	e0bffd15 	stw	r2,-12(fp)
  badaddr = 0;
 20001ec:	e03ffe15 	stw	zero,-8(fp)
#endif /* NIOS2_HAS_EXTRA_EXCEPTION_INFO */

  if(alt_instruction_exception_handler) {
 20001f0:	d0a73c17 	ldw	r2,-25360(gp)
 20001f4:	10000726 	beq	r2,zero,2000214 <alt_instruction_exception_entry+0x44>
     * Call handler. Its return value indicates whether the exception-causing
     * instruction should be re-issued. The code that called us,
     * alt_eceptions_entry.S, will look at this value and adjust the ea
     * register as necessary
     */
    return alt_instruction_exception_handler(cause, exception_pc, badaddr);
 20001f8:	d0a73c17 	ldw	r2,-25360(gp)
 20001fc:	e0fffd17 	ldw	r3,-12(fp)
 2000200:	e1bffe17 	ldw	r6,-8(fp)
 2000204:	e17fff17 	ldw	r5,-4(fp)
 2000208:	1809883a 	mov	r4,r3
 200020c:	103ee83a 	callr	r2
 2000210:	00000206 	br	200021c <alt_instruction_exception_entry+0x4c>
   *    (a peripheral which negates its interrupt output before its
   *    interrupt handler has been executed will cause spurious interrupts)
   */
  else {
#ifdef NIOS2_HAS_DEBUG_STUB
    NIOS2_BREAK();
 2000214:	003da03a 	break	0
      ;
#endif /* NIOS2_HAS_DEBUG_STUB */
  }

  /* We should not get here. Remove compiler warning. */
  return NIOS2_EXCEPTION_RETURN_REISSUE_INST;
 2000218:	0005883a 	mov	r2,zero
}
 200021c:	e037883a 	mov	sp,fp
 2000220:	dfc00117 	ldw	ra,4(sp)
 2000224:	df000017 	ldw	fp,0(sp)
 2000228:	dec00204 	addi	sp,sp,8
 200022c:	f800283a 	ret

Disassembly of section .text:

02000230 <_start>:

    /*
     * Now that the caches are initialized, set up the stack pointer and global pointer.
     * The values provided by the linker are assumed to be correctly aligned.
     */
    movhi sp, %hi(__alt_stack_pointer)
 2000230:	06c10034 	movhi	sp,1024
    ori sp, sp, %lo(__alt_stack_pointer)
 2000234:	dec00014 	ori	sp,sp,0
    movhi gp, %hi(_gp)
 2000238:	068080b4 	movhi	gp,514
    ori gp, gp, %lo(_gp)
 200023c:	d6950614 	ori	gp,gp,21528
 */
#ifndef ALT_SIM_OPTIMIZE
    /* Log that the BSS is about to be cleared. */
    ALT_LOG_PUTS(alt_log_msg_bss)

    movhi r2, %hi(__bss_start)
 2000240:	00808074 	movhi	r2,513
    ori r2, r2, %lo(__bss_start)
 2000244:	10bc1414 	ori	r2,r2,61520

    movhi r3, %hi(__bss_end)
 2000248:	00c080b4 	movhi	r3,514
    ori r3, r3, %lo(__bss_end)
 200024c:	18e11614 	ori	r3,r3,33880

    beq r2, r3, 1f
 2000250:	10c00326 	beq	r2,r3,2000260 <_start+0x30>

0:
    stw zero, (r2)
 2000254:	10000015 	stw	zero,0(r2)
    addi r2, r2, 4
 2000258:	10800104 	addi	r2,r2,4
    bltu r2, r3, 0b
 200025c:	10fffd36 	bltu	r2,r3,2000254 <_start+0x24>
     * section aren't defined until alt_load() has been called).
     */
    mov   et, zero
#endif

    call alt_load
 2000260:	20104040 	call	2010404 <alt_load>

    /* Log that alt_main is about to be called. */
    ALT_LOG_PUTS(alt_log_msg_alt_main)

    /* Call the C entry point. It should never return. */
    call alt_main
 2000264:	20105a00 	call	20105a0 <alt_main>

02000268 <alt_after_alt_main>:

    /* Wait in infinite loop in case alt_main does return. */
alt_after_alt_main:
    br alt_after_alt_main
 2000268:	003fff06 	br	2000268 <alt_after_alt_main>

0200026c <task1>:
#define IS_ACTIVE (OS_FLAGS) 0x0001
#define ANIMATION (OS_FLAGS) 0x0001

/*  */
void task1(void* pdata)
{
 200026c:	deffeb04 	addi	sp,sp,-84
 2000270:	dfc01415 	stw	ra,80(sp)
 2000274:	df001315 	stw	fp,76(sp)
 2000278:	df001304 	addi	fp,sp,76
 200027c:	e13fff15 	stw	r4,-4(fp)
	INT8U err;
	volatile int * MTL_controller = (int *) MTL_IP_BASE;
 2000280:	008000b4 	movhi	r2,2
 2000284:	e0bff415 	stw	r2,-48(fp)
	int count_old = 0;
 2000288:	e03ff515 	stw	zero,-44(fp)
	int count = 0;
 200028c:	e03fee15 	stw	zero,-72(fp)

	int x1_gesture_start, x1_gesture_stop, x2_gesture_start, x2_gesture_stop ;
	int y1_gesture_start, y1_gesture_stop, y2_gesture_start, y2_gesture_stop;

	int gesture_detected = 0;
 2000290:	e03ff315 	stw	zero,-52(fp)

	while (1)
	{
		printf("wait for isActive\n");
 2000294:	010080b4 	movhi	r4,514
 2000298:	212d0d04 	addi	r4,r4,-19404
 200029c:	20047c40 	call	20047c4 <puts>
		OSFlagPend(isActiveFlagGrp, IS_ACTIVE, OS_FLAG_WAIT_SET_ALL + OS_FLAG_CONSUME, 0,&err); // wait for a flag and consume it
 20002a0:	d0e71517 	ldw	r3,-25516(gp)
 20002a4:	e0bffc04 	addi	r2,fp,-16
 20002a8:	d8800015 	stw	r2,0(sp)
 20002ac:	000f883a 	mov	r7,zero
 20002b0:	01802084 	movi	r6,130
 20002b4:	01400044 	movi	r5,1
 20002b8:	1809883a 	mov	r4,r3
 20002bc:	201378c0 	call	201378c <OSFlagPend>

		/*
		 * Tant que le mouvement n'est pas terminé : On effectue la détection
		 */
		while(!gesture_detected)
 20002c0:	00004906 	br	20003e8 <task1+0x17c>
		{
			count_old = count;
 20002c4:	e0bfee17 	ldw	r2,-72(fp)
 20002c8:	e0bff515 	stw	r2,-44(fp)
			count = *(MTL_controller + 10); // récupère le nombre de doigts présent sur l'écran
 20002cc:	e0bff417 	ldw	r2,-48(fp)
 20002d0:	10800a17 	ldw	r2,40(r2)
 20002d4:	e0bfee15 	stw	r2,-72(fp)
			int pos1 = *(MTL_controller + 11);
 20002d8:	e0bff417 	ldw	r2,-48(fp)
 20002dc:	10800b17 	ldw	r2,44(r2)
 20002e0:	e0bff615 	stw	r2,-40(fp)
			int pos2 = *(MTL_controller + 12);
 20002e4:	e0bff417 	ldw	r2,-48(fp)
 20002e8:	10800c17 	ldw	r2,48(r2)
 20002ec:	e0bff715 	stw	r2,-36(fp)
			if(count_old == 1 && count == 2) // si on passe de 1 à deux doigts
 20002f0:	e0bff517 	ldw	r2,-44(fp)
 20002f4:	10800058 	cmpnei	r2,r2,1
 20002f8:	1000121e 	bne	r2,zero,2000344 <task1+0xd8>
 20002fc:	e0bfee17 	ldw	r2,-72(fp)
 2000300:	10800098 	cmpnei	r2,r2,2
 2000304:	10000f1e 	bne	r2,zero,2000344 <task1+0xd8>
			{
				printf("start gesture\n");
 2000308:	010080b4 	movhi	r4,514
 200030c:	212d1204 	addi	r4,r4,-19384
 2000310:	20047c40 	call	20047c4 <puts>
				x1_gesture_start = pos1 & 0x0003FF;
 2000314:	e0bff617 	ldw	r2,-40(fp)
 2000318:	1080ffcc 	andi	r2,r2,1023
 200031c:	e0bfef15 	stw	r2,-68(fp)
				y1_gesture_start = pos1 >> 10;
 2000320:	e0bff617 	ldw	r2,-40(fp)
 2000324:	1005d2ba 	srai	r2,r2,10
 2000328:	e0bff115 	stw	r2,-60(fp)

				x2_gesture_start = pos2 & 0x0003FF;
 200032c:	e0bff717 	ldw	r2,-36(fp)
 2000330:	1080ffcc 	andi	r2,r2,1023
 2000334:	e0bff815 	stw	r2,-32(fp)
				y2_gesture_start = pos2 >> 10;
 2000338:	e0bff717 	ldw	r2,-36(fp)
 200033c:	1005d2ba 	srai	r2,r2,10
 2000340:	e0bff915 	stw	r2,-28(fp)
			}
			if(count_old == 2 && count == 1) // si on pass de 2 à 1 doigt
 2000344:	e0bff517 	ldw	r2,-44(fp)
 2000348:	10800098 	cmpnei	r2,r2,2
 200034c:	1000261e 	bne	r2,zero,20003e8 <task1+0x17c>
 2000350:	e0bfee17 	ldw	r2,-72(fp)
 2000354:	10800058 	cmpnei	r2,r2,1
 2000358:	1000231e 	bne	r2,zero,20003e8 <task1+0x17c>
			{
				printf("stop gesture\n");
 200035c:	010080b4 	movhi	r4,514
 2000360:	212d1604 	addi	r4,r4,-19368
 2000364:	20047c40 	call	20047c4 <puts>
				x1_gesture_stop = pos1 & 0x0003FF;
 2000368:	e0bff617 	ldw	r2,-40(fp)
 200036c:	1080ffcc 	andi	r2,r2,1023
 2000370:	e0bffa15 	stw	r2,-24(fp)
				y1_gesture_stop = pos1 >> 10;
 2000374:	e0bff617 	ldw	r2,-40(fp)
 2000378:	1005d2ba 	srai	r2,r2,10
 200037c:	e0bffb15 	stw	r2,-20(fp)

				x2_gesture_stop = pos2 & 0x0003FF;
 2000380:	e0bff717 	ldw	r2,-36(fp)
 2000384:	1080ffcc 	andi	r2,r2,1023
 2000388:	e0bff015 	stw	r2,-64(fp)
				y2_gesture_stop = pos2 >> 10;
 200038c:	e0bff717 	ldw	r2,-36(fp)
 2000390:	1005d2ba 	srai	r2,r2,10
 2000394:	e0bff215 	stw	r2,-56(fp)
				gesture_detected =     (x1_gesture_start -30 <= x1_gesture_stop && x1_gesture_stop <= x1_gesture_start + 30)
 2000398:	e0bfef17 	ldw	r2,-68(fp)
 200039c:	10bff884 	addi	r2,r2,-30
									&& (y1_gesture_start -30 <= y1_gesture_stop && y1_gesture_stop <= y1_gesture_start + 30);
 20003a0:	e0fffa17 	ldw	r3,-24(fp)
 20003a4:	18800e16 	blt	r3,r2,20003e0 <task1+0x174>
				x1_gesture_stop = pos1 & 0x0003FF;
				y1_gesture_stop = pos1 >> 10;

				x2_gesture_stop = pos2 & 0x0003FF;
				y2_gesture_stop = pos2 >> 10;
				gesture_detected =     (x1_gesture_start -30 <= x1_gesture_stop && x1_gesture_stop <= x1_gesture_start + 30)
 20003a8:	e0bfef17 	ldw	r2,-68(fp)
 20003ac:	10c00784 	addi	r3,r2,30
 20003b0:	e0bffa17 	ldw	r2,-24(fp)
 20003b4:	18800a16 	blt	r3,r2,20003e0 <task1+0x174>
									&& (y1_gesture_start -30 <= y1_gesture_stop && y1_gesture_stop <= y1_gesture_start + 30);
 20003b8:	e0bff117 	ldw	r2,-60(fp)
 20003bc:	10bff884 	addi	r2,r2,-30
 20003c0:	e0fffb17 	ldw	r3,-20(fp)
 20003c4:	18800616 	blt	r3,r2,20003e0 <task1+0x174>
 20003c8:	e0bff117 	ldw	r2,-60(fp)
 20003cc:	10c00784 	addi	r3,r2,30
 20003d0:	e0bffb17 	ldw	r2,-20(fp)
 20003d4:	18800216 	blt	r3,r2,20003e0 <task1+0x174>
 20003d8:	00800044 	movi	r2,1
 20003dc:	00000106 	br	20003e4 <task1+0x178>
 20003e0:	0005883a 	mov	r2,zero
				x1_gesture_stop = pos1 & 0x0003FF;
				y1_gesture_stop = pos1 >> 10;

				x2_gesture_stop = pos2 & 0x0003FF;
				y2_gesture_stop = pos2 >> 10;
				gesture_detected =     (x1_gesture_start -30 <= x1_gesture_stop && x1_gesture_stop <= x1_gesture_start + 30)
 20003e4:	e0bff315 	stw	r2,-52(fp)
		OSFlagPend(isActiveFlagGrp, IS_ACTIVE, OS_FLAG_WAIT_SET_ALL + OS_FLAG_CONSUME, 0,&err); // wait for a flag and consume it

		/*
		 * Tant que le mouvement n'est pas terminé : On effectue la détection
		 */
		while(!gesture_detected)
 20003e8:	e0bff317 	ldw	r2,-52(fp)
 20003ec:	103fb526 	beq	r2,zero,20002c4 <task1+0x58>

			//*(MTL_controller + 1) = (y1_gesture_start << 10) + x1_gesture_start;
			//*(MTL_controller + 2) = (y2_gesture_start << 10) + x2_gesture_start;
			//*(MTL_controller + 3) = (y2_gesture_stop << 10) + x2_gesture_stop;
		}
		int x_dir = (x2_gesture_stop - x1_gesture_start);
 20003f0:	e0fff017 	ldw	r3,-64(fp)
 20003f4:	e0bfef17 	ldw	r2,-68(fp)
 20003f8:	1885c83a 	sub	r2,r3,r2
 20003fc:	e0bffd15 	stw	r2,-12(fp)
		int y_dir = (y2_gesture_stop - y1_gesture_start);
 2000400:	e0fff217 	ldw	r3,-56(fp)
 2000404:	e0bff117 	ldw	r2,-60(fp)
 2000408:	1885c83a 	sub	r2,r3,r2
 200040c:	e0bffe15 	stw	r2,-8(fp)
		printf("Send value : (%d, %d)\n", x_dir, y_dir);
 2000410:	e0bffd17 	ldw	r2,-12(fp)
 2000414:	e0fffe17 	ldw	r3,-8(fp)
 2000418:	180d883a 	mov	r6,r3
 200041c:	100b883a 	mov	r5,r2
 2000420:	010080b4 	movhi	r4,514
 2000424:	212d1a04 	addi	r4,r4,-19352
 2000428:	20046c80 	call	20046c8 <printf>
		OSMboxPost(MailBox1, &x_dir);
 200042c:	d0a71417 	ldw	r2,-25520(gp)
 2000430:	e0fffd04 	addi	r3,fp,-12
 2000434:	180b883a 	mov	r5,r3
 2000438:	1009883a 	mov	r4,r2
 200043c:	2014d200 	call	2014d20 <OSMboxPost>
		OSMboxPost(MailBox2, &y_dir);
 2000440:	d0a71217 	ldw	r2,-25528(gp)
 2000444:	e0fffe04 	addi	r3,fp,-8
 2000448:	180b883a 	mov	r5,r3
 200044c:	1009883a 	mov	r4,r2
 2000450:	2014d200 	call	2014d20 <OSMboxPost>
		gesture_detected = 0;
 2000454:	e03ff315 	stw	zero,-52(fp)
		OSTimeDlyHMSM(0, 0, 0, 500);
 2000458:	01c07d04 	movi	r7,500
 200045c:	000d883a 	mov	r6,zero
 2000460:	000b883a 	mov	r5,zero
 2000464:	0009883a 	mov	r4,zero
 2000468:	2018bd00 	call	2018bd0 <OSTimeDlyHMSM>
	}
 200046c:	003f8906 	br	2000294 <task1+0x28>

02000470 <task2>:
}

void task2(void* pdata)
{
 2000470:	deffda04 	addi	sp,sp,-152
 2000474:	dfc02515 	stw	ra,148(sp)
 2000478:	df002415 	stw	fp,144(sp)
 200047c:	dc402315 	stw	r17,140(sp)
 2000480:	dc002215 	stw	r16,136(sp)
 2000484:	df002404 	addi	fp,sp,144
 2000488:	e13ffd15 	stw	r4,-12(fp)
  float *result_collide; //modified

  INT8U err;
  INT8U opt_task2;
  volatile int * display = (int *) MTL_IP_BASE;
 200048c:	008000b4 	movhi	r2,2
 2000490:	e0bfe215 	stw	r2,-120(fp)
  float x_ball = 200.0;
 2000494:	0090d234 	movhi	r2,17224
 2000498:	e0bfdd15 	stw	r2,-140(fp)
  float y_ball = 200.0;
 200049c:	0090d234 	movhi	r2,17224
 20004a0:	e0bfde15 	stw	r2,-136(fp)
  float x_ball2= 400.0;
 20004a4:	0090f234 	movhi	r2,17352
 20004a8:	e0bfdf15 	stw	r2,-132(fp)
  float y_ball2= 200.0;
 20004ac:	0090d234 	movhi	r2,17224
 20004b0:	e0bfe015 	stw	r2,-128(fp)

  float ball1[2]={x_ball,y_ball};
 20004b4:	e0bfdd17 	ldw	r2,-140(fp)
 20004b8:	e0bfeb15 	stw	r2,-84(fp)
 20004bc:	e0bfde17 	ldw	r2,-136(fp)
 20004c0:	e0bfec15 	stw	r2,-80(fp)
  //printf("position ball1:%.2f,%.2f\n",ball1[0],ball1[1]);
  float ball2[2]={x_ball2,y_ball2};
 20004c4:	e0bfdf17 	ldw	r2,-132(fp)
 20004c8:	e0bfed15 	stw	r2,-76(fp)
 20004cc:	e0bfe017 	ldw	r2,-128(fp)
 20004d0:	e0bfee15 	stw	r2,-72(fp)
  //printf("position ball2:%.2f,%.2f\n",ball2[0],ball2[1]);
  *(display + 1) = ((int) (y_ball) << 10) + (int) (x_ball);
 20004d4:	e0bfe217 	ldw	r2,-120(fp)
 20004d8:	14000104 	addi	r16,r2,4
 20004dc:	e13fde17 	ldw	r4,-136(fp)
 20004e0:	2002d0c0 	call	2002d0c <__fixsfsi>
 20004e4:	102292ba 	slli	r17,r2,10
 20004e8:	e13fdd17 	ldw	r4,-140(fp)
 20004ec:	2002d0c0 	call	2002d0c <__fixsfsi>
 20004f0:	8885883a 	add	r2,r17,r2
 20004f4:	80800015 	stw	r2,0(r16)
  *(display + 2) = ((int) (y_ball2) << 10) + (int) (x_ball2);
 20004f8:	e0bfe217 	ldw	r2,-120(fp)
 20004fc:	14000204 	addi	r16,r2,8
 2000500:	e13fe017 	ldw	r4,-128(fp)
 2000504:	2002d0c0 	call	2002d0c <__fixsfsi>
 2000508:	102292ba 	slli	r17,r2,10
 200050c:	e13fdf17 	ldw	r4,-132(fp)
 2000510:	2002d0c0 	call	2002d0c <__fixsfsi>
 2000514:	8885883a 	add	r2,r17,r2
 2000518:	80800015 	stw	r2,0(r16)
  int collision=0;
 200051c:	e03fe315 	stw	zero,-116(fp)

  while (1)
  {
   opt_task2= OS_FLAG_SET;
 2000520:	00800044 	movi	r2,1
 2000524:	e0bfe405 	stb	r2,-112(fp)
   OSFlagPost(AnimationFlagGrp,ANIMATION,opt_task2,&err);
 2000528:	d0a71017 	ldw	r2,-25536(gp)
 200052c:	e0ffe403 	ldbu	r3,-112(fp)
 2000530:	e13fea04 	addi	r4,fp,-88
 2000534:	200f883a 	mov	r7,r4
 2000538:	180d883a 	mov	r6,r3
 200053c:	01400044 	movi	r5,1
 2000540:	1009883a 	mov	r4,r2
 2000544:	2013da40 	call	2013da4 <OSFlagPost>
   int *vector_x = OSMboxPend(MailBox4,0,&err);
 2000548:	d0a71317 	ldw	r2,-25524(gp)
 200054c:	e0ffea04 	addi	r3,fp,-88
 2000550:	180d883a 	mov	r6,r3
 2000554:	000b883a 	mov	r5,zero
 2000558:	1009883a 	mov	r4,r2
 200055c:	20149800 	call	2014980 <OSMboxPend>
 2000560:	e0bfe515 	stw	r2,-108(fp)
   int *vector_y = OSMboxPend(MailBox5,0,&err);
 2000564:	d0a71117 	ldw	r2,-25532(gp)
 2000568:	e0ffea04 	addi	r3,fp,-88
 200056c:	180d883a 	mov	r6,r3
 2000570:	000b883a 	mov	r5,zero
 2000574:	1009883a 	mov	r4,r2
 2000578:	20149800 	call	2014980 <OSMboxPend>
 200057c:	e0bfe615 	stw	r2,-104(fp)

   float x = (float) *vector_x;
 2000580:	e0bfe517 	ldw	r2,-108(fp)
 2000584:	10800017 	ldw	r2,0(r2)
 2000588:	1009883a 	mov	r4,r2
 200058c:	2002d7c0 	call	2002d7c <__floatsisf>
 2000590:	1007883a 	mov	r3,r2
 2000594:	e0ffe715 	stw	r3,-100(fp)
   float y = (float) *vector_y;
 2000598:	e0bfe617 	ldw	r2,-104(fp)
 200059c:	10800017 	ldw	r2,0(r2)
 20005a0:	1009883a 	mov	r4,r2
 20005a4:	2002d7c0 	call	2002d7c <__floatsisf>
 20005a8:	1007883a 	mov	r3,r2
 20005ac:	e0ffe815 	stw	r3,-96(fp)

   printf("Launch animation : (%d, %d)\n",*vector_x, *vector_y);
 20005b0:	e0bfe517 	ldw	r2,-108(fp)
 20005b4:	10c00017 	ldw	r3,0(r2)
 20005b8:	e0bfe617 	ldw	r2,-104(fp)
 20005bc:	10800017 	ldw	r2,0(r2)
 20005c0:	100d883a 	mov	r6,r2
 20005c4:	180b883a 	mov	r5,r3
 20005c8:	010080b4 	movhi	r4,514
 20005cc:	212d2004 	addi	r4,r4,-19328
 20005d0:	20046c80 	call	20046c8 <printf>
   float length = sqrtf(x*x + y*y);
 20005d4:	e17fe717 	ldw	r5,-100(fp)
 20005d8:	e13fe717 	ldw	r4,-100(fp)
 20005dc:	20023f80 	call	20023f8 <__mulsf3>
 20005e0:	1007883a 	mov	r3,r2
 20005e4:	1821883a 	mov	r16,r3
 20005e8:	e17fe817 	ldw	r5,-96(fp)
 20005ec:	e13fe817 	ldw	r4,-96(fp)
 20005f0:	20023f80 	call	20023f8 <__mulsf3>
 20005f4:	1007883a 	mov	r3,r2
 20005f8:	1805883a 	mov	r2,r3
 20005fc:	100b883a 	mov	r5,r2
 2000600:	8009883a 	mov	r4,r16
 2000604:	200196c0 	call	200196c <__addsf3>
 2000608:	1007883a 	mov	r3,r2
 200060c:	1805883a 	mov	r2,r3
 2000610:	1009883a 	mov	r4,r2
 2000614:	200167c0 	call	200167c <sqrtf>
 2000618:	e0bfe915 	stw	r2,-92(fp)
   float direction [] = {x/length, y/length};
 200061c:	e17fe917 	ldw	r5,-92(fp)
 2000620:	e13fe717 	ldw	r4,-100(fp)
 2000624:	2001e340 	call	2001e34 <__divsf3>
 2000628:	1007883a 	mov	r3,r2
 200062c:	1805883a 	mov	r2,r3
 2000630:	e0bfef15 	stw	r2,-68(fp)
 2000634:	e17fe917 	ldw	r5,-92(fp)
 2000638:	e13fe817 	ldw	r4,-96(fp)
 200063c:	2001e340 	call	2001e34 <__divsf3>
 2000640:	1007883a 	mov	r3,r2
 2000644:	1805883a 	mov	r2,r3
 2000648:	e0bff015 	stw	r2,-64(fp)
   float speed = length / 2.0;
 200064c:	01500034 	movhi	r5,16384
 2000650:	e13fe917 	ldw	r4,-92(fp)
 2000654:	2001e340 	call	2001e34 <__divsf3>
 2000658:	1007883a 	mov	r3,r2
 200065c:	e0ffe115 	stw	r3,-124(fp)

   float velocity1 [] = {direction[0] * speed/10.0, direction[1] * speed/10.0};
 2000660:	e0bfef17 	ldw	r2,-68(fp)
 2000664:	e17fe117 	ldw	r5,-124(fp)
 2000668:	1009883a 	mov	r4,r2
 200066c:	20023f80 	call	20023f8 <__mulsf3>
 2000670:	1007883a 	mov	r3,r2
 2000674:	1805883a 	mov	r2,r3
 2000678:	01504834 	movhi	r5,16672
 200067c:	1009883a 	mov	r4,r2
 2000680:	2001e340 	call	2001e34 <__divsf3>
 2000684:	1007883a 	mov	r3,r2
 2000688:	1805883a 	mov	r2,r3
 200068c:	e0bff115 	stw	r2,-60(fp)
 2000690:	e0bff017 	ldw	r2,-64(fp)
 2000694:	e17fe117 	ldw	r5,-124(fp)
 2000698:	1009883a 	mov	r4,r2
 200069c:	20023f80 	call	20023f8 <__mulsf3>
 20006a0:	1007883a 	mov	r3,r2
 20006a4:	1805883a 	mov	r2,r3
 20006a8:	01504834 	movhi	r5,16672
 20006ac:	1009883a 	mov	r4,r2
 20006b0:	2001e340 	call	2001e34 <__divsf3>
 20006b4:	1007883a 	mov	r3,r2
 20006b8:	1805883a 	mov	r2,r3
 20006bc:	e0bff215 	stw	r2,-56(fp)
   float velocity2 [2];

   int border_collision [2][4] = {{0, 0, 0, 0},{0, 0, 0, 0}};
 20006c0:	e03ff515 	stw	zero,-44(fp)
 20006c4:	e03ff615 	stw	zero,-40(fp)
 20006c8:	e03ff715 	stw	zero,-36(fp)
 20006cc:	e03ff815 	stw	zero,-32(fp)
 20006d0:	e03ff915 	stw	zero,-28(fp)
 20006d4:	e03ffa15 	stw	zero,-24(fp)
 20006d8:	e03ffb15 	stw	zero,-20(fp)
 20006dc:	e03ffc15 	stw	zero,-16(fp)
   collision = detect_collide(ball1,ball2,velocity1);
 20006e0:	e13ff104 	addi	r4,fp,-60
 20006e4:	e0ffed04 	addi	r3,fp,-76
 20006e8:	e0bfeb04 	addi	r2,fp,-84
 20006ec:	200d883a 	mov	r6,r4
 20006f0:	180b883a 	mov	r5,r3
 20006f4:	1009883a 	mov	r4,r2
 20006f8:	2000d580 	call	2000d58 <detect_collide>
 20006fc:	e0bfe315 	stw	r2,-116(fp)

   while(speed >= 0.01)
 2000700:	0000ce06 	br	2000a3c <task2+0x5cc>
   {
	   	//Border Collide
       borderCollide((int) x_ball, (int) y_ball, border_collision[0], velocity1);
 2000704:	e13fdd17 	ldw	r4,-140(fp)
 2000708:	2002d0c0 	call	2002d0c <__fixsfsi>
 200070c:	1021883a 	mov	r16,r2
 2000710:	e13fde17 	ldw	r4,-136(fp)
 2000714:	2002d0c0 	call	2002d0c <__fixsfsi>
 2000718:	1009883a 	mov	r4,r2
 200071c:	e0fff104 	addi	r3,fp,-60
 2000720:	e0bff504 	addi	r2,fp,-44
 2000724:	180f883a 	mov	r7,r3
 2000728:	100d883a 	mov	r6,r2
 200072c:	200b883a 	mov	r5,r4
 2000730:	8009883a 	mov	r4,r16
 2000734:	20015240 	call	2001524 <borderCollide>
       borderCollide((int) x_ball2, (int) y_ball2, border_collision[0], velocity2);
 2000738:	e13fdf17 	ldw	r4,-132(fp)
 200073c:	2002d0c0 	call	2002d0c <__fixsfsi>
 2000740:	1021883a 	mov	r16,r2
 2000744:	e13fe017 	ldw	r4,-128(fp)
 2000748:	2002d0c0 	call	2002d0c <__fixsfsi>
 200074c:	1009883a 	mov	r4,r2
 2000750:	e0fff304 	addi	r3,fp,-52
 2000754:	e0bff504 	addi	r2,fp,-44
 2000758:	180f883a 	mov	r7,r3
 200075c:	100d883a 	mov	r6,r2
 2000760:	200b883a 	mov	r5,r4
 2000764:	8009883a 	mov	r4,r16
 2000768:	20015240 	call	2001524 <borderCollide>


       //Move the ball
       x_ball += velocity1[0];
 200076c:	e0bff117 	ldw	r2,-60(fp)
 2000770:	100b883a 	mov	r5,r2
 2000774:	e13fdd17 	ldw	r4,-140(fp)
 2000778:	200196c0 	call	200196c <__addsf3>
 200077c:	1007883a 	mov	r3,r2
 2000780:	e0ffdd15 	stw	r3,-140(fp)
       y_ball += velocity1[1];
 2000784:	e0bff217 	ldw	r2,-56(fp)
 2000788:	100b883a 	mov	r5,r2
 200078c:	e13fde17 	ldw	r4,-136(fp)
 2000790:	200196c0 	call	200196c <__addsf3>
 2000794:	1007883a 	mov	r3,r2
 2000798:	e0ffde15 	stw	r3,-136(fp)
       ball1[0]=x_ball;
 200079c:	e0bfdd17 	ldw	r2,-140(fp)
 20007a0:	e0bfeb15 	stw	r2,-84(fp)
       ball1[1]=y_ball;
 20007a4:	e0bfde17 	ldw	r2,-136(fp)
 20007a8:	e0bfec15 	stw	r2,-80(fp)
       x_ball2 += velocity2[0];
 20007ac:	e0bff317 	ldw	r2,-52(fp)
 20007b0:	100b883a 	mov	r5,r2
 20007b4:	e13fdf17 	ldw	r4,-132(fp)
 20007b8:	200196c0 	call	200196c <__addsf3>
 20007bc:	1007883a 	mov	r3,r2
 20007c0:	e0ffdf15 	stw	r3,-132(fp)
       y_ball2 += velocity2[1];
 20007c4:	e0bff417 	ldw	r2,-48(fp)
 20007c8:	100b883a 	mov	r5,r2
 20007cc:	e13fe017 	ldw	r4,-128(fp)
 20007d0:	200196c0 	call	200196c <__addsf3>
 20007d4:	1007883a 	mov	r3,r2
 20007d8:	e0ffe015 	stw	r3,-128(fp)
       ball2[0]=x_ball2;
 20007dc:	e0bfdf17 	ldw	r2,-132(fp)
 20007e0:	e0bfed15 	stw	r2,-76(fp)
       ball2[1]=y_ball2;
 20007e4:	e0bfe017 	ldw	r2,-128(fp)
 20007e8:	e0bfee15 	stw	r2,-72(fp)

       //Collision
       collision = detect_collide(ball1,ball2,velocity1);
 20007ec:	e13ff104 	addi	r4,fp,-60
 20007f0:	e0ffed04 	addi	r3,fp,-76
 20007f4:	e0bfeb04 	addi	r2,fp,-84
 20007f8:	200d883a 	mov	r6,r4
 20007fc:	180b883a 	mov	r5,r3
 2000800:	1009883a 	mov	r4,r2
 2000804:	2000d580 	call	2000d58 <detect_collide>
 2000808:	e0bfe315 	stw	r2,-116(fp)
       if (collision==1) {
 200080c:	e0bfe317 	ldw	r2,-116(fp)
 2000810:	10800058 	cmpnei	r2,r2,1
 2000814:	10000e1e 	bne	r2,zero,2000850 <task2+0x3e0>
    	   printf("Collision detected\n");
 2000818:	010080b4 	movhi	r4,514
 200081c:	212d2804 	addi	r4,r4,-19296
 2000820:	20047c40 	call	20047c4 <puts>
    	   collide_calc(ball1,ball2,velocity1,velocity2,collision);
 2000824:	e1bff304 	addi	r6,fp,-52
 2000828:	e17ff104 	addi	r5,fp,-60
 200082c:	e13fed04 	addi	r4,fp,-76
 2000830:	e0ffeb04 	addi	r3,fp,-84
 2000834:	e0bfe317 	ldw	r2,-116(fp)
 2000838:	d8800015 	stw	r2,0(sp)
 200083c:	300f883a 	mov	r7,r6
 2000840:	280d883a 	mov	r6,r5
 2000844:	200b883a 	mov	r5,r4
 2000848:	1809883a 	mov	r4,r3
 200084c:	2000ee40 	call	2000ee4 <collide_calc>
       }

       // Damping factor
       velocity1[0] *= 0.98;
 2000850:	e0bff117 	ldw	r2,-60(fp)
 2000854:	1009883a 	mov	r4,r2
 2000858:	20041b80 	call	20041b8 <__extendsfdf2>
 200085c:	1011883a 	mov	r8,r2
 2000860:	1813883a 	mov	r9,r3
 2000864:	01bd70f4 	movhi	r6,62915
 2000868:	31a3d704 	addi	r6,r6,-28836
 200086c:	01cffbf4 	movhi	r7,16367
 2000870:	39d70a04 	addi	r7,r7,23592
 2000874:	4009883a 	mov	r4,r8
 2000878:	480b883a 	mov	r5,r9
 200087c:	200394c0 	call	200394c <__muldf3>
 2000880:	1009883a 	mov	r4,r2
 2000884:	180b883a 	mov	r5,r3
 2000888:	2005883a 	mov	r2,r4
 200088c:	2807883a 	mov	r3,r5
 2000890:	1009883a 	mov	r4,r2
 2000894:	180b883a 	mov	r5,r3
 2000898:	20042c80 	call	20042c8 <__truncdfsf2>
 200089c:	1007883a 	mov	r3,r2
 20008a0:	e0fff115 	stw	r3,-60(fp)
       velocity1[1] *= 0.98;
 20008a4:	e0bff217 	ldw	r2,-56(fp)
 20008a8:	1009883a 	mov	r4,r2
 20008ac:	20041b80 	call	20041b8 <__extendsfdf2>
 20008b0:	1011883a 	mov	r8,r2
 20008b4:	1813883a 	mov	r9,r3
 20008b8:	01bd70f4 	movhi	r6,62915
 20008bc:	31a3d704 	addi	r6,r6,-28836
 20008c0:	01cffbf4 	movhi	r7,16367
 20008c4:	39d70a04 	addi	r7,r7,23592
 20008c8:	4009883a 	mov	r4,r8
 20008cc:	480b883a 	mov	r5,r9
 20008d0:	200394c0 	call	200394c <__muldf3>
 20008d4:	1009883a 	mov	r4,r2
 20008d8:	180b883a 	mov	r5,r3
 20008dc:	2005883a 	mov	r2,r4
 20008e0:	2807883a 	mov	r3,r5
 20008e4:	1009883a 	mov	r4,r2
 20008e8:	180b883a 	mov	r5,r3
 20008ec:	20042c80 	call	20042c8 <__truncdfsf2>
 20008f0:	1007883a 	mov	r3,r2
 20008f4:	e0fff215 	stw	r3,-56(fp)

       velocity2[0] *= 0.98;
 20008f8:	e0bff317 	ldw	r2,-52(fp)
 20008fc:	1009883a 	mov	r4,r2
 2000900:	20041b80 	call	20041b8 <__extendsfdf2>
 2000904:	1011883a 	mov	r8,r2
 2000908:	1813883a 	mov	r9,r3
 200090c:	01bd70f4 	movhi	r6,62915
 2000910:	31a3d704 	addi	r6,r6,-28836
 2000914:	01cffbf4 	movhi	r7,16367
 2000918:	39d70a04 	addi	r7,r7,23592
 200091c:	4009883a 	mov	r4,r8
 2000920:	480b883a 	mov	r5,r9
 2000924:	200394c0 	call	200394c <__muldf3>
 2000928:	1009883a 	mov	r4,r2
 200092c:	180b883a 	mov	r5,r3
 2000930:	2005883a 	mov	r2,r4
 2000934:	2807883a 	mov	r3,r5
 2000938:	1009883a 	mov	r4,r2
 200093c:	180b883a 	mov	r5,r3
 2000940:	20042c80 	call	20042c8 <__truncdfsf2>
 2000944:	1007883a 	mov	r3,r2
 2000948:	e0fff315 	stw	r3,-52(fp)
       velocity2[1] *= 0.98;
 200094c:	e0bff417 	ldw	r2,-48(fp)
 2000950:	1009883a 	mov	r4,r2
 2000954:	20041b80 	call	20041b8 <__extendsfdf2>
 2000958:	1011883a 	mov	r8,r2
 200095c:	1813883a 	mov	r9,r3
 2000960:	01bd70f4 	movhi	r6,62915
 2000964:	31a3d704 	addi	r6,r6,-28836
 2000968:	01cffbf4 	movhi	r7,16367
 200096c:	39d70a04 	addi	r7,r7,23592
 2000970:	4009883a 	mov	r4,r8
 2000974:	480b883a 	mov	r5,r9
 2000978:	200394c0 	call	200394c <__muldf3>
 200097c:	1009883a 	mov	r4,r2
 2000980:	180b883a 	mov	r5,r3
 2000984:	2005883a 	mov	r2,r4
 2000988:	2807883a 	mov	r3,r5
 200098c:	1009883a 	mov	r4,r2
 2000990:	180b883a 	mov	r5,r3
 2000994:	20042c80 	call	20042c8 <__truncdfsf2>
 2000998:	1007883a 	mov	r3,r2
 200099c:	e0fff415 	stw	r3,-48(fp)
       speed = abs((int) (velocity1[0])) + abs((int) (velocity1[1]));
 20009a0:	e0bff117 	ldw	r2,-60(fp)
 20009a4:	1009883a 	mov	r4,r2
 20009a8:	2002d0c0 	call	2002d0c <__fixsfsi>
 20009ac:	1000010e 	bge	r2,zero,20009b4 <task2+0x544>
 20009b0:	0085c83a 	sub	r2,zero,r2
 20009b4:	1021883a 	mov	r16,r2
 20009b8:	e0bff217 	ldw	r2,-56(fp)
 20009bc:	1009883a 	mov	r4,r2
 20009c0:	2002d0c0 	call	2002d0c <__fixsfsi>
 20009c4:	1000010e 	bge	r2,zero,20009cc <task2+0x55c>
 20009c8:	0085c83a 	sub	r2,zero,r2
 20009cc:	8085883a 	add	r2,r16,r2
 20009d0:	1009883a 	mov	r4,r2
 20009d4:	2002d7c0 	call	2002d7c <__floatsisf>
 20009d8:	1007883a 	mov	r3,r2
 20009dc:	e0ffe115 	stw	r3,-124(fp)

       *(display + 1) = ((int) (y_ball) << 10) + (int) (x_ball);
 20009e0:	e0bfe217 	ldw	r2,-120(fp)
 20009e4:	14000104 	addi	r16,r2,4
 20009e8:	e13fde17 	ldw	r4,-136(fp)
 20009ec:	2002d0c0 	call	2002d0c <__fixsfsi>
 20009f0:	102292ba 	slli	r17,r2,10
 20009f4:	e13fdd17 	ldw	r4,-140(fp)
 20009f8:	2002d0c0 	call	2002d0c <__fixsfsi>
 20009fc:	8885883a 	add	r2,r17,r2
 2000a00:	80800015 	stw	r2,0(r16)
       *(display + 2) = ((int) (y_ball2) << 10) + (int) (x_ball2);
 2000a04:	e0bfe217 	ldw	r2,-120(fp)
 2000a08:	14000204 	addi	r16,r2,8
 2000a0c:	e13fe017 	ldw	r4,-128(fp)
 2000a10:	2002d0c0 	call	2002d0c <__fixsfsi>
 2000a14:	102292ba 	slli	r17,r2,10
 2000a18:	e13fdf17 	ldw	r4,-132(fp)
 2000a1c:	2002d0c0 	call	2002d0c <__fixsfsi>
 2000a20:	8885883a 	add	r2,r17,r2
 2000a24:	80800015 	stw	r2,0(r16)
       OSTimeDlyHMSM(0, 0, 0, 20);
 2000a28:	01c00504 	movi	r7,20
 2000a2c:	000d883a 	mov	r6,zero
 2000a30:	000b883a 	mov	r5,zero
 2000a34:	0009883a 	mov	r4,zero
 2000a38:	2018bd00 	call	2018bd0 <OSTimeDlyHMSM>
   float velocity2 [2];

   int border_collision [2][4] = {{0, 0, 0, 0},{0, 0, 0, 0}};
   collision = detect_collide(ball1,ball2,velocity1);

   while(speed >= 0.01)
 2000a3c:	e13fe117 	ldw	r4,-124(fp)
 2000a40:	20041b80 	call	20041b8 <__extendsfdf2>
 2000a44:	1011883a 	mov	r8,r2
 2000a48:	1813883a 	mov	r9,r3
 2000a4c:	0191ebb4 	movhi	r6,18350
 2000a50:	31851ec4 	addi	r6,r6,5243
 2000a54:	01cfe134 	movhi	r7,16260
 2000a58:	39deb844 	addi	r7,r7,31457
 2000a5c:	4009883a 	mov	r4,r8
 2000a60:	480b883a 	mov	r5,r9
 2000a64:	20038700 	call	2003870 <__gedf2>
 2000a68:	103f260e 	bge	r2,zero,2000704 <task2+0x294>
       *(display + 1) = ((int) (y_ball) << 10) + (int) (x_ball);
       *(display + 2) = ((int) (y_ball2) << 10) + (int) (x_ball2);
       OSTimeDlyHMSM(0, 0, 0, 20);

   }
   OSTimeDlyHMSM(0, 0, 0, 500);
 2000a6c:	01c07d04 	movi	r7,500
 2000a70:	000d883a 	mov	r6,zero
 2000a74:	000b883a 	mov	r5,zero
 2000a78:	0009883a 	mov	r4,zero
 2000a7c:	2018bd00 	call	2018bd0 <OSTimeDlyHMSM>

   printf("Animation termine\n");
 2000a80:	010080b4 	movhi	r4,514
 2000a84:	212d2d04 	addi	r4,r4,-19276
 2000a88:	20047c40 	call	20047c4 <puts>

   OSTimeDlyHMSM(0, 0, 5, 0);
 2000a8c:	000f883a 	mov	r7,zero
 2000a90:	01800144 	movi	r6,5
 2000a94:	000b883a 	mov	r5,zero
 2000a98:	0009883a 	mov	r4,zero
 2000a9c:	2018bd00 	call	2018bd0 <OSTimeDlyHMSM>

   opt_task2= OS_FLAG_CLR;
 2000aa0:	e03fe405 	stb	zero,-112(fp)
   OSFlagPost(AnimationFlagGrp,ANIMATION,opt_task2,&err);
 2000aa4:	d0a71017 	ldw	r2,-25536(gp)
 2000aa8:	e0ffe403 	ldbu	r3,-112(fp)
 2000aac:	e13fea04 	addi	r4,fp,-88
 2000ab0:	200f883a 	mov	r7,r4
 2000ab4:	180d883a 	mov	r6,r3
 2000ab8:	01400044 	movi	r5,1
 2000abc:	1009883a 	mov	r4,r2
 2000ac0:	2013da40 	call	2013da4 <OSFlagPost>
  }
 2000ac4:	003e9606 	br	2000520 <task2+0xb0>

02000ac8 <task3>:
}

void task3(void* pdata)
{
 2000ac8:	defff204 	addi	sp,sp,-56
 2000acc:	dfc00d15 	stw	ra,52(sp)
 2000ad0:	df000c15 	stw	fp,48(sp)
 2000ad4:	df000c04 	addi	fp,sp,48
 2000ad8:	e13fff15 	stw	r4,-4(fp)
	INT8U err;
	INT8U opt_task1;

	int activePlayer = 1;
 2000adc:	00800044 	movi	r2,1
 2000ae0:	e0bff515 	stw	r2,-44(fp)

	int * XdirSend = (int*) MEM_NIOS_PI_BASE+1;
 2000ae4:	00800834 	movhi	r2,32
 2000ae8:	10800104 	addi	r2,r2,4
 2000aec:	e0bff615 	stw	r2,-40(fp)
	int * YdirSend = (int*) MEM_NIOS_PI_BASE+2;
 2000af0:	00800834 	movhi	r2,32
 2000af4:	10800204 	addi	r2,r2,8
 2000af8:	e0bff715 	stw	r2,-36(fp)
	int * isSend = (int*) MEM_NIOS_PI_BASE+3;
 2000afc:	00800834 	movhi	r2,32
 2000b00:	10800304 	addi	r2,r2,12
 2000b04:	e0bff815 	stw	r2,-32(fp)
	int * isReceived = (int*) MEM_NIOS_PI_BASE+4;
 2000b08:	00800834 	movhi	r2,32
 2000b0c:	10800404 	addi	r2,r2,16
 2000b10:	e0bff915 	stw	r2,-28(fp)
	//int * AckSend     = (int*) MEM_NIOS_PI_BASE+5;
	//int * AckReceived     = (int*) MEM_NIOS_PI_BASE+6;
	int * XdirRec = (int*) MEM_NIOS_PI_BASE+7;
 2000b14:	00800834 	movhi	r2,32
 2000b18:	10800704 	addi	r2,r2,28
 2000b1c:	e0bffa15 	stw	r2,-24(fp)
	int * YdirRec = (int*) MEM_NIOS_PI_BASE+8;
 2000b20:	00800834 	movhi	r2,32
 2000b24:	10800804 	addi	r2,r2,32
 2000b28:	e0bffb15 	stw	r2,-20(fp)
	//int * speedRec = (int*) MEM_NIOS_PI_BASE+9;

	*XdirSend =0;
 2000b2c:	e0bff617 	ldw	r2,-40(fp)
 2000b30:	10000015 	stw	zero,0(r2)
	*XdirRec =0;
 2000b34:	e0bffa17 	ldw	r2,-24(fp)
 2000b38:	10000015 	stw	zero,0(r2)
	*isSend = 0;
 2000b3c:	e0bff817 	ldw	r2,-32(fp)
 2000b40:	10000015 	stw	zero,0(r2)
	*isReceived = 0;
 2000b44:	e0bff917 	ldw	r2,-28(fp)
 2000b48:	10000015 	stw	zero,0(r2)
	*YdirSend =0;
 2000b4c:	e0bff717 	ldw	r2,-36(fp)
 2000b50:	10000015 	stw	zero,0(r2)
	*YdirRec = 0;
 2000b54:	e0bffb17 	ldw	r2,-20(fp)
 2000b58:	10000015 	stw	zero,0(r2)
	 * 	-> Envoi les données ensuite on prévient le Raspberry qu'il y a de nouvelle donnée disponible
	 * 	-> Envoi les données à la tâche 3 + lance l'animation
	 * 	-> Désactive la tâche 1
	 * */

	 if(!*isReceived && activePlayer){
 2000b5c:	e0bff917 	ldw	r2,-28(fp)
 2000b60:	10800017 	ldw	r2,0(r2)
 2000b64:	10004a1e 	bne	r2,zero,2000c90 <task3+0x1c8>
 2000b68:	e0bff517 	ldw	r2,-44(fp)
 2000b6c:	10004826 	beq	r2,zero,2000c90 <task3+0x1c8>
		  OSFlagPost(isActiveFlagGrp, IS_ACTIVE, OS_FLAG_SET, &err);
 2000b70:	d0a71517 	ldw	r2,-25516(gp)
 2000b74:	e0fffe44 	addi	r3,fp,-7
 2000b78:	180f883a 	mov	r7,r3
 2000b7c:	01800044 	movi	r6,1
 2000b80:	01400044 	movi	r5,1
 2000b84:	1009883a 	mov	r4,r2
 2000b88:	2013da40 	call	2013da4 <OSFlagPost>
		  printf("Wait for value from task 1\n");
 2000b8c:	010080b4 	movhi	r4,514
 2000b90:	212d3204 	addi	r4,r4,-19256
 2000b94:	20047c40 	call	20047c4 <puts>
		  int *vector_x = (int *) OSMboxPend(MailBox1,0,&err);
 2000b98:	d0a71417 	ldw	r2,-25520(gp)
 2000b9c:	e0fffe44 	addi	r3,fp,-7
 2000ba0:	180d883a 	mov	r6,r3
 2000ba4:	000b883a 	mov	r5,zero
 2000ba8:	1009883a 	mov	r4,r2
 2000bac:	20149800 	call	2014980 <OSMboxPend>
 2000bb0:	e0bffc15 	stw	r2,-16(fp)
		  int *vector_y = (int *) OSMboxPend(MailBox2,0,&err);
 2000bb4:	d0a71217 	ldw	r2,-25528(gp)
 2000bb8:	e0fffe44 	addi	r3,fp,-7
 2000bbc:	180d883a 	mov	r6,r3
 2000bc0:	000b883a 	mov	r5,zero
 2000bc4:	1009883a 	mov	r4,r2
 2000bc8:	20149800 	call	2014980 <OSMboxPend>
 2000bcc:	e0bffd15 	stw	r2,-12(fp)
		  printf("Get value from task 1 : (%d, %d)\n",*vector_x, *vector_y);
 2000bd0:	e0bffc17 	ldw	r2,-16(fp)
 2000bd4:	10c00017 	ldw	r3,0(r2)
 2000bd8:	e0bffd17 	ldw	r2,-12(fp)
 2000bdc:	10800017 	ldw	r2,0(r2)
 2000be0:	100d883a 	mov	r6,r2
 2000be4:	180b883a 	mov	r5,r3
 2000be8:	010080b4 	movhi	r4,514
 2000bec:	212d3904 	addi	r4,r4,-19228
 2000bf0:	20046c80 	call	20046c8 <printf>

		  OSMboxPost(MailBox4, vector_x);
 2000bf4:	d0a71317 	ldw	r2,-25524(gp)
 2000bf8:	e17ffc17 	ldw	r5,-16(fp)
 2000bfc:	1009883a 	mov	r4,r2
 2000c00:	2014d200 	call	2014d20 <OSMboxPost>
		  OSMboxPost(MailBox5, vector_y);
 2000c04:	d0a71117 	ldw	r2,-25532(gp)
 2000c08:	e17ffd17 	ldw	r5,-12(fp)
 2000c0c:	1009883a 	mov	r4,r2
 2000c10:	2014d200 	call	2014d20 <OSMboxPost>

		  *XdirSend = *vector_x;
 2000c14:	e0bffc17 	ldw	r2,-16(fp)
 2000c18:	10c00017 	ldw	r3,0(r2)
 2000c1c:	e0bff617 	ldw	r2,-40(fp)
 2000c20:	10c00015 	stw	r3,0(r2)
		  *YdirSend = *vector_y;
 2000c24:	e0bffd17 	ldw	r2,-12(fp)
 2000c28:	10c00017 	ldw	r3,0(r2)
 2000c2c:	e0bff717 	ldw	r2,-36(fp)
 2000c30:	10c00015 	stw	r3,0(r2)
		  *isSend = 1; // value are available
 2000c34:	e0bff817 	ldw	r2,-32(fp)
 2000c38:	00c00044 	movi	r3,1
 2000c3c:	10c00015 	stw	r3,0(r2)
		  activePlayer = 1; //modified
 2000c40:	00800044 	movi	r2,1
 2000c44:	e0bff515 	stw	r2,-44(fp)

		  opt_task1=OS_FLAG_CLR;
 2000c48:	e03ffe05 	stb	zero,-8(fp)
		  OSFlagPost(isActiveFlagGrp,IS_ACTIVE,opt_task1,&err);
 2000c4c:	d0a71517 	ldw	r2,-25516(gp)
 2000c50:	e0fffe03 	ldbu	r3,-8(fp)
 2000c54:	e13ffe44 	addi	r4,fp,-7
 2000c58:	200f883a 	mov	r7,r4
 2000c5c:	180d883a 	mov	r6,r3
 2000c60:	01400044 	movi	r5,1
 2000c64:	1009883a 	mov	r4,r2
 2000c68:	2013da40 	call	2013da4 <OSFlagPost>
		  OSFlagPend(AnimationFlagGrp, ANIMATION, OS_FLAG_WAIT_CLR_ALL, 0, &err);
 2000c6c:	d0e71017 	ldw	r3,-25536(gp)
 2000c70:	e0bffe44 	addi	r2,fp,-7
 2000c74:	d8800015 	stw	r2,0(sp)
 2000c78:	000f883a 	mov	r7,zero
 2000c7c:	000d883a 	mov	r6,zero
 2000c80:	01400044 	movi	r5,1
 2000c84:	1809883a 	mov	r4,r3
 2000c88:	201378c0 	call	201378c <OSFlagPend>
	 * 	-> Envoi les données ensuite on prévient le Raspberry qu'il y a de nouvelle donnée disponible
	 * 	-> Envoi les données à la tâche 3 + lance l'animation
	 * 	-> Désactive la tâche 1
	 * */

	 if(!*isReceived && activePlayer){
 2000c8c:	00002c06 	br	2000d40 <task3+0x278>
	 /* Si on n'est pas le joueur actif, on attend le signal donnée disponible
	  * -> lit les donnée
	  * -> envoi les données à la tâche 3 + lance l'animation
	  * -> passe en mode joueur actif
	  */
	 else if (!activePlayer && *isReceived){
 2000c90:	e0bff517 	ldw	r2,-44(fp)
 2000c94:	10002a1e 	bne	r2,zero,2000d40 <task3+0x278>
 2000c98:	e0bff917 	ldw	r2,-28(fp)
 2000c9c:	10800017 	ldw	r2,0(r2)
 2000ca0:	10002726 	beq	r2,zero,2000d40 <task3+0x278>
		  printf("Get value from SPI : (%d, %d)\n",*XdirRec, *YdirRec);
 2000ca4:	e0bffa17 	ldw	r2,-24(fp)
 2000ca8:	10c00017 	ldw	r3,0(r2)
 2000cac:	e0bffb17 	ldw	r2,-20(fp)
 2000cb0:	10800017 	ldw	r2,0(r2)
 2000cb4:	100d883a 	mov	r6,r2
 2000cb8:	180b883a 	mov	r5,r3
 2000cbc:	010080b4 	movhi	r4,514
 2000cc0:	212d4204 	addi	r4,r4,-19192
 2000cc4:	20046c80 	call	20046c8 <printf>
		  OSMboxPost(MailBox4, XdirRec);
 2000cc8:	d0a71317 	ldw	r2,-25524(gp)
 2000ccc:	e17ffa17 	ldw	r5,-24(fp)
 2000cd0:	1009883a 	mov	r4,r2
 2000cd4:	2014d200 	call	2014d20 <OSMboxPost>
		  OSMboxPost(MailBox5, YdirRec);
 2000cd8:	d0a71117 	ldw	r2,-25532(gp)
 2000cdc:	e17ffb17 	ldw	r5,-20(fp)
 2000ce0:	1009883a 	mov	r4,r2
 2000ce4:	2014d200 	call	2014d20 <OSMboxPost>
		  OSFlagPend(AnimationFlagGrp, ANIMATION, OS_FLAG_WAIT_CLR_ALL, 0, &err);
 2000ce8:	d0e71017 	ldw	r3,-25536(gp)
 2000cec:	e0bffe44 	addi	r2,fp,-7
 2000cf0:	d8800015 	stw	r2,0(sp)
 2000cf4:	000f883a 	mov	r7,zero
 2000cf8:	000d883a 	mov	r6,zero
 2000cfc:	01400044 	movi	r5,1
 2000d00:	1809883a 	mov	r4,r3
 2000d04:	201378c0 	call	201378c <OSFlagPend>
		  opt_task1=OS_FLAG_SET;
 2000d08:	00800044 	movi	r2,1
 2000d0c:	e0bffe05 	stb	r2,-8(fp)
		  OSFlagPost(isActiveFlagGrp,IS_ACTIVE,opt_task1,&err);
 2000d10:	d0a71517 	ldw	r2,-25516(gp)
 2000d14:	e0fffe03 	ldbu	r3,-8(fp)
 2000d18:	e13ffe44 	addi	r4,fp,-7
 2000d1c:	200f883a 	mov	r7,r4
 2000d20:	180d883a 	mov	r6,r3
 2000d24:	01400044 	movi	r5,1
 2000d28:	1009883a 	mov	r4,r2
 2000d2c:	2013da40 	call	2013da4 <OSFlagPost>
		  *isReceived = 0; // we are the actif player
 2000d30:	e0bff917 	ldw	r2,-28(fp)
 2000d34:	10000015 	stw	zero,0(r2)
		  activePlayer = 1;
 2000d38:	00800044 	movi	r2,1
 2000d3c:	e0bff515 	stw	r2,-44(fp)
	  }
	  OSTimeDlyHMSM(0,0,0,100);
 2000d40:	01c01904 	movi	r7,100
 2000d44:	000d883a 	mov	r6,zero
 2000d48:	000b883a 	mov	r5,zero
 2000d4c:	0009883a 	mov	r4,zero
 2000d50:	2018bd00 	call	2018bd0 <OSTimeDlyHMSM>
  }
 2000d54:	003f8106 	br	2000b5c <task3+0x94>

02000d58 <detect_collide>:
}

int detect_collide(float ball1[2], float ball2[2], float velocity1[2]){
 2000d58:	defff204 	addi	sp,sp,-56
 2000d5c:	dfc00d15 	stw	ra,52(sp)
 2000d60:	df000c15 	stw	fp,48(sp)
 2000d64:	dc000b15 	stw	r16,44(sp)
 2000d68:	df000c04 	addi	fp,sp,48
 2000d6c:	e13ffc15 	stw	r4,-16(fp)
 2000d70:	e17ffd15 	stw	r5,-12(fp)
 2000d74:	e1bffe15 	stw	r6,-8(fp)

	float x1,y1,x2,y2,dx,dy;
	int collision,size;
	size=13;
 2000d78:	00800344 	movi	r2,13
 2000d7c:	e0bff515 	stw	r2,-44(fp)
	x1=ball1[0]+ velocity1[0];
 2000d80:	e0bffc17 	ldw	r2,-16(fp)
 2000d84:	10c00017 	ldw	r3,0(r2)
 2000d88:	e0bffe17 	ldw	r2,-8(fp)
 2000d8c:	11000017 	ldw	r4,0(r2)
 2000d90:	200b883a 	mov	r5,r4
 2000d94:	1809883a 	mov	r4,r3
 2000d98:	200196c0 	call	200196c <__addsf3>
 2000d9c:	1007883a 	mov	r3,r2
 2000da0:	e0fff615 	stw	r3,-40(fp)
	x2=ball2[0]+ velocity1[0];
 2000da4:	e0bffd17 	ldw	r2,-12(fp)
 2000da8:	10c00017 	ldw	r3,0(r2)
 2000dac:	e0bffe17 	ldw	r2,-8(fp)
 2000db0:	11000017 	ldw	r4,0(r2)
 2000db4:	200b883a 	mov	r5,r4
 2000db8:	1809883a 	mov	r4,r3
 2000dbc:	200196c0 	call	200196c <__addsf3>
 2000dc0:	1007883a 	mov	r3,r2
 2000dc4:	e0fff715 	stw	r3,-36(fp)

	y1=ball1[1]+ velocity1[1];
 2000dc8:	e0bffc17 	ldw	r2,-16(fp)
 2000dcc:	10800104 	addi	r2,r2,4
 2000dd0:	10c00017 	ldw	r3,0(r2)
 2000dd4:	e0bffe17 	ldw	r2,-8(fp)
 2000dd8:	10800104 	addi	r2,r2,4
 2000ddc:	11000017 	ldw	r4,0(r2)
 2000de0:	200b883a 	mov	r5,r4
 2000de4:	1809883a 	mov	r4,r3
 2000de8:	200196c0 	call	200196c <__addsf3>
 2000dec:	1007883a 	mov	r3,r2
 2000df0:	e0fff815 	stw	r3,-32(fp)
	y2=ball2[1]+ velocity1[1];
 2000df4:	e0bffd17 	ldw	r2,-12(fp)
 2000df8:	10800104 	addi	r2,r2,4
 2000dfc:	10c00017 	ldw	r3,0(r2)
 2000e00:	e0bffe17 	ldw	r2,-8(fp)
 2000e04:	10800104 	addi	r2,r2,4
 2000e08:	11000017 	ldw	r4,0(r2)
 2000e0c:	200b883a 	mov	r5,r4
 2000e10:	1809883a 	mov	r4,r3
 2000e14:	200196c0 	call	200196c <__addsf3>
 2000e18:	1007883a 	mov	r3,r2
 2000e1c:	e0fff915 	stw	r3,-28(fp)

	dx=x2-x1;
 2000e20:	e17ff617 	ldw	r5,-40(fp)
 2000e24:	e13ff717 	ldw	r4,-36(fp)
 2000e28:	20028280 	call	2002828 <__subsf3>
 2000e2c:	1007883a 	mov	r3,r2
 2000e30:	e0fffa15 	stw	r3,-24(fp)
	dy=y2-y1;
 2000e34:	e17ff817 	ldw	r5,-32(fp)
 2000e38:	e13ff917 	ldw	r4,-28(fp)
 2000e3c:	20028280 	call	2002828 <__subsf3>
 2000e40:	1007883a 	mov	r3,r2
 2000e44:	e0fffb15 	stw	r3,-20(fp)
	if(dx*dx + dy*dy <= 4*size*size) collision=1;
 2000e48:	e17ffa17 	ldw	r5,-24(fp)
 2000e4c:	e13ffa17 	ldw	r4,-24(fp)
 2000e50:	20023f80 	call	20023f8 <__mulsf3>
 2000e54:	1007883a 	mov	r3,r2
 2000e58:	1821883a 	mov	r16,r3
 2000e5c:	e17ffb17 	ldw	r5,-20(fp)
 2000e60:	e13ffb17 	ldw	r4,-20(fp)
 2000e64:	20023f80 	call	20023f8 <__mulsf3>
 2000e68:	1007883a 	mov	r3,r2
 2000e6c:	1805883a 	mov	r2,r3
 2000e70:	100b883a 	mov	r5,r2
 2000e74:	8009883a 	mov	r4,r16
 2000e78:	200196c0 	call	200196c <__addsf3>
 2000e7c:	1007883a 	mov	r3,r2
 2000e80:	1821883a 	mov	r16,r3
 2000e84:	e0bff517 	ldw	r2,-44(fp)
 2000e88:	1085883a 	add	r2,r2,r2
 2000e8c:	1085883a 	add	r2,r2,r2
 2000e90:	e17ff517 	ldw	r5,-44(fp)
 2000e94:	1009883a 	mov	r4,r2
 2000e98:	20019440 	call	2001944 <__mulsi3>
 2000e9c:	1009883a 	mov	r4,r2
 2000ea0:	2002d7c0 	call	2002d7c <__floatsisf>
 2000ea4:	1007883a 	mov	r3,r2
 2000ea8:	180b883a 	mov	r5,r3
 2000eac:	8009883a 	mov	r4,r16
 2000eb0:	20023300 	call	2002330 <__lesf2>
 2000eb4:	00800316 	blt	zero,r2,2000ec4 <detect_collide+0x16c>
 2000eb8:	00800044 	movi	r2,1
 2000ebc:	e0bff415 	stw	r2,-48(fp)
 2000ec0:	00000106 	br	2000ec8 <detect_collide+0x170>
    else collision=0;
 2000ec4:	e03ff415 	stw	zero,-48(fp)
	return collision;
 2000ec8:	e0bff417 	ldw	r2,-48(fp)
}
 2000ecc:	e6ffff04 	addi	sp,fp,-4
 2000ed0:	dfc00217 	ldw	ra,8(sp)
 2000ed4:	df000117 	ldw	fp,4(sp)
 2000ed8:	dc000017 	ldw	r16,0(sp)
 2000edc:	dec00304 	addi	sp,sp,12
 2000ee0:	f800283a 	ret

02000ee4 <collide_calc>:

void collide_calc(float ball1[2], float ball2[2],float velocity1 [2], float velocity2 [2], int collision){
 2000ee4:	deffe804 	addi	sp,sp,-96
 2000ee8:	dfc01715 	stw	ra,92(sp)
 2000eec:	df001615 	stw	fp,88(sp)
 2000ef0:	dc801515 	stw	r18,84(sp)
 2000ef4:	dc401415 	stw	r17,80(sp)
 2000ef8:	dc001315 	stw	r16,76(sp)
 2000efc:	df001604 	addi	fp,sp,88
 2000f00:	e13ff915 	stw	r4,-28(fp)
 2000f04:	e17ffa15 	stw	r5,-24(fp)
 2000f08:	e1bffb15 	stw	r6,-20(fp)
 2000f0c:	e1fffc15 	stw	r7,-16(fp)
	//int result[8];
	if (collision){
 2000f10:	e0800217 	ldw	r2,8(fp)
 2000f14:	10012526 	beq	r2,zero,20013ac <collide_calc+0x4c8>
		int sign;
		float v21 [2];
		float a;
		float dv;

		x1=ball1[0];
 2000f18:	e0bff917 	ldw	r2,-28(fp)
 2000f1c:	10800017 	ldw	r2,0(r2)
 2000f20:	e0bfec15 	stw	r2,-80(fp)
		x2=ball2[0];
 2000f24:	e0bffa17 	ldw	r2,-24(fp)
 2000f28:	10800017 	ldw	r2,0(r2)
 2000f2c:	e0bfed15 	stw	r2,-76(fp)
		y1=ball1[1];
 2000f30:	e0bff917 	ldw	r2,-28(fp)
 2000f34:	10800117 	ldw	r2,4(r2)
 2000f38:	e0bfee15 	stw	r2,-72(fp)
		y2=ball2[1];
 2000f3c:	e0bffa17 	ldw	r2,-24(fp)
 2000f40:	10800117 	ldw	r2,4(r2)
 2000f44:	e0bfef15 	stw	r2,-68(fp)

		m1=1.0;
 2000f48:	008fe034 	movhi	r2,16256
 2000f4c:	e0bff015 	stw	r2,-64(fp)
		m2=1.0;
 2000f50:	008fe034 	movhi	r2,16256
 2000f54:	e0bff115 	stw	r2,-60(fp)
		m21 = m2/m1;
 2000f58:	e17ff017 	ldw	r5,-64(fp)
 2000f5c:	e13ff117 	ldw	r4,-60(fp)
 2000f60:	2001e340 	call	2001e34 <__divsf3>
 2000f64:	1007883a 	mov	r3,r2
 2000f68:	e0fff215 	stw	r3,-56(fp)
		x21 = x2-x1;
 2000f6c:	e17fec17 	ldw	r5,-80(fp)
 2000f70:	e13fed17 	ldw	r4,-76(fp)
 2000f74:	20028280 	call	2002828 <__subsf3>
 2000f78:	1007883a 	mov	r3,r2
 2000f7c:	e0ffea15 	stw	r3,-88(fp)
		y21 = y2-y1;
 2000f80:	e17fee17 	ldw	r5,-72(fp)
 2000f84:	e13fef17 	ldw	r4,-68(fp)
 2000f88:	20028280 	call	2002828 <__subsf3>
 2000f8c:	1007883a 	mov	r3,r2
 2000f90:	e0fff315 	stw	r3,-52(fp)
		v21[0]=velocity2[0]-velocity1[0];
 2000f94:	e0bffc17 	ldw	r2,-16(fp)
 2000f98:	10c00017 	ldw	r3,0(r2)
 2000f9c:	e0bffb17 	ldw	r2,-20(fp)
 2000fa0:	11000017 	ldw	r4,0(r2)
 2000fa4:	200b883a 	mov	r5,r4
 2000fa8:	1809883a 	mov	r4,r3
 2000fac:	20028280 	call	2002828 <__subsf3>
 2000fb0:	1007883a 	mov	r3,r2
 2000fb4:	1805883a 	mov	r2,r3
 2000fb8:	e0bff715 	stw	r2,-36(fp)
		v21[1]=velocity2[1]-velocity1[1];
 2000fbc:	e0bffc17 	ldw	r2,-16(fp)
 2000fc0:	10800104 	addi	r2,r2,4
 2000fc4:	10c00017 	ldw	r3,0(r2)
 2000fc8:	e0bffb17 	ldw	r2,-20(fp)
 2000fcc:	10800104 	addi	r2,r2,4
 2000fd0:	11000017 	ldw	r4,0(r2)
 2000fd4:	200b883a 	mov	r5,r4
 2000fd8:	1809883a 	mov	r4,r3
 2000fdc:	20028280 	call	2002828 <__subsf3>
 2000fe0:	1007883a 	mov	r3,r2
 2000fe4:	1805883a 	mov	r2,r3
 2000fe8:	e0bff815 	stw	r2,-32(fp)

		if (v21[0]*x21 + v21[1]*y21 >=0){
 2000fec:	e0bff717 	ldw	r2,-36(fp)
 2000ff0:	e17fea17 	ldw	r5,-88(fp)
 2000ff4:	1009883a 	mov	r4,r2
 2000ff8:	20023f80 	call	20023f8 <__mulsf3>
 2000ffc:	1007883a 	mov	r3,r2
 2001000:	1821883a 	mov	r16,r3
 2001004:	e0bff817 	ldw	r2,-32(fp)
 2001008:	e17ff317 	ldw	r5,-52(fp)
 200100c:	1009883a 	mov	r4,r2
 2001010:	20023f80 	call	20023f8 <__mulsf3>
 2001014:	1007883a 	mov	r3,r2
 2001018:	1805883a 	mov	r2,r3
 200101c:	100b883a 	mov	r5,r2
 2001020:	8009883a 	mov	r4,r16
 2001024:	200196c0 	call	200196c <__addsf3>
 2001028:	1007883a 	mov	r3,r2
 200102c:	1805883a 	mov	r2,r3
 2001030:	000b883a 	mov	r5,zero
 2001034:	1009883a 	mov	r4,r2
 2001038:	20022740 	call	2002274 <__gesf2>
 200103c:	10002b16 	blt	r2,zero,20010ec <collide_calc+0x208>
			printf("error in collision\n");
 2001040:	010080b4 	movhi	r4,514
 2001044:	212d4a04 	addi	r4,r4,-19160
 2001048:	20047c40 	call	20047c4 <puts>
			velocity2[0] = velocity2[0]+0.0;
 200104c:	e0bffc17 	ldw	r2,-16(fp)
 2001050:	10c00017 	ldw	r3,0(r2)
 2001054:	000b883a 	mov	r5,zero
 2001058:	1809883a 	mov	r4,r3
 200105c:	200196c0 	call	200196c <__addsf3>
 2001060:	1009883a 	mov	r4,r2
 2001064:	2007883a 	mov	r3,r4
 2001068:	e0bffc17 	ldw	r2,-16(fp)
 200106c:	10c00015 	stw	r3,0(r2)
            velocity2[1] = velocity2[1]+0.0;
 2001070:	e0bffc17 	ldw	r2,-16(fp)
 2001074:	14000104 	addi	r16,r2,4
 2001078:	e0bffc17 	ldw	r2,-16(fp)
 200107c:	10800104 	addi	r2,r2,4
 2001080:	10c00017 	ldw	r3,0(r2)
 2001084:	000b883a 	mov	r5,zero
 2001088:	1809883a 	mov	r4,r3
 200108c:	200196c0 	call	200196c <__addsf3>
 2001090:	1007883a 	mov	r3,r2
 2001094:	1805883a 	mov	r2,r3
 2001098:	80800015 	stw	r2,0(r16)
            velocity1[0] = velocity2[0]+0.0;
 200109c:	e0bffc17 	ldw	r2,-16(fp)
 20010a0:	10c00017 	ldw	r3,0(r2)
 20010a4:	000b883a 	mov	r5,zero
 20010a8:	1809883a 	mov	r4,r3
 20010ac:	200196c0 	call	200196c <__addsf3>
 20010b0:	1009883a 	mov	r4,r2
 20010b4:	2007883a 	mov	r3,r4
 20010b8:	e0bffb17 	ldw	r2,-20(fp)
 20010bc:	10c00015 	stw	r3,0(r2)
            velocity1[1] = velocity2[0]+0.0;
 20010c0:	e0bffb17 	ldw	r2,-20(fp)
 20010c4:	14000104 	addi	r16,r2,4
 20010c8:	e0bffc17 	ldw	r2,-16(fp)
 20010cc:	10c00017 	ldw	r3,0(r2)
 20010d0:	000b883a 	mov	r5,zero
 20010d4:	1809883a 	mov	r4,r3
 20010d8:	200196c0 	call	200196c <__addsf3>
 20010dc:	1007883a 	mov	r3,r2
 20010e0:	1805883a 	mov	r2,r3
 20010e4:	80800015 	stw	r2,0(r16)

            velocity1[0] = velocity1[0] - m21*dv;
            velocity1[1] = velocity1[0] - a*m21*dv;
		}
	}
}
 20010e8:	0000b006 	br	20013ac <collide_calc+0x4c8>
            velocity1[0] = velocity2[0]+0.0;
            velocity1[1] = velocity2[0]+0.0;

		}
		else{
			fy21=0.000001*fabs(y21);
 20010ec:	e0fff317 	ldw	r3,-52(fp)
 20010f0:	00a00034 	movhi	r2,32768
 20010f4:	10bfffc4 	addi	r2,r2,-1
 20010f8:	1884703a 	and	r2,r3,r2
 20010fc:	1009883a 	mov	r4,r2
 2001100:	20041b80 	call	20041b8 <__extendsfdf2>
 2001104:	1011883a 	mov	r8,r2
 2001108:	1813883a 	mov	r9,r3
 200110c:	01a82db4 	movhi	r6,41142
 2001110:	31bb6344 	addi	r6,r6,-4723
 2001114:	01cfac74 	movhi	r7,16049
 2001118:	39f1bdc4 	addi	r7,r7,-14601
 200111c:	4009883a 	mov	r4,r8
 2001120:	480b883a 	mov	r5,r9
 2001124:	200394c0 	call	200394c <__muldf3>
 2001128:	1009883a 	mov	r4,r2
 200112c:	180b883a 	mov	r5,r3
 2001130:	2005883a 	mov	r2,r4
 2001134:	2807883a 	mov	r3,r5
 2001138:	1009883a 	mov	r4,r2
 200113c:	180b883a 	mov	r5,r3
 2001140:	20042c80 	call	20042c8 <__truncdfsf2>
 2001144:	1007883a 	mov	r3,r2
 2001148:	e0fff415 	stw	r3,-48(fp)
			if(fabs(x21) < fy21){
 200114c:	e0ffea17 	ldw	r3,-88(fp)
 2001150:	00a00034 	movhi	r2,32768
 2001154:	10bfffc4 	addi	r2,r2,-1
 2001158:	1884703a 	and	r2,r3,r2
 200115c:	e17ff417 	ldw	r5,-48(fp)
 2001160:	1009883a 	mov	r4,r2
 2001164:	20023300 	call	2002330 <__lesf2>
 2001168:	1000110e 	bge	r2,zero,20011b0 <collide_calc+0x2cc>
				if (x21<0) sign = -1;
 200116c:	000b883a 	mov	r5,zero
 2001170:	e13fea17 	ldw	r4,-88(fp)
 2001174:	20023300 	call	2002330 <__lesf2>
 2001178:	1000030e 	bge	r2,zero,2001188 <collide_calc+0x2a4>
 200117c:	00bfffc4 	movi	r2,-1
 2001180:	e0bfeb15 	stw	r2,-84(fp)
 2001184:	00000206 	br	2001190 <collide_calc+0x2ac>
				else sign=1;
 2001188:	00800044 	movi	r2,1
 200118c:	e0bfeb15 	stw	r2,-84(fp)
				x21=fy21*sign;
 2001190:	e13feb17 	ldw	r4,-84(fp)
 2001194:	2002d7c0 	call	2002d7c <__floatsisf>
 2001198:	1007883a 	mov	r3,r2
 200119c:	e17ff417 	ldw	r5,-48(fp)
 20011a0:	1809883a 	mov	r4,r3
 20011a4:	20023f80 	call	20023f8 <__mulsf3>
 20011a8:	1007883a 	mov	r3,r2
 20011ac:	e0ffea15 	stw	r3,-88(fp)
			}
			a=y21/x21;
 20011b0:	e17fea17 	ldw	r5,-88(fp)
 20011b4:	e13ff317 	ldw	r4,-52(fp)
 20011b8:	2001e340 	call	2001e34 <__divsf3>
 20011bc:	1007883a 	mov	r3,r2
 20011c0:	e0fff515 	stw	r3,-44(fp)
            dv = -2.0*(v21[0]+a*v21[1])/((1+a*a)*(1+m21));
 20011c4:	e43ff717 	ldw	r16,-36(fp)
 20011c8:	e0bff817 	ldw	r2,-32(fp)
 20011cc:	e17ff517 	ldw	r5,-44(fp)
 20011d0:	1009883a 	mov	r4,r2
 20011d4:	20023f80 	call	20023f8 <__mulsf3>
 20011d8:	1007883a 	mov	r3,r2
 20011dc:	1805883a 	mov	r2,r3
 20011e0:	100b883a 	mov	r5,r2
 20011e4:	8009883a 	mov	r4,r16
 20011e8:	200196c0 	call	200196c <__addsf3>
 20011ec:	1007883a 	mov	r3,r2
 20011f0:	1805883a 	mov	r2,r3
 20011f4:	1009883a 	mov	r4,r2
 20011f8:	20041b80 	call	20041b8 <__extendsfdf2>
 20011fc:	1011883a 	mov	r8,r2
 2001200:	1813883a 	mov	r9,r3
 2001204:	000d883a 	mov	r6,zero
 2001208:	01f00034 	movhi	r7,49152
 200120c:	4009883a 	mov	r4,r8
 2001210:	480b883a 	mov	r5,r9
 2001214:	200394c0 	call	200394c <__muldf3>
 2001218:	1009883a 	mov	r4,r2
 200121c:	180b883a 	mov	r5,r3
 2001220:	2021883a 	mov	r16,r4
 2001224:	2823883a 	mov	r17,r5
 2001228:	e17ff517 	ldw	r5,-44(fp)
 200122c:	e13ff517 	ldw	r4,-44(fp)
 2001230:	20023f80 	call	20023f8 <__mulsf3>
 2001234:	1007883a 	mov	r3,r2
 2001238:	1805883a 	mov	r2,r3
 200123c:	014fe034 	movhi	r5,16256
 2001240:	1009883a 	mov	r4,r2
 2001244:	200196c0 	call	200196c <__addsf3>
 2001248:	1007883a 	mov	r3,r2
 200124c:	1825883a 	mov	r18,r3
 2001250:	014fe034 	movhi	r5,16256
 2001254:	e13ff217 	ldw	r4,-56(fp)
 2001258:	200196c0 	call	200196c <__addsf3>
 200125c:	1007883a 	mov	r3,r2
 2001260:	1805883a 	mov	r2,r3
 2001264:	100b883a 	mov	r5,r2
 2001268:	9009883a 	mov	r4,r18
 200126c:	20023f80 	call	20023f8 <__mulsf3>
 2001270:	1007883a 	mov	r3,r2
 2001274:	1805883a 	mov	r2,r3
 2001278:	1009883a 	mov	r4,r2
 200127c:	20041b80 	call	20041b8 <__extendsfdf2>
 2001280:	1009883a 	mov	r4,r2
 2001284:	180b883a 	mov	r5,r3
 2001288:	200d883a 	mov	r6,r4
 200128c:	280f883a 	mov	r7,r5
 2001290:	8009883a 	mov	r4,r16
 2001294:	880b883a 	mov	r5,r17
 2001298:	2002ea00 	call	2002ea0 <__divdf3>
 200129c:	1009883a 	mov	r4,r2
 20012a0:	180b883a 	mov	r5,r3
 20012a4:	2005883a 	mov	r2,r4
 20012a8:	2807883a 	mov	r3,r5
 20012ac:	1009883a 	mov	r4,r2
 20012b0:	180b883a 	mov	r5,r3
 20012b4:	20042c80 	call	20042c8 <__truncdfsf2>
 20012b8:	1007883a 	mov	r3,r2
 20012bc:	e0fff615 	stw	r3,-40(fp)
            velocity2[0] = velocity2[0] + dv;
 20012c0:	e0bffc17 	ldw	r2,-16(fp)
 20012c4:	10c00017 	ldw	r3,0(r2)
 20012c8:	e17ff617 	ldw	r5,-40(fp)
 20012cc:	1809883a 	mov	r4,r3
 20012d0:	200196c0 	call	200196c <__addsf3>
 20012d4:	1009883a 	mov	r4,r2
 20012d8:	2007883a 	mov	r3,r4
 20012dc:	e0bffc17 	ldw	r2,-16(fp)
 20012e0:	10c00015 	stw	r3,0(r2)
            velocity2[1] = velocity2[1] + a*dv;
 20012e4:	e0bffc17 	ldw	r2,-16(fp)
 20012e8:	14000104 	addi	r16,r2,4
 20012ec:	e0bffc17 	ldw	r2,-16(fp)
 20012f0:	10800104 	addi	r2,r2,4
 20012f4:	14400017 	ldw	r17,0(r2)
 20012f8:	e17ff617 	ldw	r5,-40(fp)
 20012fc:	e13ff517 	ldw	r4,-44(fp)
 2001300:	20023f80 	call	20023f8 <__mulsf3>
 2001304:	1007883a 	mov	r3,r2
 2001308:	1805883a 	mov	r2,r3
 200130c:	100b883a 	mov	r5,r2
 2001310:	8809883a 	mov	r4,r17
 2001314:	200196c0 	call	200196c <__addsf3>
 2001318:	1007883a 	mov	r3,r2
 200131c:	1805883a 	mov	r2,r3
 2001320:	80800015 	stw	r2,0(r16)

            velocity1[0] = velocity1[0] - m21*dv;
 2001324:	e0bffb17 	ldw	r2,-20(fp)
 2001328:	14000017 	ldw	r16,0(r2)
 200132c:	e17ff617 	ldw	r5,-40(fp)
 2001330:	e13ff217 	ldw	r4,-56(fp)
 2001334:	20023f80 	call	20023f8 <__mulsf3>
 2001338:	1007883a 	mov	r3,r2
 200133c:	1805883a 	mov	r2,r3
 2001340:	100b883a 	mov	r5,r2
 2001344:	8009883a 	mov	r4,r16
 2001348:	20028280 	call	2002828 <__subsf3>
 200134c:	1009883a 	mov	r4,r2
 2001350:	2007883a 	mov	r3,r4
 2001354:	e0bffb17 	ldw	r2,-20(fp)
 2001358:	10c00015 	stw	r3,0(r2)
            velocity1[1] = velocity1[0] - a*m21*dv;
 200135c:	e0bffb17 	ldw	r2,-20(fp)
 2001360:	14000104 	addi	r16,r2,4
 2001364:	e0bffb17 	ldw	r2,-20(fp)
 2001368:	14400017 	ldw	r17,0(r2)
 200136c:	e17ff217 	ldw	r5,-56(fp)
 2001370:	e13ff517 	ldw	r4,-44(fp)
 2001374:	20023f80 	call	20023f8 <__mulsf3>
 2001378:	1007883a 	mov	r3,r2
 200137c:	1805883a 	mov	r2,r3
 2001380:	e17ff617 	ldw	r5,-40(fp)
 2001384:	1009883a 	mov	r4,r2
 2001388:	20023f80 	call	20023f8 <__mulsf3>
 200138c:	1007883a 	mov	r3,r2
 2001390:	1805883a 	mov	r2,r3
 2001394:	100b883a 	mov	r5,r2
 2001398:	8809883a 	mov	r4,r17
 200139c:	20028280 	call	2002828 <__subsf3>
 20013a0:	1007883a 	mov	r3,r2
 20013a4:	1805883a 	mov	r2,r3
 20013a8:	80800015 	stw	r2,0(r16)
		}
	}
}
 20013ac:	0001883a 	nop
 20013b0:	e6fffd04 	addi	sp,fp,-12
 20013b4:	dfc00417 	ldw	ra,16(sp)
 20013b8:	df000317 	ldw	fp,12(sp)
 20013bc:	dc800217 	ldw	r18,8(sp)
 20013c0:	dc400117 	ldw	r17,4(sp)
 20013c4:	dc000017 	ldw	r16,0(sp)
 20013c8:	dec00504 	addi	sp,sp,20
 20013cc:	f800283a 	ret

020013d0 <main>:



/* The main function creates two task and starts multi-tasking */
int main(void)
{
 20013d0:	defff804 	addi	sp,sp,-32
 20013d4:	dfc00715 	stw	ra,28(sp)
 20013d8:	df000615 	stw	fp,24(sp)
 20013dc:	df000604 	addi	fp,sp,24
	INT8U err;

  MailBox1 = OSMboxCreate(NULL);
 20013e0:	0009883a 	mov	r4,zero
 20013e4:	201466c0 	call	201466c <OSMboxCreate>
 20013e8:	d0a71415 	stw	r2,-25520(gp)
  MailBox2 = OSMboxCreate(NULL);
 20013ec:	0009883a 	mov	r4,zero
 20013f0:	201466c0 	call	201466c <OSMboxCreate>
 20013f4:	d0a71215 	stw	r2,-25528(gp)
  MailBox3 = OSMboxCreate(NULL);
 20013f8:	0009883a 	mov	r4,zero
 20013fc:	201466c0 	call	201466c <OSMboxCreate>
 2001400:	d0a70f15 	stw	r2,-25540(gp)

  MailBox4 = OSMboxCreate(NULL);
 2001404:	0009883a 	mov	r4,zero
 2001408:	201466c0 	call	201466c <OSMboxCreate>
 200140c:	d0a71315 	stw	r2,-25524(gp)
  MailBox5 = OSMboxCreate(NULL);
 2001410:	0009883a 	mov	r4,zero
 2001414:	201466c0 	call	201466c <OSMboxCreate>
 2001418:	d0a71115 	stw	r2,-25532(gp)
  MailBox6 = OSMboxCreate(NULL);
 200141c:	0009883a 	mov	r4,zero
 2001420:	201466c0 	call	201466c <OSMboxCreate>
 2001424:	d0a70e15 	stw	r2,-25544(gp)

  isActiveFlagGrp = OSFlagCreate(0, &err);
 2001428:	e17fff04 	addi	r5,fp,-4
 200142c:	0009883a 	mov	r4,zero
 2001430:	20131c80 	call	20131c8 <OSFlagCreate>
 2001434:	d0a71515 	stw	r2,-25516(gp)
  AnimationFlagGrp = OSFlagCreate(0, &err);
 2001438:	e17fff04 	addi	r5,fp,-4
 200143c:	0009883a 	mov	r4,zero
 2001440:	20131c80 	call	20131c8 <OSFlagCreate>
 2001444:	d0a71015 	stw	r2,-25536(gp)

  OSTaskCreateExt(task1,
 2001448:	d8000415 	stw	zero,16(sp)
 200144c:	d8000315 	stw	zero,12(sp)
 2001450:	00820004 	movi	r2,2048
 2001454:	d8800215 	stw	r2,8(sp)
 2001458:	008080b4 	movhi	r2,514
 200145c:	10bc4d04 	addi	r2,r2,-3788
 2001460:	d8800115 	stw	r2,4(sp)
 2001464:	00800044 	movi	r2,1
 2001468:	d8800015 	stw	r2,0(sp)
 200146c:	01c00044 	movi	r7,1
 2001470:	018080b4 	movhi	r6,514
 2001474:	31844c04 	addi	r6,r6,4400
 2001478:	000b883a 	mov	r5,zero
 200147c:	01008034 	movhi	r4,512
 2001480:	21009b04 	addi	r4,r4,620
 2001484:	20179fc0 	call	20179fc <OSTaskCreateExt>
                  TASK_STACKSIZE,
                  NULL,
                  0);


  OSTaskCreateExt(task2,
 2001488:	d8000415 	stw	zero,16(sp)
 200148c:	d8000315 	stw	zero,12(sp)
 2001490:	00820004 	movi	r2,2048
 2001494:	d8800215 	stw	r2,8(sp)
 2001498:	008080b4 	movhi	r2,514
 200149c:	10844d04 	addi	r2,r2,4404
 20014a0:	d8800115 	stw	r2,4(sp)
 20014a4:	00800084 	movi	r2,2
 20014a8:	d8800015 	stw	r2,0(sp)
 20014ac:	01c00084 	movi	r7,2
 20014b0:	018080b4 	movhi	r6,514
 20014b4:	318c4c04 	addi	r6,r6,12592
 20014b8:	000b883a 	mov	r5,zero
 20014bc:	01008034 	movhi	r4,512
 20014c0:	21011c04 	addi	r4,r4,1136
 20014c4:	20179fc0 	call	20179fc <OSTaskCreateExt>
                  TASK2_PRIORITY,
                  task2_stk,
                  TASK_STACKSIZE,
                  NULL,
                  0);
  OSTaskCreateExt(task3,
 20014c8:	d8000415 	stw	zero,16(sp)
 20014cc:	d8000315 	stw	zero,12(sp)
 20014d0:	00820004 	movi	r2,2048
 20014d4:	d8800215 	stw	r2,8(sp)
 20014d8:	008080b4 	movhi	r2,514
 20014dc:	108c4d04 	addi	r2,r2,12596
 20014e0:	d8800115 	stw	r2,4(sp)
 20014e4:	008000c4 	movi	r2,3
 20014e8:	d8800015 	stw	r2,0(sp)
 20014ec:	01c000c4 	movi	r7,3
 20014f0:	018080b4 	movhi	r6,514
 20014f4:	31944c04 	addi	r6,r6,20784
 20014f8:	000b883a 	mov	r5,zero
 20014fc:	01008034 	movhi	r4,512
 2001500:	2102b204 	addi	r4,r4,2760
 2001504:	20179fc0 	call	20179fc <OSTaskCreateExt>
                   TASK3_PRIORITY,
                   task3_stk,
                   TASK_STACKSIZE,
                   NULL,
                   0);
  OSStart();
 2001508:	20118900 	call	2011890 <OSStart>
  return 0;
 200150c:	0005883a 	mov	r2,zero
}
 2001510:	e037883a 	mov	sp,fp
 2001514:	dfc00117 	ldw	ra,4(sp)
 2001518:	df000017 	ldw	fp,0(sp)
 200151c:	dec00204 	addi	sp,sp,8
 2001520:	f800283a 	ret

02001524 <borderCollide>:

#include "physics.h"
#include <stdio.h>

void borderCollide(int x_ball, int y_ball, int* border_collision, float* velocity)
{
 2001524:	defff704 	addi	sp,sp,-36
 2001528:	dfc00815 	stw	ra,32(sp)
 200152c:	df000715 	stw	fp,28(sp)
 2001530:	dc000615 	stw	r16,24(sp)
 2001534:	df000704 	addi	fp,sp,28
 2001538:	e13ffb15 	stw	r4,-20(fp)
 200153c:	e17ffc15 	stw	r5,-16(fp)
 2001540:	e1bffd15 	stw	r6,-12(fp)
 2001544:	e1fffe15 	stw	r7,-8(fp)
	int collide_x = 0;
 2001548:	e03ff915 	stw	zero,-28(fp)
	int collide_y = 0;
 200154c:	e03ffa15 	stw	zero,-24(fp)
	collide_x = (x_ball < BORDER_X + BORDER + SIZE || x_ball > (MAX_X + BORDER_X)-(BORDER + SIZE));
 2001550:	e0bffb17 	ldw	r2,-20(fp)
 2001554:	108018d0 	cmplti	r2,r2,99
 2001558:	1000031e 	bne	r2,zero,2001568 <borderCollide+0x44>
 200155c:	e0bffb17 	ldw	r2,-20(fp)
 2001560:	1080c690 	cmplti	r2,r2,794
 2001564:	1000021e 	bne	r2,zero,2001570 <borderCollide+0x4c>
 2001568:	00800044 	movi	r2,1
 200156c:	00000106 	br	2001574 <borderCollide+0x50>
 2001570:	0005883a 	mov	r2,zero
 2001574:	e0bff915 	stw	r2,-28(fp)
	collide_y = (y_ball < BORDER_Y + BORDER + SIZE || y_ball > (MAX_Y + BORDER_Y)-(BORDER + SIZE));
 2001578:	e0bffc17 	ldw	r2,-16(fp)
 200157c:	10801310 	cmplti	r2,r2,76
 2001580:	1000031e 	bne	r2,zero,2001590 <borderCollide+0x6c>
 2001584:	e0bffc17 	ldw	r2,-16(fp)
 2001588:	108070d0 	cmplti	r2,r2,451
 200158c:	1000021e 	bne	r2,zero,2001598 <borderCollide+0x74>
 2001590:	00800044 	movi	r2,1
 2001594:	00000106 	br	200159c <borderCollide+0x78>
 2001598:	0005883a 	mov	r2,zero
 200159c:	e0bffa15 	stw	r2,-24(fp)
	if(!border_collision[0] && collide_x)
 20015a0:	e0bffd17 	ldw	r2,-12(fp)
 20015a4:	10800017 	ldw	r2,0(r2)
 20015a8:	10000b1e 	bne	r2,zero,20015d8 <borderCollide+0xb4>
 20015ac:	e0bff917 	ldw	r2,-28(fp)
 20015b0:	10000926 	beq	r2,zero,20015d8 <borderCollide+0xb4>
	{
		velocity[0] = 0 - velocity[0];
 20015b4:	e0bffe17 	ldw	r2,-8(fp)
 20015b8:	10c00017 	ldw	r3,0(r2)
 20015bc:	180b883a 	mov	r5,r3
 20015c0:	0009883a 	mov	r4,zero
 20015c4:	20028280 	call	2002828 <__subsf3>
 20015c8:	1009883a 	mov	r4,r2
 20015cc:	2007883a 	mov	r3,r4
 20015d0:	e0bffe17 	ldw	r2,-8(fp)
 20015d4:	10c00015 	stw	r3,0(r2)
	}
	if(!border_collision[2] && collide_y)
 20015d8:	e0bffd17 	ldw	r2,-12(fp)
 20015dc:	10800204 	addi	r2,r2,8
 20015e0:	10800017 	ldw	r2,0(r2)
 20015e4:	10000d1e 	bne	r2,zero,200161c <borderCollide+0xf8>
 20015e8:	e0bffa17 	ldw	r2,-24(fp)
 20015ec:	10000b26 	beq	r2,zero,200161c <borderCollide+0xf8>
	{
		velocity[1] = 0 - velocity[1];
 20015f0:	e0bffe17 	ldw	r2,-8(fp)
 20015f4:	14000104 	addi	r16,r2,4
 20015f8:	e0bffe17 	ldw	r2,-8(fp)
 20015fc:	10800104 	addi	r2,r2,4
 2001600:	10c00017 	ldw	r3,0(r2)
 2001604:	180b883a 	mov	r5,r3
 2001608:	0009883a 	mov	r4,zero
 200160c:	20028280 	call	2002828 <__subsf3>
 2001610:	1007883a 	mov	r3,r2
 2001614:	1805883a 	mov	r2,r3
 2001618:	80800015 	stw	r2,0(r16)
	}

	border_collision[0] = border_collision[1];
 200161c:	e0bffd17 	ldw	r2,-12(fp)
 2001620:	10c00117 	ldw	r3,4(r2)
 2001624:	e0bffd17 	ldw	r2,-12(fp)
 2001628:	10c00015 	stw	r3,0(r2)
	border_collision[1] = collide_x;
 200162c:	e0bffd17 	ldw	r2,-12(fp)
 2001630:	10800104 	addi	r2,r2,4
 2001634:	e0fff917 	ldw	r3,-28(fp)
 2001638:	10c00015 	stw	r3,0(r2)
	border_collision[2] = border_collision[3];
 200163c:	e0bffd17 	ldw	r2,-12(fp)
 2001640:	10800204 	addi	r2,r2,8
 2001644:	e0fffd17 	ldw	r3,-12(fp)
 2001648:	18c00317 	ldw	r3,12(r3)
 200164c:	10c00015 	stw	r3,0(r2)
	border_collision[3] = collide_y;
 2001650:	e0bffd17 	ldw	r2,-12(fp)
 2001654:	10800304 	addi	r2,r2,12
 2001658:	e0fffa17 	ldw	r3,-24(fp)
 200165c:	10c00015 	stw	r3,0(r2)
}
 2001660:	0001883a 	nop
 2001664:	e6ffff04 	addi	sp,fp,-4
 2001668:	dfc00217 	ldw	ra,8(sp)
 200166c:	df000117 	ldw	fp,4(sp)
 2001670:	dc000017 	ldw	r16,0(sp)
 2001674:	dec00304 	addi	sp,sp,12
 2001678:	f800283a 	ret

0200167c <sqrtf>:
 200167c:	defff304 	addi	sp,sp,-52
 2001680:	dc400a15 	stw	r17,40(sp)
 2001684:	044080b4 	movhi	r17,514
 2001688:	dc800b15 	stw	r18,44(sp)
 200168c:	dc000915 	stw	r16,36(sp)
 2001690:	dfc00c15 	stw	ra,48(sp)
 2001694:	8c750604 	addi	r17,r17,-11240
 2001698:	2025883a 	mov	r18,r4
 200169c:	20017900 	call	2001790 <__ieee754_sqrtf>
 20016a0:	88c00017 	ldw	r3,0(r17)
 20016a4:	1021883a 	mov	r16,r2
 20016a8:	00bfffc4 	movi	r2,-1
 20016ac:	18800726 	beq	r3,r2,20016cc <sqrtf+0x50>
 20016b0:	9009883a 	mov	r4,r18
 20016b4:	20018ec0 	call	20018ec <__fpclassifyf>
 20016b8:	10000426 	beq	r2,zero,20016cc <sqrtf+0x50>
 20016bc:	000b883a 	mov	r5,zero
 20016c0:	9009883a 	mov	r4,r18
 20016c4:	20023300 	call	2002330 <__lesf2>
 20016c8:	10000716 	blt	r2,zero,20016e8 <sqrtf+0x6c>
 20016cc:	8005883a 	mov	r2,r16
 20016d0:	dfc00c17 	ldw	ra,48(sp)
 20016d4:	dc800b17 	ldw	r18,44(sp)
 20016d8:	dc400a17 	ldw	r17,40(sp)
 20016dc:	dc000917 	ldw	r16,36(sp)
 20016e0:	dec00d04 	addi	sp,sp,52
 20016e4:	f800283a 	ret
 20016e8:	00800044 	movi	r2,1
 20016ec:	d8800015 	stw	r2,0(sp)
 20016f0:	008080b4 	movhi	r2,514
 20016f4:	10ad4f04 	addi	r2,r2,-19140
 20016f8:	9009883a 	mov	r4,r18
 20016fc:	d8800115 	stw	r2,4(sp)
 2001700:	d8000815 	stw	zero,32(sp)
 2001704:	20041b80 	call	20041b8 <__extendsfdf2>
 2001708:	8c000017 	ldw	r16,0(r17)
 200170c:	d8800415 	stw	r2,16(sp)
 2001710:	d8c00515 	stw	r3,20(sp)
 2001714:	d8800215 	stw	r2,8(sp)
 2001718:	d8c00315 	stw	r3,12(sp)
 200171c:	80000b1e 	bne	r16,zero,200174c <sqrtf+0xd0>
 2001720:	d8000615 	stw	zero,24(sp)
 2001724:	d8000715 	stw	zero,28(sp)
 2001728:	d809883a 	mov	r4,sp
 200172c:	20018e40 	call	20018e4 <matherr>
 2001730:	10000f26 	beq	r2,zero,2001770 <sqrtf+0xf4>
 2001734:	d8800817 	ldw	r2,32(sp)
 2001738:	1000111e 	bne	r2,zero,2001780 <sqrtf+0x104>
 200173c:	d9000617 	ldw	r4,24(sp)
 2001740:	d9400717 	ldw	r5,28(sp)
 2001744:	20042c80 	call	20042c8 <__truncdfsf2>
 2001748:	003fe106 	br	20016d0 <sqrtf+0x54>
 200174c:	000d883a 	mov	r6,zero
 2001750:	000f883a 	mov	r7,zero
 2001754:	0009883a 	mov	r4,zero
 2001758:	000b883a 	mov	r5,zero
 200175c:	2002ea00 	call	2002ea0 <__divdf3>
 2001760:	d8800615 	stw	r2,24(sp)
 2001764:	d8c00715 	stw	r3,28(sp)
 2001768:	00800084 	movi	r2,2
 200176c:	80bfee1e 	bne	r16,r2,2001728 <sqrtf+0xac>
 2001770:	20046880 	call	2004688 <__errno>
 2001774:	00c00844 	movi	r3,33
 2001778:	10c00015 	stw	r3,0(r2)
 200177c:	003fed06 	br	2001734 <sqrtf+0xb8>
 2001780:	20046880 	call	2004688 <__errno>
 2001784:	d8c00817 	ldw	r3,32(sp)
 2001788:	10c00015 	stw	r3,0(r2)
 200178c:	003feb06 	br	200173c <sqrtf+0xc0>

02001790 <__ieee754_sqrtf>:
 2001790:	00a00034 	movhi	r2,32768
 2001794:	defffe04 	addi	sp,sp,-8
 2001798:	10bfffc4 	addi	r2,r2,-1
 200179c:	00dfe034 	movhi	r3,32640
 20017a0:	dc000015 	stw	r16,0(sp)
 20017a4:	dfc00115 	stw	ra,4(sp)
 20017a8:	1104703a 	and	r2,r2,r4
 20017ac:	18ffffc4 	addi	r3,r3,-1
 20017b0:	2021883a 	mov	r16,r4
 20017b4:	200b883a 	mov	r5,r4
 20017b8:	18803836 	bltu	r3,r2,200189c <__ieee754_sqrtf+0x10c>
 20017bc:	10003226 	beq	r2,zero,2001888 <__ieee754_sqrtf+0xf8>
 20017c0:	2007883a 	mov	r3,r4
 20017c4:	20003f16 	blt	r4,zero,20018c4 <__ieee754_sqrtf+0x134>
 20017c8:	200bd5fa 	srai	r5,r4,23
 20017cc:	01002034 	movhi	r4,128
 20017d0:	213fffc4 	addi	r4,r4,-1
 20017d4:	20800a36 	bltu	r4,r2,2001800 <__ieee754_sqrtf+0x70>
 20017d8:	8400202c 	andhi	r16,r16,128
 20017dc:	80003f1e 	bne	r16,zero,20018dc <__ieee754_sqrtf+0x14c>
 20017e0:	0005883a 	mov	r2,zero
 20017e4:	00000106 	br	20017ec <__ieee754_sqrtf+0x5c>
 20017e8:	3005883a 	mov	r2,r6
 20017ec:	18c7883a 	add	r3,r3,r3
 20017f0:	1900202c 	andhi	r4,r3,128
 20017f4:	11800044 	addi	r6,r2,1
 20017f8:	203ffb26 	beq	r4,zero,20017e8 <__ieee754_sqrtf+0x58>
 20017fc:	288bc83a 	sub	r5,r5,r2
 2001800:	00802034 	movhi	r2,128
 2001804:	293fe044 	addi	r4,r5,-127
 2001808:	10bfffc4 	addi	r2,r2,-1
 200180c:	1884703a 	and	r2,r3,r2
 2001810:	2140004c 	andi	r5,r4,1
 2001814:	10802034 	orhi	r2,r2,128
 2001818:	2800281e 	bne	r5,zero,20018bc <__ieee754_sqrtf+0x12c>
 200181c:	2021d07a 	srai	r16,r4,1
 2001820:	1085883a 	add	r2,r2,r2
 2001824:	01000644 	movi	r4,25
 2001828:	000f883a 	mov	r7,zero
 200182c:	000d883a 	mov	r6,zero
 2001830:	00c04034 	movhi	r3,256
 2001834:	30cb883a 	add	r5,r6,r3
 2001838:	213fffc4 	addi	r4,r4,-1
 200183c:	11400316 	blt	r2,r5,200184c <__ieee754_sqrtf+0xbc>
 2001840:	28cd883a 	add	r6,r5,r3
 2001844:	1145c83a 	sub	r2,r2,r5
 2001848:	38cf883a 	add	r7,r7,r3
 200184c:	1085883a 	add	r2,r2,r2
 2001850:	1806d07a 	srli	r3,r3,1
 2001854:	203ff71e 	bne	r4,zero,2001834 <__ieee754_sqrtf+0xa4>
 2001858:	10000226 	beq	r2,zero,2001864 <__ieee754_sqrtf+0xd4>
 200185c:	3880004c 	andi	r2,r7,1
 2001860:	388f883a 	add	r7,r7,r2
 2001864:	380fd07a 	srai	r7,r7,1
 2001868:	802095fa 	slli	r16,r16,23
 200186c:	008fc034 	movhi	r2,16128
 2001870:	388f883a 	add	r7,r7,r2
 2001874:	81c5883a 	add	r2,r16,r7
 2001878:	dfc00117 	ldw	ra,4(sp)
 200187c:	dc000017 	ldw	r16,0(sp)
 2001880:	dec00204 	addi	sp,sp,8
 2001884:	f800283a 	ret
 2001888:	2005883a 	mov	r2,r4
 200188c:	dfc00117 	ldw	ra,4(sp)
 2001890:	dc000017 	ldw	r16,0(sp)
 2001894:	dec00204 	addi	sp,sp,8
 2001898:	f800283a 	ret
 200189c:	20023f80 	call	20023f8 <__mulsf3>
 20018a0:	800b883a 	mov	r5,r16
 20018a4:	1009883a 	mov	r4,r2
 20018a8:	200196c0 	call	200196c <__addsf3>
 20018ac:	dfc00117 	ldw	ra,4(sp)
 20018b0:	dc000017 	ldw	r16,0(sp)
 20018b4:	dec00204 	addi	sp,sp,8
 20018b8:	f800283a 	ret
 20018bc:	1085883a 	add	r2,r2,r2
 20018c0:	003fd606 	br	200181c <__ieee754_sqrtf+0x8c>
 20018c4:	200b883a 	mov	r5,r4
 20018c8:	20028280 	call	2002828 <__subsf3>
 20018cc:	100b883a 	mov	r5,r2
 20018d0:	1009883a 	mov	r4,r2
 20018d4:	2001e340 	call	2001e34 <__divsf3>
 20018d8:	003fec06 	br	200188c <__ieee754_sqrtf+0xfc>
 20018dc:	00bfffc4 	movi	r2,-1
 20018e0:	003fc606 	br	20017fc <__ieee754_sqrtf+0x6c>

020018e4 <matherr>:
 20018e4:	0005883a 	mov	r2,zero
 20018e8:	f800283a 	ret

020018ec <__fpclassifyf>:
 20018ec:	00a00034 	movhi	r2,32768
 20018f0:	10bfffc4 	addi	r2,r2,-1
 20018f4:	2088703a 	and	r4,r4,r2
 20018f8:	2000021e 	bne	r4,zero,2001904 <__fpclassifyf+0x18>
 20018fc:	00800084 	movi	r2,2
 2001900:	f800283a 	ret
 2001904:	00bfe034 	movhi	r2,65408
 2001908:	00dfc034 	movhi	r3,32512
 200190c:	2085883a 	add	r2,r4,r2
 2001910:	18ffffc4 	addi	r3,r3,-1
 2001914:	18800236 	bltu	r3,r2,2001920 <__fpclassifyf+0x34>
 2001918:	00800104 	movi	r2,4
 200191c:	f800283a 	ret
 2001920:	00c02034 	movhi	r3,128
 2001924:	20bfffc4 	addi	r2,r4,-1
 2001928:	18ffff84 	addi	r3,r3,-2
 200192c:	18800236 	bltu	r3,r2,2001938 <__fpclassifyf+0x4c>
 2001930:	008000c4 	movi	r2,3
 2001934:	f800283a 	ret
 2001938:	009fe034 	movhi	r2,32640
 200193c:	2085003a 	cmpeq	r2,r4,r2
 2001940:	f800283a 	ret

02001944 <__mulsi3>:
 2001944:	0005883a 	mov	r2,zero
 2001948:	20000726 	beq	r4,zero,2001968 <__mulsi3+0x24>
 200194c:	20c0004c 	andi	r3,r4,1
 2001950:	2008d07a 	srli	r4,r4,1
 2001954:	18000126 	beq	r3,zero,200195c <__mulsi3+0x18>
 2001958:	1145883a 	add	r2,r2,r5
 200195c:	294b883a 	add	r5,r5,r5
 2001960:	203ffa1e 	bne	r4,zero,200194c <__mulsi3+0x8>
 2001964:	f800283a 	ret
 2001968:	f800283a 	ret

0200196c <__addsf3>:
 200196c:	defffc04 	addi	sp,sp,-16
 2001970:	2004d7fa 	srli	r2,r4,31
 2001974:	280cd5fa 	srli	r6,r5,23
 2001978:	dc000015 	stw	r16,0(sp)
 200197c:	00c02034 	movhi	r3,128
 2001980:	2020d5fa 	srli	r16,r4,23
 2001984:	280ed7fa 	srli	r7,r5,31
 2001988:	18ffffc4 	addi	r3,r3,-1
 200198c:	dc400115 	stw	r17,4(sp)
 2001990:	1908703a 	and	r4,r3,r4
 2001994:	194a703a 	and	r5,r3,r5
 2001998:	dfc00315 	stw	ra,12(sp)
 200199c:	dc800215 	stw	r18,8(sp)
 20019a0:	14403fcc 	andi	r17,r2,255
 20019a4:	84003fcc 	andi	r16,r16,255
 20019a8:	200890fa 	slli	r4,r4,3
 20019ac:	31803fcc 	andi	r6,r6,255
 20019b0:	280a90fa 	slli	r5,r5,3
 20019b4:	89c05026 	beq	r17,r7,2001af8 <__addsf3+0x18c>
 20019b8:	8185c83a 	sub	r2,r16,r6
 20019bc:	00807a0e 	bge	zero,r2,2001ba8 <__addsf3+0x23c>
 20019c0:	30001e1e 	bne	r6,zero,2001a3c <__addsf3+0xd0>
 20019c4:	28006d1e 	bne	r5,zero,2001b7c <__addsf3+0x210>
 20019c8:	208001cc 	andi	r2,r4,7
 20019cc:	10000426 	beq	r2,zero,20019e0 <__addsf3+0x74>
 20019d0:	208003cc 	andi	r2,r4,15
 20019d4:	00c00104 	movi	r3,4
 20019d8:	10c00126 	beq	r2,r3,20019e0 <__addsf3+0x74>
 20019dc:	20c9883a 	add	r4,r4,r3
 20019e0:	2081002c 	andhi	r2,r4,1024
 20019e4:	10003926 	beq	r2,zero,2001acc <__addsf3+0x160>
 20019e8:	84000044 	addi	r16,r16,1
 20019ec:	00803fc4 	movi	r2,255
 20019f0:	80807826 	beq	r16,r2,2001bd4 <__addsf3+0x268>
 20019f4:	200891ba 	slli	r4,r4,6
 20019f8:	8805883a 	mov	r2,r17
 20019fc:	2008d27a 	srli	r4,r4,9
 2001a00:	84003fcc 	andi	r16,r16,255
 2001a04:	800695fa 	slli	r3,r16,23
 2001a08:	10803fcc 	andi	r2,r2,255
 2001a0c:	04002034 	movhi	r16,128
 2001a10:	843fffc4 	addi	r16,r16,-1
 2001a14:	100497fa 	slli	r2,r2,31
 2001a18:	2408703a 	and	r4,r4,r16
 2001a1c:	20e0b03a 	or	r16,r4,r3
 2001a20:	8084b03a 	or	r2,r16,r2
 2001a24:	dfc00317 	ldw	ra,12(sp)
 2001a28:	dc800217 	ldw	r18,8(sp)
 2001a2c:	dc400117 	ldw	r17,4(sp)
 2001a30:	dc000017 	ldw	r16,0(sp)
 2001a34:	dec00404 	addi	sp,sp,16
 2001a38:	f800283a 	ret
 2001a3c:	00c03fc4 	movi	r3,255
 2001a40:	80ffe126 	beq	r16,r3,20019c8 <__addsf3+0x5c>
 2001a44:	29410034 	orhi	r5,r5,1024
 2001a48:	00c006c4 	movi	r3,27
 2001a4c:	18807516 	blt	r3,r2,2001c24 <__addsf3+0x2b8>
 2001a50:	00c00804 	movi	r3,32
 2001a54:	1887c83a 	sub	r3,r3,r2
 2001a58:	28c6983a 	sll	r3,r5,r3
 2001a5c:	288ad83a 	srl	r5,r5,r2
 2001a60:	1804c03a 	cmpne	r2,r3,zero
 2001a64:	288ab03a 	or	r5,r5,r2
 2001a68:	2149c83a 	sub	r4,r4,r5
 2001a6c:	2081002c 	andhi	r2,r4,1024
 2001a70:	10001426 	beq	r2,zero,2001ac4 <__addsf3+0x158>
 2001a74:	04810034 	movhi	r18,1024
 2001a78:	94bfffc4 	addi	r18,r18,-1
 2001a7c:	24a4703a 	and	r18,r4,r18
 2001a80:	9009883a 	mov	r4,r18
 2001a84:	20044700 	call	2004470 <__clzsi2>
 2001a88:	10bffec4 	addi	r2,r2,-5
 2001a8c:	90a4983a 	sll	r18,r18,r2
 2001a90:	14005416 	blt	r2,r16,2001be4 <__addsf3+0x278>
 2001a94:	1405c83a 	sub	r2,r2,r16
 2001a98:	11000044 	addi	r4,r2,1
 2001a9c:	00800804 	movi	r2,32
 2001aa0:	1105c83a 	sub	r2,r2,r4
 2001aa4:	9084983a 	sll	r2,r18,r2
 2001aa8:	9124d83a 	srl	r18,r18,r4
 2001aac:	0021883a 	mov	r16,zero
 2001ab0:	1008c03a 	cmpne	r4,r2,zero
 2001ab4:	9108b03a 	or	r4,r18,r4
 2001ab8:	003fc306 	br	20019c8 <__addsf3+0x5c>
 2001abc:	1000db26 	beq	r2,zero,2001e2c <__addsf3+0x4c0>
 2001ac0:	1009883a 	mov	r4,r2
 2001ac4:	208001cc 	andi	r2,r4,7
 2001ac8:	103fc11e 	bne	r2,zero,20019d0 <__addsf3+0x64>
 2001acc:	2006d0fa 	srli	r3,r4,3
 2001ad0:	01003fc4 	movi	r4,255
 2001ad4:	8805883a 	mov	r2,r17
 2001ad8:	8100241e 	bne	r16,r4,2001b6c <__addsf3+0x200>
 2001adc:	18006e26 	beq	r3,zero,2001c98 <__addsf3+0x32c>
 2001ae0:	19001034 	orhi	r4,r3,64
 2001ae4:	00c02034 	movhi	r3,128
 2001ae8:	18ffffc4 	addi	r3,r3,-1
 2001aec:	043fffc4 	movi	r16,-1
 2001af0:	20c8703a 	and	r4,r4,r3
 2001af4:	003fc206 	br	2001a00 <__addsf3+0x94>
 2001af8:	8187c83a 	sub	r3,r16,r6
 2001afc:	00c03e0e 	bge	zero,r3,2001bf8 <__addsf3+0x28c>
 2001b00:	30002326 	beq	r6,zero,2001b90 <__addsf3+0x224>
 2001b04:	01803fc4 	movi	r6,255
 2001b08:	81bfaf26 	beq	r16,r6,20019c8 <__addsf3+0x5c>
 2001b0c:	29410034 	orhi	r5,r5,1024
 2001b10:	018006c4 	movi	r6,27
 2001b14:	30c07416 	blt	r6,r3,2001ce8 <__addsf3+0x37c>
 2001b18:	01800804 	movi	r6,32
 2001b1c:	30cdc83a 	sub	r6,r6,r3
 2001b20:	298c983a 	sll	r6,r5,r6
 2001b24:	28cad83a 	srl	r5,r5,r3
 2001b28:	3006c03a 	cmpne	r3,r6,zero
 2001b2c:	28cab03a 	or	r5,r5,r3
 2001b30:	2149883a 	add	r4,r4,r5
 2001b34:	20c1002c 	andhi	r3,r4,1024
 2001b38:	183fe226 	beq	r3,zero,2001ac4 <__addsf3+0x158>
 2001b3c:	84000044 	addi	r16,r16,1
 2001b40:	00c03fc4 	movi	r3,255
 2001b44:	80c05426 	beq	r16,r3,2001c98 <__addsf3+0x32c>
 2001b48:	00bf0034 	movhi	r2,64512
 2001b4c:	10bfffc4 	addi	r2,r2,-1
 2001b50:	20c0004c 	andi	r3,r4,1
 2001b54:	2088703a 	and	r4,r4,r2
 2001b58:	2008d07a 	srli	r4,r4,1
 2001b5c:	20c8b03a 	or	r4,r4,r3
 2001b60:	003f9906 	br	20019c8 <__addsf3+0x5c>
 2001b64:	0007883a 	mov	r3,zero
 2001b68:	0005883a 	mov	r2,zero
 2001b6c:	01002034 	movhi	r4,128
 2001b70:	213fffc4 	addi	r4,r4,-1
 2001b74:	1908703a 	and	r4,r3,r4
 2001b78:	003fa106 	br	2001a00 <__addsf3+0x94>
 2001b7c:	10bfffc4 	addi	r2,r2,-1
 2001b80:	103fb926 	beq	r2,zero,2001a68 <__addsf3+0xfc>
 2001b84:	00c03fc4 	movi	r3,255
 2001b88:	80ffaf1e 	bne	r16,r3,2001a48 <__addsf3+0xdc>
 2001b8c:	003f8e06 	br	20019c8 <__addsf3+0x5c>
 2001b90:	283f8d26 	beq	r5,zero,20019c8 <__addsf3+0x5c>
 2001b94:	18ffffc4 	addi	r3,r3,-1
 2001b98:	183fe526 	beq	r3,zero,2001b30 <__addsf3+0x1c4>
 2001b9c:	01803fc4 	movi	r6,255
 2001ba0:	81bfdb1e 	bne	r16,r6,2001b10 <__addsf3+0x1a4>
 2001ba4:	003f8806 	br	20019c8 <__addsf3+0x5c>
 2001ba8:	1000201e 	bne	r2,zero,2001c2c <__addsf3+0x2c0>
 2001bac:	80800044 	addi	r2,r16,1
 2001bb0:	10803fcc 	andi	r2,r2,255
 2001bb4:	01800044 	movi	r6,1
 2001bb8:	3080450e 	bge	r6,r2,2001cd0 <__addsf3+0x364>
 2001bbc:	2165c83a 	sub	r18,r4,r5
 2001bc0:	90c1002c 	andhi	r3,r18,1024
 2001bc4:	18002b26 	beq	r3,zero,2001c74 <__addsf3+0x308>
 2001bc8:	2925c83a 	sub	r18,r5,r4
 2001bcc:	3823883a 	mov	r17,r7
 2001bd0:	003fab06 	br	2001a80 <__addsf3+0x114>
 2001bd4:	8805883a 	mov	r2,r17
 2001bd8:	043fffc4 	movi	r16,-1
 2001bdc:	0009883a 	mov	r4,zero
 2001be0:	003f8706 	br	2001a00 <__addsf3+0x94>
 2001be4:	013f0034 	movhi	r4,64512
 2001be8:	213fffc4 	addi	r4,r4,-1
 2001bec:	80a1c83a 	sub	r16,r16,r2
 2001bf0:	9108703a 	and	r4,r18,r4
 2001bf4:	003f7406 	br	20019c8 <__addsf3+0x5c>
 2001bf8:	1800411e 	bne	r3,zero,2001d00 <__addsf3+0x394>
 2001bfc:	80c00044 	addi	r3,r16,1
 2001c00:	19c03fcc 	andi	r7,r3,255
 2001c04:	01800044 	movi	r6,1
 2001c08:	31c0260e 	bge	r6,r7,2001ca4 <__addsf3+0x338>
 2001c0c:	01803fc4 	movi	r6,255
 2001c10:	19802126 	beq	r3,r6,2001c98 <__addsf3+0x32c>
 2001c14:	2149883a 	add	r4,r4,r5
 2001c18:	2008d07a 	srli	r4,r4,1
 2001c1c:	1821883a 	mov	r16,r3
 2001c20:	003f6906 	br	20019c8 <__addsf3+0x5c>
 2001c24:	01400044 	movi	r5,1
 2001c28:	003f8f06 	br	2001a68 <__addsf3+0xfc>
 2001c2c:	8000151e 	bne	r16,zero,2001c84 <__addsf3+0x318>
 2001c30:	20002f26 	beq	r4,zero,2001cf0 <__addsf3+0x384>
 2001c34:	0084303a 	nor	r2,zero,r2
 2001c38:	10000a26 	beq	r2,zero,2001c64 <__addsf3+0x2f8>
 2001c3c:	00c03fc4 	movi	r3,255
 2001c40:	30c02b26 	beq	r6,r3,2001cf0 <__addsf3+0x384>
 2001c44:	00c006c4 	movi	r3,27
 2001c48:	18806d16 	blt	r3,r2,2001e00 <__addsf3+0x494>
 2001c4c:	00c00804 	movi	r3,32
 2001c50:	1887c83a 	sub	r3,r3,r2
 2001c54:	20c6983a 	sll	r3,r4,r3
 2001c58:	2084d83a 	srl	r2,r4,r2
 2001c5c:	1808c03a 	cmpne	r4,r3,zero
 2001c60:	1108b03a 	or	r4,r2,r4
 2001c64:	2909c83a 	sub	r4,r5,r4
 2001c68:	3021883a 	mov	r16,r6
 2001c6c:	3823883a 	mov	r17,r7
 2001c70:	003f7e06 	br	2001a6c <__addsf3+0x100>
 2001c74:	903f821e 	bne	r18,zero,2001a80 <__addsf3+0x114>
 2001c78:	0005883a 	mov	r2,zero
 2001c7c:	0021883a 	mov	r16,zero
 2001c80:	003fba06 	br	2001b6c <__addsf3+0x200>
 2001c84:	00c03fc4 	movi	r3,255
 2001c88:	30c01926 	beq	r6,r3,2001cf0 <__addsf3+0x384>
 2001c8c:	0085c83a 	sub	r2,zero,r2
 2001c90:	21010034 	orhi	r4,r4,1024
 2001c94:	003feb06 	br	2001c44 <__addsf3+0x2d8>
 2001c98:	043fffc4 	movi	r16,-1
 2001c9c:	0009883a 	mov	r4,zero
 2001ca0:	003f5706 	br	2001a00 <__addsf3+0x94>
 2001ca4:	80004a1e 	bne	r16,zero,2001dd0 <__addsf3+0x464>
 2001ca8:	20005926 	beq	r4,zero,2001e10 <__addsf3+0x4a4>
 2001cac:	283f4626 	beq	r5,zero,20019c8 <__addsf3+0x5c>
 2001cb0:	2149883a 	add	r4,r4,r5
 2001cb4:	2081002c 	andhi	r2,r4,1024
 2001cb8:	103f8226 	beq	r2,zero,2001ac4 <__addsf3+0x158>
 2001cbc:	00bf0034 	movhi	r2,64512
 2001cc0:	10bfffc4 	addi	r2,r2,-1
 2001cc4:	3021883a 	mov	r16,r6
 2001cc8:	2088703a 	and	r4,r4,r2
 2001ccc:	003f3e06 	br	20019c8 <__addsf3+0x5c>
 2001cd0:	8000121e 	bne	r16,zero,2001d1c <__addsf3+0x3b0>
 2001cd4:	2000261e 	bne	r4,zero,2001d70 <__addsf3+0x404>
 2001cd8:	283fa226 	beq	r5,zero,2001b64 <__addsf3+0x1f8>
 2001cdc:	2809883a 	mov	r4,r5
 2001ce0:	3823883a 	mov	r17,r7
 2001ce4:	003f3806 	br	20019c8 <__addsf3+0x5c>
 2001ce8:	01400044 	movi	r5,1
 2001cec:	003f9006 	br	2001b30 <__addsf3+0x1c4>
 2001cf0:	2809883a 	mov	r4,r5
 2001cf4:	3021883a 	mov	r16,r6
 2001cf8:	3823883a 	mov	r17,r7
 2001cfc:	003f3206 	br	20019c8 <__addsf3+0x5c>
 2001d00:	80000c1e 	bne	r16,zero,2001d34 <__addsf3+0x3c8>
 2001d04:	20002f26 	beq	r4,zero,2001dc4 <__addsf3+0x458>
 2001d08:	00c6303a 	nor	r3,zero,r3
 2001d0c:	18002b1e 	bne	r3,zero,2001dbc <__addsf3+0x450>
 2001d10:	2149883a 	add	r4,r4,r5
 2001d14:	3021883a 	mov	r16,r6
 2001d18:	003f8606 	br	2001b34 <__addsf3+0x1c8>
 2001d1c:	20001b1e 	bne	r4,zero,2001d8c <__addsf3+0x420>
 2001d20:	28003926 	beq	r5,zero,2001e08 <__addsf3+0x49c>
 2001d24:	2809883a 	mov	r4,r5
 2001d28:	3823883a 	mov	r17,r7
 2001d2c:	04003fc4 	movi	r16,255
 2001d30:	003f2506 	br	20019c8 <__addsf3+0x5c>
 2001d34:	01c03fc4 	movi	r7,255
 2001d38:	31c02226 	beq	r6,r7,2001dc4 <__addsf3+0x458>
 2001d3c:	00c7c83a 	sub	r3,zero,r3
 2001d40:	21010034 	orhi	r4,r4,1024
 2001d44:	01c006c4 	movi	r7,27
 2001d48:	38c03616 	blt	r7,r3,2001e24 <__addsf3+0x4b8>
 2001d4c:	01c00804 	movi	r7,32
 2001d50:	38cfc83a 	sub	r7,r7,r3
 2001d54:	21ce983a 	sll	r7,r4,r7
 2001d58:	20c6d83a 	srl	r3,r4,r3
 2001d5c:	3808c03a 	cmpne	r4,r7,zero
 2001d60:	1906b03a 	or	r3,r3,r4
 2001d64:	1949883a 	add	r4,r3,r5
 2001d68:	3021883a 	mov	r16,r6
 2001d6c:	003f7106 	br	2001b34 <__addsf3+0x1c8>
 2001d70:	283f1526 	beq	r5,zero,20019c8 <__addsf3+0x5c>
 2001d74:	2145c83a 	sub	r2,r4,r5
 2001d78:	10c1002c 	andhi	r3,r2,1024
 2001d7c:	183f4f26 	beq	r3,zero,2001abc <__addsf3+0x150>
 2001d80:	2909c83a 	sub	r4,r5,r4
 2001d84:	3823883a 	mov	r17,r7
 2001d88:	003f0f06 	br	20019c8 <__addsf3+0x5c>
 2001d8c:	28001a26 	beq	r5,zero,2001df8 <__addsf3+0x48c>
 2001d90:	2008d0fa 	srli	r4,r4,3
 2001d94:	2080102c 	andhi	r2,r4,64
 2001d98:	10000526 	beq	r2,zero,2001db0 <__addsf3+0x444>
 2001d9c:	280ad0fa 	srli	r5,r5,3
 2001da0:	2880102c 	andhi	r2,r5,64
 2001da4:	1000021e 	bne	r2,zero,2001db0 <__addsf3+0x444>
 2001da8:	2809883a 	mov	r4,r5
 2001dac:	3823883a 	mov	r17,r7
 2001db0:	200890fa 	slli	r4,r4,3
 2001db4:	04003fc4 	movi	r16,255
 2001db8:	003f0306 	br	20019c8 <__addsf3+0x5c>
 2001dbc:	01c03fc4 	movi	r7,255
 2001dc0:	31ffe01e 	bne	r6,r7,2001d44 <__addsf3+0x3d8>
 2001dc4:	2809883a 	mov	r4,r5
 2001dc8:	3021883a 	mov	r16,r6
 2001dcc:	003efe06 	br	20019c8 <__addsf3+0x5c>
 2001dd0:	20001126 	beq	r4,zero,2001e18 <__addsf3+0x4ac>
 2001dd4:	28000826 	beq	r5,zero,2001df8 <__addsf3+0x48c>
 2001dd8:	2008d0fa 	srli	r4,r4,3
 2001ddc:	2080102c 	andhi	r2,r4,64
 2001de0:	103ff326 	beq	r2,zero,2001db0 <__addsf3+0x444>
 2001de4:	280ad0fa 	srli	r5,r5,3
 2001de8:	2880102c 	andhi	r2,r5,64
 2001dec:	103ff01e 	bne	r2,zero,2001db0 <__addsf3+0x444>
 2001df0:	2809883a 	mov	r4,r5
 2001df4:	003fee06 	br	2001db0 <__addsf3+0x444>
 2001df8:	04003fc4 	movi	r16,255
 2001dfc:	003ef206 	br	20019c8 <__addsf3+0x5c>
 2001e00:	01000044 	movi	r4,1
 2001e04:	003f9706 	br	2001c64 <__addsf3+0x2f8>
 2001e08:	0005883a 	mov	r2,zero
 2001e0c:	003f3406 	br	2001ae0 <__addsf3+0x174>
 2001e10:	2809883a 	mov	r4,r5
 2001e14:	003eec06 	br	20019c8 <__addsf3+0x5c>
 2001e18:	2809883a 	mov	r4,r5
 2001e1c:	04003fc4 	movi	r16,255
 2001e20:	003ee906 	br	20019c8 <__addsf3+0x5c>
 2001e24:	00c00044 	movi	r3,1
 2001e28:	003fce06 	br	2001d64 <__addsf3+0x3f8>
 2001e2c:	0005883a 	mov	r2,zero
 2001e30:	003f4e06 	br	2001b6c <__addsf3+0x200>

02001e34 <__divsf3>:
 2001e34:	defff504 	addi	sp,sp,-44
 2001e38:	200cd5fa 	srli	r6,r4,23
 2001e3c:	dcc00415 	stw	r19,16(sp)
 2001e40:	2026d7fa 	srli	r19,r4,31
 2001e44:	00c02034 	movhi	r3,128
 2001e48:	dd800715 	stw	r22,28(sp)
 2001e4c:	dd000515 	stw	r20,20(sp)
 2001e50:	dc800315 	stw	r18,12(sp)
 2001e54:	18ffffc4 	addi	r3,r3,-1
 2001e58:	dfc00a15 	stw	ra,40(sp)
 2001e5c:	df000915 	stw	fp,36(sp)
 2001e60:	ddc00815 	stw	r23,32(sp)
 2001e64:	dd400615 	stw	r21,24(sp)
 2001e68:	dc400215 	stw	r17,8(sp)
 2001e6c:	dc000115 	stw	r16,4(sp)
 2001e70:	35003fcc 	andi	r20,r6,255
 2001e74:	1924703a 	and	r18,r3,r4
 2001e78:	9d803fcc 	andi	r22,r19,255
 2001e7c:	a0005226 	beq	r20,zero,2001fc8 <__divsf3+0x194>
 2001e80:	00803fc4 	movi	r2,255
 2001e84:	a0802e26 	beq	r20,r2,2001f40 <__divsf3+0x10c>
 2001e88:	91002034 	orhi	r4,r18,128
 2001e8c:	202490fa 	slli	r18,r4,3
 2001e90:	a53fe044 	addi	r20,r20,-127
 2001e94:	0021883a 	mov	r16,zero
 2001e98:	002f883a 	mov	r23,zero
 2001e9c:	280cd5fa 	srli	r6,r5,23
 2001ea0:	282ad7fa 	srli	r21,r5,31
 2001ea4:	00c02034 	movhi	r3,128
 2001ea8:	18ffffc4 	addi	r3,r3,-1
 2001eac:	31803fcc 	andi	r6,r6,255
 2001eb0:	1962703a 	and	r17,r3,r5
 2001eb4:	af003fcc 	andi	fp,r21,255
 2001eb8:	30004a26 	beq	r6,zero,2001fe4 <__divsf3+0x1b0>
 2001ebc:	00803fc4 	movi	r2,255
 2001ec0:	30804526 	beq	r6,r2,2001fd8 <__divsf3+0x1a4>
 2001ec4:	89402034 	orhi	r5,r17,128
 2001ec8:	282290fa 	slli	r17,r5,3
 2001ecc:	31bfe044 	addi	r6,r6,-127
 2001ed0:	000b883a 	mov	r5,zero
 2001ed4:	2c20b03a 	or	r16,r5,r16
 2001ed8:	802090ba 	slli	r16,r16,2
 2001edc:	00808034 	movhi	r2,512
 2001ee0:	1087c004 	addi	r2,r2,7936
 2001ee4:	80a1883a 	add	r16,r16,r2
 2001ee8:	81000017 	ldw	r4,0(r16)
 2001eec:	9d46f03a 	xor	r3,r19,r21
 2001ef0:	180f883a 	mov	r7,r3
 2001ef4:	18803fcc 	andi	r2,r3,255
 2001ef8:	a18dc83a 	sub	r6,r20,r6
 2001efc:	2000683a 	jmp	r4
 2001f00:	020020e4 	muli	r8,zero,131
 2001f04:	02001f68 	cmpgeui	r8,zero,125
 2001f08:	020020d8 	cmpnei	r8,zero,131
 2001f0c:	02001f54 	movui	r8,125
 2001f10:	020020d8 	cmpnei	r8,zero,131
 2001f14:	020020b0 	cmpltui	r8,zero,130
 2001f18:	020020d8 	cmpnei	r8,zero,131
 2001f1c:	02001f54 	movui	r8,125
 2001f20:	02001f68 	cmpgeui	r8,zero,125
 2001f24:	02001f68 	cmpgeui	r8,zero,125
 2001f28:	020020b0 	cmpltui	r8,zero,130
 2001f2c:	02001f54 	movui	r8,125
 2001f30:	020021c4 	movi	r8,135
 2001f34:	020021c4 	movi	r8,135
 2001f38:	020021c4 	movi	r8,135
 2001f3c:	02002178 	rdprs	r8,zero,133
 2001f40:	9000581e 	bne	r18,zero,20020a4 <__divsf3+0x270>
 2001f44:	04000204 	movi	r16,8
 2001f48:	05c00084 	movi	r23,2
 2001f4c:	003fd306 	br	2001e9c <__divsf3+0x68>
 2001f50:	0023883a 	mov	r17,zero
 2001f54:	e02d883a 	mov	r22,fp
 2001f58:	282f883a 	mov	r23,r5
 2001f5c:	00800084 	movi	r2,2
 2001f60:	b8808f1e 	bne	r23,r2,20021a0 <__divsf3+0x36c>
 2001f64:	b005883a 	mov	r2,r22
 2001f68:	11c0004c 	andi	r7,r2,1
 2001f6c:	013fffc4 	movi	r4,-1
 2001f70:	000d883a 	mov	r6,zero
 2001f74:	21003fcc 	andi	r4,r4,255
 2001f78:	200895fa 	slli	r4,r4,23
 2001f7c:	38803fcc 	andi	r2,r7,255
 2001f80:	00c02034 	movhi	r3,128
 2001f84:	100497fa 	slli	r2,r2,31
 2001f88:	18ffffc4 	addi	r3,r3,-1
 2001f8c:	30c6703a 	and	r3,r6,r3
 2001f90:	1906b03a 	or	r3,r3,r4
 2001f94:	1884b03a 	or	r2,r3,r2
 2001f98:	dfc00a17 	ldw	ra,40(sp)
 2001f9c:	df000917 	ldw	fp,36(sp)
 2001fa0:	ddc00817 	ldw	r23,32(sp)
 2001fa4:	dd800717 	ldw	r22,28(sp)
 2001fa8:	dd400617 	ldw	r21,24(sp)
 2001fac:	dd000517 	ldw	r20,20(sp)
 2001fb0:	dcc00417 	ldw	r19,16(sp)
 2001fb4:	dc800317 	ldw	r18,12(sp)
 2001fb8:	dc400217 	ldw	r17,8(sp)
 2001fbc:	dc000117 	ldw	r16,4(sp)
 2001fc0:	dec00b04 	addi	sp,sp,44
 2001fc4:	f800283a 	ret
 2001fc8:	90002b1e 	bne	r18,zero,2002078 <__divsf3+0x244>
 2001fcc:	04000104 	movi	r16,4
 2001fd0:	05c00044 	movi	r23,1
 2001fd4:	003fb106 	br	2001e9c <__divsf3+0x68>
 2001fd8:	8800251e 	bne	r17,zero,2002070 <__divsf3+0x23c>
 2001fdc:	01400084 	movi	r5,2
 2001fe0:	00000206 	br	2001fec <__divsf3+0x1b8>
 2001fe4:	88001a1e 	bne	r17,zero,2002050 <__divsf3+0x21c>
 2001fe8:	01400044 	movi	r5,1
 2001fec:	8160b03a 	or	r16,r16,r5
 2001ff0:	802090ba 	slli	r16,r16,2
 2001ff4:	00c08034 	movhi	r3,512
 2001ff8:	18c80404 	addi	r3,r3,8208
 2001ffc:	80e1883a 	add	r16,r16,r3
 2002000:	80c00017 	ldw	r3,0(r16)
 2002004:	9d44f03a 	xor	r2,r19,r21
 2002008:	a18dc83a 	sub	r6,r20,r6
 200200c:	1800683a 	jmp	r3
 2002010:	02001f68 	cmpgeui	r8,zero,125
 2002014:	02001f68 	cmpgeui	r8,zero,125
 2002018:	020021b4 	movhi	r8,134
 200201c:	02001f50 	cmplti	r8,zero,125
 2002020:	020021b4 	movhi	r8,134
 2002024:	020020b0 	cmpltui	r8,zero,130
 2002028:	020021b4 	movhi	r8,134
 200202c:	02001f50 	cmplti	r8,zero,125
 2002030:	02001f68 	cmpgeui	r8,zero,125
 2002034:	02001f68 	cmpgeui	r8,zero,125
 2002038:	020020b0 	cmpltui	r8,zero,130
 200203c:	02001f50 	cmplti	r8,zero,125
 2002040:	020021c4 	movi	r8,135
 2002044:	020021c4 	movi	r8,135
 2002048:	020021c4 	movi	r8,135
 200204c:	020021dc 	xori	r8,zero,135
 2002050:	8809883a 	mov	r4,r17
 2002054:	20044700 	call	2004470 <__clzsi2>
 2002058:	10fffec4 	addi	r3,r2,-5
 200205c:	10801d84 	addi	r2,r2,118
 2002060:	88e2983a 	sll	r17,r17,r3
 2002064:	008dc83a 	sub	r6,zero,r2
 2002068:	000b883a 	mov	r5,zero
 200206c:	003f9906 	br	2001ed4 <__divsf3+0xa0>
 2002070:	014000c4 	movi	r5,3
 2002074:	003f9706 	br	2001ed4 <__divsf3+0xa0>
 2002078:	9009883a 	mov	r4,r18
 200207c:	d9400015 	stw	r5,0(sp)
 2002080:	20044700 	call	2004470 <__clzsi2>
 2002084:	10fffec4 	addi	r3,r2,-5
 2002088:	11801d84 	addi	r6,r2,118
 200208c:	90e4983a 	sll	r18,r18,r3
 2002090:	01a9c83a 	sub	r20,zero,r6
 2002094:	0021883a 	mov	r16,zero
 2002098:	002f883a 	mov	r23,zero
 200209c:	d9400017 	ldw	r5,0(sp)
 20020a0:	003f7e06 	br	2001e9c <__divsf3+0x68>
 20020a4:	04000304 	movi	r16,12
 20020a8:	05c000c4 	movi	r23,3
 20020ac:	003f7b06 	br	2001e9c <__divsf3+0x68>
 20020b0:	01802034 	movhi	r6,128
 20020b4:	000f883a 	mov	r7,zero
 20020b8:	31bfffc4 	addi	r6,r6,-1
 20020bc:	013fffc4 	movi	r4,-1
 20020c0:	003fac06 	br	2001f74 <__divsf3+0x140>
 20020c4:	01400044 	movi	r5,1
 20020c8:	2909c83a 	sub	r4,r5,r4
 20020cc:	00c006c4 	movi	r3,27
 20020d0:	19004b0e 	bge	r3,r4,2002200 <__divsf3+0x3cc>
 20020d4:	114e703a 	and	r7,r2,r5
 20020d8:	0009883a 	mov	r4,zero
 20020dc:	000d883a 	mov	r6,zero
 20020e0:	003fa406 	br	2001f74 <__divsf3+0x140>
 20020e4:	9006917a 	slli	r3,r18,5
 20020e8:	8822917a 	slli	r17,r17,5
 20020ec:	1c40372e 	bgeu	r3,r17,20021cc <__divsf3+0x398>
 20020f0:	31bfffc4 	addi	r6,r6,-1
 20020f4:	010006c4 	movi	r4,27
 20020f8:	000b883a 	mov	r5,zero
 20020fc:	180f883a 	mov	r7,r3
 2002100:	294b883a 	add	r5,r5,r5
 2002104:	18c7883a 	add	r3,r3,r3
 2002108:	38000116 	blt	r7,zero,2002110 <__divsf3+0x2dc>
 200210c:	1c400236 	bltu	r3,r17,2002118 <__divsf3+0x2e4>
 2002110:	1c47c83a 	sub	r3,r3,r17
 2002114:	29400054 	ori	r5,r5,1
 2002118:	213fffc4 	addi	r4,r4,-1
 200211c:	203ff71e 	bne	r4,zero,20020fc <__divsf3+0x2c8>
 2002120:	1806c03a 	cmpne	r3,r3,zero
 2002124:	1962b03a 	or	r17,r3,r5
 2002128:	31001fc4 	addi	r4,r6,127
 200212c:	013fe50e 	bge	zero,r4,20020c4 <__divsf3+0x290>
 2002130:	88c001cc 	andi	r3,r17,7
 2002134:	18000426 	beq	r3,zero,2002148 <__divsf3+0x314>
 2002138:	88c003cc 	andi	r3,r17,15
 200213c:	01400104 	movi	r5,4
 2002140:	19400126 	beq	r3,r5,2002148 <__divsf3+0x314>
 2002144:	8963883a 	add	r17,r17,r5
 2002148:	88c2002c 	andhi	r3,r17,2048
 200214c:	18000426 	beq	r3,zero,2002160 <__divsf3+0x32c>
 2002150:	00fe0034 	movhi	r3,63488
 2002154:	18ffffc4 	addi	r3,r3,-1
 2002158:	31002004 	addi	r4,r6,128
 200215c:	88e2703a 	and	r17,r17,r3
 2002160:	00c03f84 	movi	r3,254
 2002164:	193f8016 	blt	r3,r4,2001f68 <__divsf3+0x134>
 2002168:	880c91ba 	slli	r6,r17,6
 200216c:	11c0004c 	andi	r7,r2,1
 2002170:	300cd27a 	srli	r6,r6,9
 2002174:	003f7f06 	br	2001f74 <__divsf3+0x140>
 2002178:	9080102c 	andhi	r2,r18,64
 200217c:	10000226 	beq	r2,zero,2002188 <__divsf3+0x354>
 2002180:	8880102c 	andhi	r2,r17,64
 2002184:	10001826 	beq	r2,zero,20021e8 <__divsf3+0x3b4>
 2002188:	00802034 	movhi	r2,128
 200218c:	91801034 	orhi	r6,r18,64
 2002190:	10bfffc4 	addi	r2,r2,-1
 2002194:	980f883a 	mov	r7,r19
 2002198:	308c703a 	and	r6,r6,r2
 200219c:	003fc706 	br	20020bc <__divsf3+0x288>
 20021a0:	008000c4 	movi	r2,3
 20021a4:	b8802d26 	beq	r23,r2,200225c <__divsf3+0x428>
 20021a8:	00c00044 	movi	r3,1
 20021ac:	b005883a 	mov	r2,r22
 20021b0:	b8ffdd1e 	bne	r23,r3,2002128 <__divsf3+0x2f4>
 20021b4:	11c0004c 	andi	r7,r2,1
 20021b8:	0009883a 	mov	r4,zero
 20021bc:	000d883a 	mov	r6,zero
 20021c0:	003f6c06 	br	2001f74 <__divsf3+0x140>
 20021c4:	9023883a 	mov	r17,r18
 20021c8:	003f6406 	br	2001f5c <__divsf3+0x128>
 20021cc:	1c47c83a 	sub	r3,r3,r17
 20021d0:	01000684 	movi	r4,26
 20021d4:	01400044 	movi	r5,1
 20021d8:	003fc806 	br	20020fc <__divsf3+0x2c8>
 20021dc:	9080102c 	andhi	r2,r18,64
 20021e0:	103fe926 	beq	r2,zero,2002188 <__divsf3+0x354>
 20021e4:	0023883a 	mov	r17,zero
 20021e8:	00802034 	movhi	r2,128
 20021ec:	89801034 	orhi	r6,r17,64
 20021f0:	10bfffc4 	addi	r2,r2,-1
 20021f4:	a80f883a 	mov	r7,r21
 20021f8:	308c703a 	and	r6,r6,r2
 20021fc:	003faf06 	br	20020bc <__divsf3+0x288>
 2002200:	01c00804 	movi	r7,32
 2002204:	390fc83a 	sub	r7,r7,r4
 2002208:	89ce983a 	sll	r7,r17,r7
 200220c:	890ad83a 	srl	r5,r17,r4
 2002210:	380ec03a 	cmpne	r7,r7,zero
 2002214:	29cab03a 	or	r5,r5,r7
 2002218:	28c001cc 	andi	r3,r5,7
 200221c:	18000426 	beq	r3,zero,2002230 <__divsf3+0x3fc>
 2002220:	28c003cc 	andi	r3,r5,15
 2002224:	01000104 	movi	r4,4
 2002228:	19000126 	beq	r3,r4,2002230 <__divsf3+0x3fc>
 200222c:	290b883a 	add	r5,r5,r4
 2002230:	28c1002c 	andhi	r3,r5,1024
 2002234:	18000426 	beq	r3,zero,2002248 <__divsf3+0x414>
 2002238:	11c0004c 	andi	r7,r2,1
 200223c:	01000044 	movi	r4,1
 2002240:	000d883a 	mov	r6,zero
 2002244:	003f4b06 	br	2001f74 <__divsf3+0x140>
 2002248:	280a91ba 	slli	r5,r5,6
 200224c:	11c0004c 	andi	r7,r2,1
 2002250:	0009883a 	mov	r4,zero
 2002254:	280cd27a 	srli	r6,r5,9
 2002258:	003f4606 	br	2001f74 <__divsf3+0x140>
 200225c:	00802034 	movhi	r2,128
 2002260:	89801034 	orhi	r6,r17,64
 2002264:	10bfffc4 	addi	r2,r2,-1
 2002268:	b00f883a 	mov	r7,r22
 200226c:	308c703a 	and	r6,r6,r2
 2002270:	003f9206 	br	20020bc <__divsf3+0x288>

02002274 <__gesf2>:
 2002274:	2004d5fa 	srli	r2,r4,23
 2002278:	2806d5fa 	srli	r3,r5,23
 200227c:	01802034 	movhi	r6,128
 2002280:	31bfffc4 	addi	r6,r6,-1
 2002284:	10803fcc 	andi	r2,r2,255
 2002288:	01c03fc4 	movi	r7,255
 200228c:	3110703a 	and	r8,r6,r4
 2002290:	18c03fcc 	andi	r3,r3,255
 2002294:	314c703a 	and	r6,r6,r5
 2002298:	2008d7fa 	srli	r4,r4,31
 200229c:	280ad7fa 	srli	r5,r5,31
 20022a0:	11c01926 	beq	r2,r7,2002308 <__gesf2+0x94>
 20022a4:	01c03fc4 	movi	r7,255
 20022a8:	19c00f26 	beq	r3,r7,20022e8 <__gesf2+0x74>
 20022ac:	1000061e 	bne	r2,zero,20022c8 <__gesf2+0x54>
 20022b0:	400f003a 	cmpeq	r7,r8,zero
 20022b4:	1800071e 	bne	r3,zero,20022d4 <__gesf2+0x60>
 20022b8:	3000061e 	bne	r6,zero,20022d4 <__gesf2+0x60>
 20022bc:	0005883a 	mov	r2,zero
 20022c0:	40000e1e 	bne	r8,zero,20022fc <__gesf2+0x88>
 20022c4:	f800283a 	ret
 20022c8:	18000a1e 	bne	r3,zero,20022f4 <__gesf2+0x80>
 20022cc:	30000b26 	beq	r6,zero,20022fc <__gesf2+0x88>
 20022d0:	000f883a 	mov	r7,zero
 20022d4:	29403fcc 	andi	r5,r5,255
 20022d8:	38000726 	beq	r7,zero,20022f8 <__gesf2+0x84>
 20022dc:	28000826 	beq	r5,zero,2002300 <__gesf2+0x8c>
 20022e0:	00800044 	movi	r2,1
 20022e4:	f800283a 	ret
 20022e8:	303ff026 	beq	r6,zero,20022ac <__gesf2+0x38>
 20022ec:	00bfff84 	movi	r2,-2
 20022f0:	f800283a 	ret
 20022f4:	29403fcc 	andi	r5,r5,255
 20022f8:	21400526 	beq	r4,r5,2002310 <__gesf2+0x9c>
 20022fc:	203ff826 	beq	r4,zero,20022e0 <__gesf2+0x6c>
 2002300:	00bfffc4 	movi	r2,-1
 2002304:	f800283a 	ret
 2002308:	403fe626 	beq	r8,zero,20022a4 <__gesf2+0x30>
 200230c:	003ff706 	br	20022ec <__gesf2+0x78>
 2002310:	18bffa16 	blt	r3,r2,20022fc <__gesf2+0x88>
 2002314:	10c00216 	blt	r2,r3,2002320 <__gesf2+0xac>
 2002318:	323ff836 	bltu	r6,r8,20022fc <__gesf2+0x88>
 200231c:	4180022e 	bgeu	r8,r6,2002328 <__gesf2+0xb4>
 2002320:	203fef1e 	bne	r4,zero,20022e0 <__gesf2+0x6c>
 2002324:	003ff606 	br	2002300 <__gesf2+0x8c>
 2002328:	0005883a 	mov	r2,zero
 200232c:	f800283a 	ret

02002330 <__lesf2>:
 2002330:	2004d5fa 	srli	r2,r4,23
 2002334:	280cd5fa 	srli	r6,r5,23
 2002338:	00c02034 	movhi	r3,128
 200233c:	18ffffc4 	addi	r3,r3,-1
 2002340:	10803fcc 	andi	r2,r2,255
 2002344:	01c03fc4 	movi	r7,255
 2002348:	1910703a 	and	r8,r3,r4
 200234c:	31803fcc 	andi	r6,r6,255
 2002350:	1946703a 	and	r3,r3,r5
 2002354:	2008d7fa 	srli	r4,r4,31
 2002358:	280ad7fa 	srli	r5,r5,31
 200235c:	11c01b26 	beq	r2,r7,20023cc <__lesf2+0x9c>
 2002360:	01c03fc4 	movi	r7,255
 2002364:	31c01126 	beq	r6,r7,20023ac <__lesf2+0x7c>
 2002368:	1000071e 	bne	r2,zero,2002388 <__lesf2+0x58>
 200236c:	400f003a 	cmpeq	r7,r8,zero
 2002370:	21003fcc 	andi	r4,r4,255
 2002374:	3000081e 	bne	r6,zero,2002398 <__lesf2+0x68>
 2002378:	1800071e 	bne	r3,zero,2002398 <__lesf2+0x68>
 200237c:	0005883a 	mov	r2,zero
 2002380:	40000f1e 	bne	r8,zero,20023c0 <__lesf2+0x90>
 2002384:	f800283a 	ret
 2002388:	21003fcc 	andi	r4,r4,255
 200238c:	30000a1e 	bne	r6,zero,20023b8 <__lesf2+0x88>
 2002390:	18000b26 	beq	r3,zero,20023c0 <__lesf2+0x90>
 2002394:	000f883a 	mov	r7,zero
 2002398:	29403fcc 	andi	r5,r5,255
 200239c:	38000726 	beq	r7,zero,20023bc <__lesf2+0x8c>
 20023a0:	28000826 	beq	r5,zero,20023c4 <__lesf2+0x94>
 20023a4:	00800044 	movi	r2,1
 20023a8:	f800283a 	ret
 20023ac:	183fee26 	beq	r3,zero,2002368 <__lesf2+0x38>
 20023b0:	00800084 	movi	r2,2
 20023b4:	f800283a 	ret
 20023b8:	29403fcc 	andi	r5,r5,255
 20023bc:	21400626 	beq	r4,r5,20023d8 <__lesf2+0xa8>
 20023c0:	203ff826 	beq	r4,zero,20023a4 <__lesf2+0x74>
 20023c4:	00bfffc4 	movi	r2,-1
 20023c8:	f800283a 	ret
 20023cc:	403fe426 	beq	r8,zero,2002360 <__lesf2+0x30>
 20023d0:	00800084 	movi	r2,2
 20023d4:	f800283a 	ret
 20023d8:	30bff916 	blt	r6,r2,20023c0 <__lesf2+0x90>
 20023dc:	11800216 	blt	r2,r6,20023e8 <__lesf2+0xb8>
 20023e0:	1a3ff736 	bltu	r3,r8,20023c0 <__lesf2+0x90>
 20023e4:	40c0022e 	bgeu	r8,r3,20023f0 <__lesf2+0xc0>
 20023e8:	203fee1e 	bne	r4,zero,20023a4 <__lesf2+0x74>
 20023ec:	003ff506 	br	20023c4 <__lesf2+0x94>
 20023f0:	0005883a 	mov	r2,zero
 20023f4:	f800283a 	ret

020023f8 <__mulsf3>:
 20023f8:	defff504 	addi	sp,sp,-44
 20023fc:	dc000115 	stw	r16,4(sp)
 2002400:	2020d5fa 	srli	r16,r4,23
 2002404:	dd400615 	stw	r21,24(sp)
 2002408:	202ad7fa 	srli	r21,r4,31
 200240c:	dc800315 	stw	r18,12(sp)
 2002410:	04802034 	movhi	r18,128
 2002414:	df000915 	stw	fp,36(sp)
 2002418:	dd000515 	stw	r20,20(sp)
 200241c:	94bfffc4 	addi	r18,r18,-1
 2002420:	dfc00a15 	stw	ra,40(sp)
 2002424:	ddc00815 	stw	r23,32(sp)
 2002428:	dd800715 	stw	r22,28(sp)
 200242c:	dcc00415 	stw	r19,16(sp)
 2002430:	dc400215 	stw	r17,8(sp)
 2002434:	84003fcc 	andi	r16,r16,255
 2002438:	9124703a 	and	r18,r18,r4
 200243c:	a829883a 	mov	r20,r21
 2002440:	af003fcc 	andi	fp,r21,255
 2002444:	80005426 	beq	r16,zero,2002598 <__mulsf3+0x1a0>
 2002448:	00803fc4 	movi	r2,255
 200244c:	80802f26 	beq	r16,r2,200250c <__mulsf3+0x114>
 2002450:	91002034 	orhi	r4,r18,128
 2002454:	202490fa 	slli	r18,r4,3
 2002458:	843fe044 	addi	r16,r16,-127
 200245c:	0023883a 	mov	r17,zero
 2002460:	002f883a 	mov	r23,zero
 2002464:	2804d5fa 	srli	r2,r5,23
 2002468:	282cd7fa 	srli	r22,r5,31
 200246c:	01002034 	movhi	r4,128
 2002470:	213fffc4 	addi	r4,r4,-1
 2002474:	10803fcc 	andi	r2,r2,255
 2002478:	2166703a 	and	r19,r4,r5
 200247c:	b1803fcc 	andi	r6,r22,255
 2002480:	10004c26 	beq	r2,zero,20025b4 <__mulsf3+0x1bc>
 2002484:	00c03fc4 	movi	r3,255
 2002488:	10c04726 	beq	r2,r3,20025a8 <__mulsf3+0x1b0>
 200248c:	99002034 	orhi	r4,r19,128
 2002490:	202690fa 	slli	r19,r4,3
 2002494:	10bfe044 	addi	r2,r2,-127
 2002498:	0007883a 	mov	r3,zero
 200249c:	80a1883a 	add	r16,r16,r2
 20024a0:	010003c4 	movi	r4,15
 20024a4:	1c44b03a 	or	r2,r3,r17
 20024a8:	b56af03a 	xor	r21,r22,r21
 20024ac:	81c00044 	addi	r7,r16,1
 20024b0:	20806b36 	bltu	r4,r2,2002660 <__mulsf3+0x268>
 20024b4:	100490ba 	slli	r2,r2,2
 20024b8:	01008034 	movhi	r4,512
 20024bc:	21093304 	addi	r4,r4,9420
 20024c0:	1105883a 	add	r2,r2,r4
 20024c4:	10800017 	ldw	r2,0(r2)
 20024c8:	1000683a 	jmp	r2
 20024cc:	02002660 	cmpeqi	r8,zero,153
 20024d0:	02002520 	cmpeqi	r8,zero,148
 20024d4:	02002520 	cmpeqi	r8,zero,148
 20024d8:	0200251c 	xori	r8,zero,148
 20024dc:	02002644 	movi	r8,153
 20024e0:	02002644 	movi	r8,153
 20024e4:	02002630 	cmpltui	r8,zero,152
 20024e8:	0200251c 	xori	r8,zero,148
 20024ec:	02002644 	movi	r8,153
 20024f0:	02002630 	cmpltui	r8,zero,152
 20024f4:	02002644 	movi	r8,153
 20024f8:	0200251c 	xori	r8,zero,148
 20024fc:	02002650 	cmplti	r8,zero,153
 2002500:	02002650 	cmplti	r8,zero,153
 2002504:	02002650 	cmplti	r8,zero,153
 2002508:	02002760 	cmpeqi	r8,zero,157
 200250c:	90003b1e 	bne	r18,zero,20025fc <__mulsf3+0x204>
 2002510:	04400204 	movi	r17,8
 2002514:	05c00084 	movi	r23,2
 2002518:	003fd206 	br	2002464 <__mulsf3+0x6c>
 200251c:	302b883a 	mov	r21,r6
 2002520:	00800084 	movi	r2,2
 2002524:	18802626 	beq	r3,r2,20025c0 <__mulsf3+0x1c8>
 2002528:	008000c4 	movi	r2,3
 200252c:	1880b826 	beq	r3,r2,2002810 <__mulsf3+0x418>
 2002530:	00800044 	movi	r2,1
 2002534:	1880af1e 	bne	r3,r2,20027f4 <__mulsf3+0x3fc>
 2002538:	a829883a 	mov	r20,r21
 200253c:	0007883a 	mov	r3,zero
 2002540:	0009883a 	mov	r4,zero
 2002544:	18803fcc 	andi	r2,r3,255
 2002548:	100695fa 	slli	r3,r2,23
 200254c:	a0803fcc 	andi	r2,r20,255
 2002550:	100a97fa 	slli	r5,r2,31
 2002554:	00802034 	movhi	r2,128
 2002558:	10bfffc4 	addi	r2,r2,-1
 200255c:	2084703a 	and	r2,r4,r2
 2002560:	10c4b03a 	or	r2,r2,r3
 2002564:	1144b03a 	or	r2,r2,r5
 2002568:	dfc00a17 	ldw	ra,40(sp)
 200256c:	df000917 	ldw	fp,36(sp)
 2002570:	ddc00817 	ldw	r23,32(sp)
 2002574:	dd800717 	ldw	r22,28(sp)
 2002578:	dd400617 	ldw	r21,24(sp)
 200257c:	dd000517 	ldw	r20,20(sp)
 2002580:	dcc00417 	ldw	r19,16(sp)
 2002584:	dc800317 	ldw	r18,12(sp)
 2002588:	dc400217 	ldw	r17,8(sp)
 200258c:	dc000117 	ldw	r16,4(sp)
 2002590:	dec00b04 	addi	sp,sp,44
 2002594:	f800283a 	ret
 2002598:	90000d1e 	bne	r18,zero,20025d0 <__mulsf3+0x1d8>
 200259c:	04400104 	movi	r17,4
 20025a0:	05c00044 	movi	r23,1
 20025a4:	003faf06 	br	2002464 <__mulsf3+0x6c>
 20025a8:	9806c03a 	cmpne	r3,r19,zero
 20025ac:	18c00084 	addi	r3,r3,2
 20025b0:	003fba06 	br	200249c <__mulsf3+0xa4>
 20025b4:	9800141e 	bne	r19,zero,2002608 <__mulsf3+0x210>
 20025b8:	00c00044 	movi	r3,1
 20025bc:	003fb706 	br	200249c <__mulsf3+0xa4>
 20025c0:	a829883a 	mov	r20,r21
 20025c4:	00ffffc4 	movi	r3,-1
 20025c8:	0009883a 	mov	r4,zero
 20025cc:	003fdd06 	br	2002544 <__mulsf3+0x14c>
 20025d0:	9009883a 	mov	r4,r18
 20025d4:	d9400015 	stw	r5,0(sp)
 20025d8:	20044700 	call	2004470 <__clzsi2>
 20025dc:	10fffec4 	addi	r3,r2,-5
 20025e0:	10801d84 	addi	r2,r2,118
 20025e4:	90e4983a 	sll	r18,r18,r3
 20025e8:	00a1c83a 	sub	r16,zero,r2
 20025ec:	0023883a 	mov	r17,zero
 20025f0:	002f883a 	mov	r23,zero
 20025f4:	d9400017 	ldw	r5,0(sp)
 20025f8:	003f9a06 	br	2002464 <__mulsf3+0x6c>
 20025fc:	04400304 	movi	r17,12
 2002600:	05c000c4 	movi	r23,3
 2002604:	003f9706 	br	2002464 <__mulsf3+0x6c>
 2002608:	9809883a 	mov	r4,r19
 200260c:	d9800015 	stw	r6,0(sp)
 2002610:	20044700 	call	2004470 <__clzsi2>
 2002614:	10fffec4 	addi	r3,r2,-5
 2002618:	10801d84 	addi	r2,r2,118
 200261c:	98e6983a 	sll	r19,r19,r3
 2002620:	0085c83a 	sub	r2,zero,r2
 2002624:	0007883a 	mov	r3,zero
 2002628:	d9800017 	ldw	r6,0(sp)
 200262c:	003f9b06 	br	200249c <__mulsf3+0xa4>
 2002630:	01002034 	movhi	r4,128
 2002634:	0029883a 	mov	r20,zero
 2002638:	213fffc4 	addi	r4,r4,-1
 200263c:	00ffffc4 	movi	r3,-1
 2002640:	003fc006 	br	2002544 <__mulsf3+0x14c>
 2002644:	9027883a 	mov	r19,r18
 2002648:	b807883a 	mov	r3,r23
 200264c:	003fb406 	br	2002520 <__mulsf3+0x128>
 2002650:	9027883a 	mov	r19,r18
 2002654:	e02b883a 	mov	r21,fp
 2002658:	b807883a 	mov	r3,r23
 200265c:	003fb006 	br	2002520 <__mulsf3+0x128>
 2002660:	9028d43a 	srli	r20,r18,16
 2002664:	982cd43a 	srli	r22,r19,16
 2002668:	94bfffcc 	andi	r18,r18,65535
 200266c:	9cffffcc 	andi	r19,r19,65535
 2002670:	980b883a 	mov	r5,r19
 2002674:	9009883a 	mov	r4,r18
 2002678:	d9c00015 	stw	r7,0(sp)
 200267c:	20019440 	call	2001944 <__mulsi3>
 2002680:	a00b883a 	mov	r5,r20
 2002684:	9809883a 	mov	r4,r19
 2002688:	1023883a 	mov	r17,r2
 200268c:	20019440 	call	2001944 <__mulsi3>
 2002690:	a009883a 	mov	r4,r20
 2002694:	b00b883a 	mov	r5,r22
 2002698:	1027883a 	mov	r19,r2
 200269c:	20019440 	call	2001944 <__mulsi3>
 20026a0:	b00b883a 	mov	r5,r22
 20026a4:	9009883a 	mov	r4,r18
 20026a8:	1029883a 	mov	r20,r2
 20026ac:	20019440 	call	2001944 <__mulsi3>
 20026b0:	8806d43a 	srli	r3,r17,16
 20026b4:	14c5883a 	add	r2,r2,r19
 20026b8:	d9c00017 	ldw	r7,0(sp)
 20026bc:	1885883a 	add	r2,r3,r2
 20026c0:	14c0022e 	bgeu	r2,r19,20026cc <__mulsf3+0x2d4>
 20026c4:	00c00074 	movhi	r3,1
 20026c8:	a0e9883a 	add	r20,r20,r3
 20026cc:	1026943a 	slli	r19,r2,16
 20026d0:	8c7fffcc 	andi	r17,r17,65535
 20026d4:	1004d43a 	srli	r2,r2,16
 20026d8:	9c63883a 	add	r17,r19,r17
 20026dc:	882691ba 	slli	r19,r17,6
 20026e0:	1505883a 	add	r2,r2,r20
 20026e4:	8822d6ba 	srli	r17,r17,26
 20026e8:	100891ba 	slli	r4,r2,6
 20026ec:	9826c03a 	cmpne	r19,r19,zero
 20026f0:	9c62b03a 	or	r17,r19,r17
 20026f4:	8926b03a 	or	r19,r17,r4
 20026f8:	9882002c 	andhi	r2,r19,2048
 20026fc:	10000426 	beq	r2,zero,2002710 <__mulsf3+0x318>
 2002700:	9804d07a 	srli	r2,r19,1
 2002704:	9900004c 	andi	r4,r19,1
 2002708:	3821883a 	mov	r16,r7
 200270c:	1126b03a 	or	r19,r2,r4
 2002710:	80c01fc4 	addi	r3,r16,127
 2002714:	00c0210e 	bge	zero,r3,200279c <__mulsf3+0x3a4>
 2002718:	988001cc 	andi	r2,r19,7
 200271c:	10000426 	beq	r2,zero,2002730 <__mulsf3+0x338>
 2002720:	988003cc 	andi	r2,r19,15
 2002724:	01000104 	movi	r4,4
 2002728:	11000126 	beq	r2,r4,2002730 <__mulsf3+0x338>
 200272c:	9927883a 	add	r19,r19,r4
 2002730:	9882002c 	andhi	r2,r19,2048
 2002734:	10000426 	beq	r2,zero,2002748 <__mulsf3+0x350>
 2002738:	00be0034 	movhi	r2,63488
 200273c:	10bfffc4 	addi	r2,r2,-1
 2002740:	80c02004 	addi	r3,r16,128
 2002744:	98a6703a 	and	r19,r19,r2
 2002748:	00803f84 	movi	r2,254
 200274c:	10ff9c16 	blt	r2,r3,20025c0 <__mulsf3+0x1c8>
 2002750:	980891ba 	slli	r4,r19,6
 2002754:	a829883a 	mov	r20,r21
 2002758:	2008d27a 	srli	r4,r4,9
 200275c:	003f7906 	br	2002544 <__mulsf3+0x14c>
 2002760:	9080102c 	andhi	r2,r18,64
 2002764:	10000826 	beq	r2,zero,2002788 <__mulsf3+0x390>
 2002768:	9880102c 	andhi	r2,r19,64
 200276c:	1000061e 	bne	r2,zero,2002788 <__mulsf3+0x390>
 2002770:	00802034 	movhi	r2,128
 2002774:	99001034 	orhi	r4,r19,64
 2002778:	10bfffc4 	addi	r2,r2,-1
 200277c:	b029883a 	mov	r20,r22
 2002780:	2088703a 	and	r4,r4,r2
 2002784:	003fad06 	br	200263c <__mulsf3+0x244>
 2002788:	00802034 	movhi	r2,128
 200278c:	91001034 	orhi	r4,r18,64
 2002790:	10bfffc4 	addi	r2,r2,-1
 2002794:	2088703a 	and	r4,r4,r2
 2002798:	003fa806 	br	200263c <__mulsf3+0x244>
 200279c:	00800044 	movi	r2,1
 20027a0:	10c7c83a 	sub	r3,r2,r3
 20027a4:	008006c4 	movi	r2,27
 20027a8:	10ff6316 	blt	r2,r3,2002538 <__mulsf3+0x140>
 20027ac:	00800804 	movi	r2,32
 20027b0:	10c5c83a 	sub	r2,r2,r3
 20027b4:	9884983a 	sll	r2,r19,r2
 20027b8:	98c6d83a 	srl	r3,r19,r3
 20027bc:	1004c03a 	cmpne	r2,r2,zero
 20027c0:	1884b03a 	or	r2,r3,r2
 20027c4:	10c001cc 	andi	r3,r2,7
 20027c8:	18000426 	beq	r3,zero,20027dc <__mulsf3+0x3e4>
 20027cc:	10c003cc 	andi	r3,r2,15
 20027d0:	01000104 	movi	r4,4
 20027d4:	19000126 	beq	r3,r4,20027dc <__mulsf3+0x3e4>
 20027d8:	1105883a 	add	r2,r2,r4
 20027dc:	10c1002c 	andhi	r3,r2,1024
 20027e0:	18000626 	beq	r3,zero,20027fc <__mulsf3+0x404>
 20027e4:	a829883a 	mov	r20,r21
 20027e8:	00c00044 	movi	r3,1
 20027ec:	0009883a 	mov	r4,zero
 20027f0:	003f5406 	br	2002544 <__mulsf3+0x14c>
 20027f4:	3821883a 	mov	r16,r7
 20027f8:	003fc506 	br	2002710 <__mulsf3+0x318>
 20027fc:	100491ba 	slli	r2,r2,6
 2002800:	a829883a 	mov	r20,r21
 2002804:	0007883a 	mov	r3,zero
 2002808:	1008d27a 	srli	r4,r2,9
 200280c:	003f4d06 	br	2002544 <__mulsf3+0x14c>
 2002810:	00802034 	movhi	r2,128
 2002814:	99001034 	orhi	r4,r19,64
 2002818:	10bfffc4 	addi	r2,r2,-1
 200281c:	a829883a 	mov	r20,r21
 2002820:	2088703a 	and	r4,r4,r2
 2002824:	003f8506 	br	200263c <__mulsf3+0x244>

02002828 <__subsf3>:
 2002828:	defffc04 	addi	sp,sp,-16
 200282c:	280cd5fa 	srli	r6,r5,23
 2002830:	dc000015 	stw	r16,0(sp)
 2002834:	01c02034 	movhi	r7,128
 2002838:	2020d5fa 	srli	r16,r4,23
 200283c:	39ffffc4 	addi	r7,r7,-1
 2002840:	3906703a 	and	r3,r7,r4
 2002844:	dc400115 	stw	r17,4(sp)
 2002848:	394e703a 	and	r7,r7,r5
 200284c:	2022d7fa 	srli	r17,r4,31
 2002850:	dfc00315 	stw	ra,12(sp)
 2002854:	dc800215 	stw	r18,8(sp)
 2002858:	31803fcc 	andi	r6,r6,255
 200285c:	01003fc4 	movi	r4,255
 2002860:	84003fcc 	andi	r16,r16,255
 2002864:	180690fa 	slli	r3,r3,3
 2002868:	2804d7fa 	srli	r2,r5,31
 200286c:	380e90fa 	slli	r7,r7,3
 2002870:	31006d26 	beq	r6,r4,2002a28 <__subsf3+0x200>
 2002874:	1080005c 	xori	r2,r2,1
 2002878:	8189c83a 	sub	r4,r16,r6
 200287c:	14404f26 	beq	r2,r17,20029bc <__subsf3+0x194>
 2002880:	0100770e 	bge	zero,r4,2002a60 <__subsf3+0x238>
 2002884:	30001e1e 	bne	r6,zero,2002900 <__subsf3+0xd8>
 2002888:	38006a1e 	bne	r7,zero,2002a34 <__subsf3+0x20c>
 200288c:	188001cc 	andi	r2,r3,7
 2002890:	10000426 	beq	r2,zero,20028a4 <__subsf3+0x7c>
 2002894:	188003cc 	andi	r2,r3,15
 2002898:	01000104 	movi	r4,4
 200289c:	11000126 	beq	r2,r4,20028a4 <__subsf3+0x7c>
 20028a0:	1907883a 	add	r3,r3,r4
 20028a4:	1881002c 	andhi	r2,r3,1024
 20028a8:	10003926 	beq	r2,zero,2002990 <__subsf3+0x168>
 20028ac:	84000044 	addi	r16,r16,1
 20028b0:	00803fc4 	movi	r2,255
 20028b4:	80807526 	beq	r16,r2,2002a8c <__subsf3+0x264>
 20028b8:	180691ba 	slli	r3,r3,6
 20028bc:	8880004c 	andi	r2,r17,1
 20028c0:	180ad27a 	srli	r5,r3,9
 20028c4:	84003fcc 	andi	r16,r16,255
 20028c8:	800695fa 	slli	r3,r16,23
 20028cc:	10803fcc 	andi	r2,r2,255
 20028d0:	01002034 	movhi	r4,128
 20028d4:	213fffc4 	addi	r4,r4,-1
 20028d8:	100497fa 	slli	r2,r2,31
 20028dc:	2920703a 	and	r16,r5,r4
 20028e0:	80e0b03a 	or	r16,r16,r3
 20028e4:	8084b03a 	or	r2,r16,r2
 20028e8:	dfc00317 	ldw	ra,12(sp)
 20028ec:	dc800217 	ldw	r18,8(sp)
 20028f0:	dc400117 	ldw	r17,4(sp)
 20028f4:	dc000017 	ldw	r16,0(sp)
 20028f8:	dec00404 	addi	sp,sp,16
 20028fc:	f800283a 	ret
 2002900:	00803fc4 	movi	r2,255
 2002904:	80bfe126 	beq	r16,r2,200288c <__subsf3+0x64>
 2002908:	39c10034 	orhi	r7,r7,1024
 200290c:	008006c4 	movi	r2,27
 2002910:	11007416 	blt	r2,r4,2002ae4 <__subsf3+0x2bc>
 2002914:	00800804 	movi	r2,32
 2002918:	1105c83a 	sub	r2,r2,r4
 200291c:	3884983a 	sll	r2,r7,r2
 2002920:	390ed83a 	srl	r7,r7,r4
 2002924:	1008c03a 	cmpne	r4,r2,zero
 2002928:	390eb03a 	or	r7,r7,r4
 200292c:	19c7c83a 	sub	r3,r3,r7
 2002930:	1881002c 	andhi	r2,r3,1024
 2002934:	10001426 	beq	r2,zero,2002988 <__subsf3+0x160>
 2002938:	04810034 	movhi	r18,1024
 200293c:	94bfffc4 	addi	r18,r18,-1
 2002940:	1ca4703a 	and	r18,r3,r18
 2002944:	9009883a 	mov	r4,r18
 2002948:	20044700 	call	2004470 <__clzsi2>
 200294c:	10bffec4 	addi	r2,r2,-5
 2002950:	90a4983a 	sll	r18,r18,r2
 2002954:	14005116 	blt	r2,r16,2002a9c <__subsf3+0x274>
 2002958:	1405c83a 	sub	r2,r2,r16
 200295c:	10c00044 	addi	r3,r2,1
 2002960:	00800804 	movi	r2,32
 2002964:	10c5c83a 	sub	r2,r2,r3
 2002968:	9084983a 	sll	r2,r18,r2
 200296c:	90e4d83a 	srl	r18,r18,r3
 2002970:	0021883a 	mov	r16,zero
 2002974:	1006c03a 	cmpne	r3,r2,zero
 2002978:	90c6b03a 	or	r3,r18,r3
 200297c:	003fc306 	br	200288c <__subsf3+0x64>
 2002980:	2000e026 	beq	r4,zero,2002d04 <__subsf3+0x4dc>
 2002984:	2007883a 	mov	r3,r4
 2002988:	188001cc 	andi	r2,r3,7
 200298c:	103fc11e 	bne	r2,zero,2002894 <__subsf3+0x6c>
 2002990:	180ad0fa 	srli	r5,r3,3
 2002994:	00c03fc4 	movi	r3,255
 2002998:	8880004c 	andi	r2,r17,1
 200299c:	80c0031e 	bne	r16,r3,20029ac <__subsf3+0x184>
 20029a0:	28006d26 	beq	r5,zero,2002b58 <__subsf3+0x330>
 20029a4:	29401034 	orhi	r5,r5,64
 20029a8:	043fffc4 	movi	r16,-1
 20029ac:	00c02034 	movhi	r3,128
 20029b0:	18ffffc4 	addi	r3,r3,-1
 20029b4:	28ca703a 	and	r5,r5,r3
 20029b8:	003fc206 	br	20028c4 <__subsf3+0x9c>
 20029bc:	01003c0e 	bge	zero,r4,2002ab0 <__subsf3+0x288>
 20029c0:	30002126 	beq	r6,zero,2002a48 <__subsf3+0x220>
 20029c4:	01403fc4 	movi	r5,255
 20029c8:	817fb026 	beq	r16,r5,200288c <__subsf3+0x64>
 20029cc:	39c10034 	orhi	r7,r7,1024
 20029d0:	014006c4 	movi	r5,27
 20029d4:	29007416 	blt	r5,r4,2002ba8 <__subsf3+0x380>
 20029d8:	01400804 	movi	r5,32
 20029dc:	290bc83a 	sub	r5,r5,r4
 20029e0:	394a983a 	sll	r5,r7,r5
 20029e4:	390ed83a 	srl	r7,r7,r4
 20029e8:	2808c03a 	cmpne	r4,r5,zero
 20029ec:	390eb03a 	or	r7,r7,r4
 20029f0:	19c7883a 	add	r3,r3,r7
 20029f4:	1901002c 	andhi	r4,r3,1024
 20029f8:	20003826 	beq	r4,zero,2002adc <__subsf3+0x2b4>
 20029fc:	84000044 	addi	r16,r16,1
 2002a00:	01003fc4 	movi	r4,255
 2002a04:	81005426 	beq	r16,r4,2002b58 <__subsf3+0x330>
 2002a08:	1023883a 	mov	r17,r2
 2002a0c:	00bf0034 	movhi	r2,64512
 2002a10:	10bfffc4 	addi	r2,r2,-1
 2002a14:	1900004c 	andi	r4,r3,1
 2002a18:	1886703a 	and	r3,r3,r2
 2002a1c:	1806d07a 	srli	r3,r3,1
 2002a20:	1906b03a 	or	r3,r3,r4
 2002a24:	003f9906 	br	200288c <__subsf3+0x64>
 2002a28:	383f9226 	beq	r7,zero,2002874 <__subsf3+0x4c>
 2002a2c:	10803fcc 	andi	r2,r2,255
 2002a30:	003f9106 	br	2002878 <__subsf3+0x50>
 2002a34:	213fffc4 	addi	r4,r4,-1
 2002a38:	203fbc26 	beq	r4,zero,200292c <__subsf3+0x104>
 2002a3c:	00803fc4 	movi	r2,255
 2002a40:	80bfb21e 	bne	r16,r2,200290c <__subsf3+0xe4>
 2002a44:	003f9106 	br	200288c <__subsf3+0x64>
 2002a48:	383f9026 	beq	r7,zero,200288c <__subsf3+0x64>
 2002a4c:	213fffc4 	addi	r4,r4,-1
 2002a50:	203fe726 	beq	r4,zero,20029f0 <__subsf3+0x1c8>
 2002a54:	01403fc4 	movi	r5,255
 2002a58:	817fdd1e 	bne	r16,r5,20029d0 <__subsf3+0x1a8>
 2002a5c:	003f8b06 	br	200288c <__subsf3+0x64>
 2002a60:	2000221e 	bne	r4,zero,2002aec <__subsf3+0x2c4>
 2002a64:	81000044 	addi	r4,r16,1
 2002a68:	21003fcc 	andi	r4,r4,255
 2002a6c:	01400044 	movi	r5,1
 2002a70:	2900470e 	bge	r5,r4,2002b90 <__subsf3+0x368>
 2002a74:	19e5c83a 	sub	r18,r3,r7
 2002a78:	9141002c 	andhi	r5,r18,1024
 2002a7c:	28002d26 	beq	r5,zero,2002b34 <__subsf3+0x30c>
 2002a80:	38e5c83a 	sub	r18,r7,r3
 2002a84:	1023883a 	mov	r17,r2
 2002a88:	003fae06 	br	2002944 <__subsf3+0x11c>
 2002a8c:	8880004c 	andi	r2,r17,1
 2002a90:	043fffc4 	movi	r16,-1
 2002a94:	000b883a 	mov	r5,zero
 2002a98:	003f8a06 	br	20028c4 <__subsf3+0x9c>
 2002a9c:	00ff0034 	movhi	r3,64512
 2002aa0:	18ffffc4 	addi	r3,r3,-1
 2002aa4:	80a1c83a 	sub	r16,r16,r2
 2002aa8:	90c6703a 	and	r3,r18,r3
 2002aac:	003f7706 	br	200288c <__subsf3+0x64>
 2002ab0:	2000431e 	bne	r4,zero,2002bc0 <__subsf3+0x398>
 2002ab4:	81000044 	addi	r4,r16,1
 2002ab8:	21803fcc 	andi	r6,r4,255
 2002abc:	01400044 	movi	r5,1
 2002ac0:	2980280e 	bge	r5,r6,2002b64 <__subsf3+0x33c>
 2002ac4:	01403fc4 	movi	r5,255
 2002ac8:	21402326 	beq	r4,r5,2002b58 <__subsf3+0x330>
 2002acc:	19c7883a 	add	r3,r3,r7
 2002ad0:	1806d07a 	srli	r3,r3,1
 2002ad4:	2021883a 	mov	r16,r4
 2002ad8:	003f6c06 	br	200288c <__subsf3+0x64>
 2002adc:	1023883a 	mov	r17,r2
 2002ae0:	003fa906 	br	2002988 <__subsf3+0x160>
 2002ae4:	01c00044 	movi	r7,1
 2002ae8:	003f9006 	br	200292c <__subsf3+0x104>
 2002aec:	8000151e 	bne	r16,zero,2002b44 <__subsf3+0x31c>
 2002af0:	18002f26 	beq	r3,zero,2002bb0 <__subsf3+0x388>
 2002af4:	0108303a 	nor	r4,zero,r4
 2002af8:	20000a26 	beq	r4,zero,2002b24 <__subsf3+0x2fc>
 2002afc:	01403fc4 	movi	r5,255
 2002b00:	31402b26 	beq	r6,r5,2002bb0 <__subsf3+0x388>
 2002b04:	014006c4 	movi	r5,27
 2002b08:	29006e16 	blt	r5,r4,2002cc4 <__subsf3+0x49c>
 2002b0c:	01400804 	movi	r5,32
 2002b10:	290bc83a 	sub	r5,r5,r4
 2002b14:	194a983a 	sll	r5,r3,r5
 2002b18:	1908d83a 	srl	r4,r3,r4
 2002b1c:	2806c03a 	cmpne	r3,r5,zero
 2002b20:	20c6b03a 	or	r3,r4,r3
 2002b24:	38c7c83a 	sub	r3,r7,r3
 2002b28:	3021883a 	mov	r16,r6
 2002b2c:	1023883a 	mov	r17,r2
 2002b30:	003f7f06 	br	2002930 <__subsf3+0x108>
 2002b34:	903f831e 	bne	r18,zero,2002944 <__subsf3+0x11c>
 2002b38:	0005883a 	mov	r2,zero
 2002b3c:	0021883a 	mov	r16,zero
 2002b40:	003f9a06 	br	20029ac <__subsf3+0x184>
 2002b44:	01403fc4 	movi	r5,255
 2002b48:	31401926 	beq	r6,r5,2002bb0 <__subsf3+0x388>
 2002b4c:	0109c83a 	sub	r4,zero,r4
 2002b50:	18c10034 	orhi	r3,r3,1024
 2002b54:	003feb06 	br	2002b04 <__subsf3+0x2dc>
 2002b58:	043fffc4 	movi	r16,-1
 2002b5c:	000b883a 	mov	r5,zero
 2002b60:	003f5806 	br	20028c4 <__subsf3+0x9c>
 2002b64:	8000481e 	bne	r16,zero,2002c88 <__subsf3+0x460>
 2002b68:	18006226 	beq	r3,zero,2002cf4 <__subsf3+0x4cc>
 2002b6c:	383f4726 	beq	r7,zero,200288c <__subsf3+0x64>
 2002b70:	19c7883a 	add	r3,r3,r7
 2002b74:	1881002c 	andhi	r2,r3,1024
 2002b78:	103f8326 	beq	r2,zero,2002988 <__subsf3+0x160>
 2002b7c:	00bf0034 	movhi	r2,64512
 2002b80:	10bfffc4 	addi	r2,r2,-1
 2002b84:	2821883a 	mov	r16,r5
 2002b88:	1886703a 	and	r3,r3,r2
 2002b8c:	003f3f06 	br	200288c <__subsf3+0x64>
 2002b90:	80001c1e 	bne	r16,zero,2002c04 <__subsf3+0x3dc>
 2002b94:	1800261e 	bne	r3,zero,2002c30 <__subsf3+0x408>
 2002b98:	38004c26 	beq	r7,zero,2002ccc <__subsf3+0x4a4>
 2002b9c:	3807883a 	mov	r3,r7
 2002ba0:	1023883a 	mov	r17,r2
 2002ba4:	003f3906 	br	200288c <__subsf3+0x64>
 2002ba8:	01c00044 	movi	r7,1
 2002bac:	003f9006 	br	20029f0 <__subsf3+0x1c8>
 2002bb0:	3807883a 	mov	r3,r7
 2002bb4:	3021883a 	mov	r16,r6
 2002bb8:	1023883a 	mov	r17,r2
 2002bbc:	003f3306 	br	200288c <__subsf3+0x64>
 2002bc0:	8000161e 	bne	r16,zero,2002c1c <__subsf3+0x3f4>
 2002bc4:	18002d26 	beq	r3,zero,2002c7c <__subsf3+0x454>
 2002bc8:	0108303a 	nor	r4,zero,r4
 2002bcc:	20000a26 	beq	r4,zero,2002bf8 <__subsf3+0x3d0>
 2002bd0:	01403fc4 	movi	r5,255
 2002bd4:	31402926 	beq	r6,r5,2002c7c <__subsf3+0x454>
 2002bd8:	014006c4 	movi	r5,27
 2002bdc:	29004716 	blt	r5,r4,2002cfc <__subsf3+0x4d4>
 2002be0:	01400804 	movi	r5,32
 2002be4:	290bc83a 	sub	r5,r5,r4
 2002be8:	194a983a 	sll	r5,r3,r5
 2002bec:	1908d83a 	srl	r4,r3,r4
 2002bf0:	2806c03a 	cmpne	r3,r5,zero
 2002bf4:	20c6b03a 	or	r3,r4,r3
 2002bf8:	19c7883a 	add	r3,r3,r7
 2002bfc:	3021883a 	mov	r16,r6
 2002c00:	003f7c06 	br	20029f4 <__subsf3+0x1cc>
 2002c04:	1800111e 	bne	r3,zero,2002c4c <__subsf3+0x424>
 2002c08:	38003326 	beq	r7,zero,2002cd8 <__subsf3+0x4b0>
 2002c0c:	3807883a 	mov	r3,r7
 2002c10:	1023883a 	mov	r17,r2
 2002c14:	04003fc4 	movi	r16,255
 2002c18:	003f1c06 	br	200288c <__subsf3+0x64>
 2002c1c:	01403fc4 	movi	r5,255
 2002c20:	31401626 	beq	r6,r5,2002c7c <__subsf3+0x454>
 2002c24:	0109c83a 	sub	r4,zero,r4
 2002c28:	18c10034 	orhi	r3,r3,1024
 2002c2c:	003fea06 	br	2002bd8 <__subsf3+0x3b0>
 2002c30:	383f1626 	beq	r7,zero,200288c <__subsf3+0x64>
 2002c34:	19c9c83a 	sub	r4,r3,r7
 2002c38:	2141002c 	andhi	r5,r4,1024
 2002c3c:	283f5026 	beq	r5,zero,2002980 <__subsf3+0x158>
 2002c40:	38c7c83a 	sub	r3,r7,r3
 2002c44:	1023883a 	mov	r17,r2
 2002c48:	003f1006 	br	200288c <__subsf3+0x64>
 2002c4c:	38001b26 	beq	r7,zero,2002cbc <__subsf3+0x494>
 2002c50:	1806d0fa 	srli	r3,r3,3
 2002c54:	1900102c 	andhi	r4,r3,64
 2002c58:	20000526 	beq	r4,zero,2002c70 <__subsf3+0x448>
 2002c5c:	380ed0fa 	srli	r7,r7,3
 2002c60:	3900102c 	andhi	r4,r7,64
 2002c64:	2000021e 	bne	r4,zero,2002c70 <__subsf3+0x448>
 2002c68:	3807883a 	mov	r3,r7
 2002c6c:	1023883a 	mov	r17,r2
 2002c70:	180690fa 	slli	r3,r3,3
 2002c74:	04003fc4 	movi	r16,255
 2002c78:	003f0406 	br	200288c <__subsf3+0x64>
 2002c7c:	3807883a 	mov	r3,r7
 2002c80:	3021883a 	mov	r16,r6
 2002c84:	003f0106 	br	200288c <__subsf3+0x64>
 2002c88:	18001726 	beq	r3,zero,2002ce8 <__subsf3+0x4c0>
 2002c8c:	38000b26 	beq	r7,zero,2002cbc <__subsf3+0x494>
 2002c90:	1806d0fa 	srli	r3,r3,3
 2002c94:	1900102c 	andhi	r4,r3,64
 2002c98:	20000426 	beq	r4,zero,2002cac <__subsf3+0x484>
 2002c9c:	380ed0fa 	srli	r7,r7,3
 2002ca0:	3900102c 	andhi	r4,r7,64
 2002ca4:	2000011e 	bne	r4,zero,2002cac <__subsf3+0x484>
 2002ca8:	3807883a 	mov	r3,r7
 2002cac:	180690fa 	slli	r3,r3,3
 2002cb0:	1023883a 	mov	r17,r2
 2002cb4:	04003fc4 	movi	r16,255
 2002cb8:	003ef406 	br	200288c <__subsf3+0x64>
 2002cbc:	04003fc4 	movi	r16,255
 2002cc0:	003ef206 	br	200288c <__subsf3+0x64>
 2002cc4:	00c00044 	movi	r3,1
 2002cc8:	003f9606 	br	2002b24 <__subsf3+0x2fc>
 2002ccc:	000b883a 	mov	r5,zero
 2002cd0:	0005883a 	mov	r2,zero
 2002cd4:	003f3506 	br	20029ac <__subsf3+0x184>
 2002cd8:	01402034 	movhi	r5,128
 2002cdc:	297fffc4 	addi	r5,r5,-1
 2002ce0:	0005883a 	mov	r2,zero
 2002ce4:	003f2f06 	br	20029a4 <__subsf3+0x17c>
 2002ce8:	3807883a 	mov	r3,r7
 2002cec:	04003fc4 	movi	r16,255
 2002cf0:	003ee606 	br	200288c <__subsf3+0x64>
 2002cf4:	3807883a 	mov	r3,r7
 2002cf8:	003ee406 	br	200288c <__subsf3+0x64>
 2002cfc:	00c00044 	movi	r3,1
 2002d00:	003fbd06 	br	2002bf8 <__subsf3+0x3d0>
 2002d04:	0005883a 	mov	r2,zero
 2002d08:	003f2806 	br	20029ac <__subsf3+0x184>

02002d0c <__fixsfsi>:
 2002d0c:	200ad5fa 	srli	r5,r4,23
 2002d10:	00c02034 	movhi	r3,128
 2002d14:	18ffffc4 	addi	r3,r3,-1
 2002d18:	29403fcc 	andi	r5,r5,255
 2002d1c:	00801f84 	movi	r2,126
 2002d20:	1906703a 	and	r3,r3,r4
 2002d24:	2008d7fa 	srli	r4,r4,31
 2002d28:	11400e0e 	bge	r2,r5,2002d64 <__fixsfsi+0x58>
 2002d2c:	00802744 	movi	r2,157
 2002d30:	11400816 	blt	r2,r5,2002d54 <__fixsfsi+0x48>
 2002d34:	00802544 	movi	r2,149
 2002d38:	18c02034 	orhi	r3,r3,128
 2002d3c:	11400b0e 	bge	r2,r5,2002d6c <__fixsfsi+0x60>
 2002d40:	28bfda84 	addi	r2,r5,-150
 2002d44:	1884983a 	sll	r2,r3,r2
 2002d48:	20000726 	beq	r4,zero,2002d68 <__fixsfsi+0x5c>
 2002d4c:	0085c83a 	sub	r2,zero,r2
 2002d50:	f800283a 	ret
 2002d54:	00a00034 	movhi	r2,32768
 2002d58:	10bfffc4 	addi	r2,r2,-1
 2002d5c:	2085883a 	add	r2,r4,r2
 2002d60:	f800283a 	ret
 2002d64:	0005883a 	mov	r2,zero
 2002d68:	f800283a 	ret
 2002d6c:	00802584 	movi	r2,150
 2002d70:	1145c83a 	sub	r2,r2,r5
 2002d74:	1884d83a 	srl	r2,r3,r2
 2002d78:	003ff306 	br	2002d48 <__fixsfsi+0x3c>

02002d7c <__floatsisf>:
 2002d7c:	defffd04 	addi	sp,sp,-12
 2002d80:	dfc00215 	stw	ra,8(sp)
 2002d84:	dc400115 	stw	r17,4(sp)
 2002d88:	dc000015 	stw	r16,0(sp)
 2002d8c:	20003526 	beq	r4,zero,2002e64 <__floatsisf+0xe8>
 2002d90:	2021883a 	mov	r16,r4
 2002d94:	2022d7fa 	srli	r17,r4,31
 2002d98:	20003616 	blt	r4,zero,2002e74 <__floatsisf+0xf8>
 2002d9c:	8009883a 	mov	r4,r16
 2002da0:	20044700 	call	2004470 <__clzsi2>
 2002da4:	00c02784 	movi	r3,158
 2002da8:	1887c83a 	sub	r3,r3,r2
 2002dac:	01002584 	movi	r4,150
 2002db0:	20c01416 	blt	r4,r3,2002e04 <__floatsisf+0x88>
 2002db4:	20c9c83a 	sub	r4,r4,r3
 2002db8:	8120983a 	sll	r16,r16,r4
 2002dbc:	00802034 	movhi	r2,128
 2002dc0:	10bfffc4 	addi	r2,r2,-1
 2002dc4:	8809883a 	mov	r4,r17
 2002dc8:	80a0703a 	and	r16,r16,r2
 2002dcc:	18803fcc 	andi	r2,r3,255
 2002dd0:	100695fa 	slli	r3,r2,23
 2002dd4:	20803fcc 	andi	r2,r4,255
 2002dd8:	100897fa 	slli	r4,r2,31
 2002ddc:	00802034 	movhi	r2,128
 2002de0:	10bfffc4 	addi	r2,r2,-1
 2002de4:	8084703a 	and	r2,r16,r2
 2002de8:	10c4b03a 	or	r2,r2,r3
 2002dec:	1104b03a 	or	r2,r2,r4
 2002df0:	dfc00217 	ldw	ra,8(sp)
 2002df4:	dc400117 	ldw	r17,4(sp)
 2002df8:	dc000017 	ldw	r16,0(sp)
 2002dfc:	dec00304 	addi	sp,sp,12
 2002e00:	f800283a 	ret
 2002e04:	01002644 	movi	r4,153
 2002e08:	20c01c16 	blt	r4,r3,2002e7c <__floatsisf+0x100>
 2002e0c:	20c9c83a 	sub	r4,r4,r3
 2002e10:	8120983a 	sll	r16,r16,r4
 2002e14:	013f0034 	movhi	r4,64512
 2002e18:	213fffc4 	addi	r4,r4,-1
 2002e1c:	814001cc 	andi	r5,r16,7
 2002e20:	8108703a 	and	r4,r16,r4
 2002e24:	28000426 	beq	r5,zero,2002e38 <__floatsisf+0xbc>
 2002e28:	840003cc 	andi	r16,r16,15
 2002e2c:	01400104 	movi	r5,4
 2002e30:	81400126 	beq	r16,r5,2002e38 <__floatsisf+0xbc>
 2002e34:	2149883a 	add	r4,r4,r5
 2002e38:	2141002c 	andhi	r5,r4,1024
 2002e3c:	28000526 	beq	r5,zero,2002e54 <__floatsisf+0xd8>
 2002e40:	00c027c4 	movi	r3,159
 2002e44:	1887c83a 	sub	r3,r3,r2
 2002e48:	00bf0034 	movhi	r2,64512
 2002e4c:	10bfffc4 	addi	r2,r2,-1
 2002e50:	2088703a 	and	r4,r4,r2
 2002e54:	202091ba 	slli	r16,r4,6
 2002e58:	8809883a 	mov	r4,r17
 2002e5c:	8020d27a 	srli	r16,r16,9
 2002e60:	003fda06 	br	2002dcc <__floatsisf+0x50>
 2002e64:	0009883a 	mov	r4,zero
 2002e68:	0007883a 	mov	r3,zero
 2002e6c:	0021883a 	mov	r16,zero
 2002e70:	003fd606 	br	2002dcc <__floatsisf+0x50>
 2002e74:	0121c83a 	sub	r16,zero,r4
 2002e78:	003fc806 	br	2002d9c <__floatsisf+0x20>
 2002e7c:	01002e44 	movi	r4,185
 2002e80:	20c9c83a 	sub	r4,r4,r3
 2002e84:	01400144 	movi	r5,5
 2002e88:	8108983a 	sll	r4,r16,r4
 2002e8c:	288bc83a 	sub	r5,r5,r2
 2002e90:	8160d83a 	srl	r16,r16,r5
 2002e94:	2008c03a 	cmpne	r4,r4,zero
 2002e98:	8120b03a 	or	r16,r16,r4
 2002e9c:	003fdd06 	br	2002e14 <__floatsisf+0x98>

02002ea0 <__divdf3>:
 2002ea0:	defff004 	addi	sp,sp,-64
 2002ea4:	dc800815 	stw	r18,32(sp)
 2002ea8:	2824d53a 	srli	r18,r5,20
 2002eac:	dd800c15 	stw	r22,48(sp)
 2002eb0:	282cd7fa 	srli	r22,r5,31
 2002eb4:	dc000615 	stw	r16,24(sp)
 2002eb8:	04000434 	movhi	r16,16
 2002ebc:	843fffc4 	addi	r16,r16,-1
 2002ec0:	dfc00f15 	stw	ra,60(sp)
 2002ec4:	df000e15 	stw	fp,56(sp)
 2002ec8:	ddc00d15 	stw	r23,52(sp)
 2002ecc:	dd400b15 	stw	r21,44(sp)
 2002ed0:	dd000a15 	stw	r20,40(sp)
 2002ed4:	dcc00915 	stw	r19,36(sp)
 2002ed8:	dc400715 	stw	r17,28(sp)
 2002edc:	9481ffcc 	andi	r18,r18,2047
 2002ee0:	2c20703a 	and	r16,r5,r16
 2002ee4:	b2003fcc 	andi	r8,r22,255
 2002ee8:	90006126 	beq	r18,zero,2003070 <__divdf3+0x1d0>
 2002eec:	0081ffc4 	movi	r2,2047
 2002ef0:	202b883a 	mov	r21,r4
 2002ef4:	90803726 	beq	r18,r2,2002fd4 <__divdf3+0x134>
 2002ef8:	80800434 	orhi	r2,r16,16
 2002efc:	100490fa 	slli	r2,r2,3
 2002f00:	2020d77a 	srli	r16,r4,29
 2002f04:	202a90fa 	slli	r21,r4,3
 2002f08:	94bf0044 	addi	r18,r18,-1023
 2002f0c:	80a0b03a 	or	r16,r16,r2
 2002f10:	0013883a 	mov	r9,zero
 2002f14:	000b883a 	mov	r5,zero
 2002f18:	3806d53a 	srli	r3,r7,20
 2002f1c:	382ed7fa 	srli	r23,r7,31
 2002f20:	04400434 	movhi	r17,16
 2002f24:	8c7fffc4 	addi	r17,r17,-1
 2002f28:	18c1ffcc 	andi	r3,r3,2047
 2002f2c:	3029883a 	mov	r20,r6
 2002f30:	3c62703a 	and	r17,r7,r17
 2002f34:	bf003fcc 	andi	fp,r23,255
 2002f38:	18006e26 	beq	r3,zero,20030f4 <__divdf3+0x254>
 2002f3c:	0081ffc4 	movi	r2,2047
 2002f40:	18806626 	beq	r3,r2,20030dc <__divdf3+0x23c>
 2002f44:	88800434 	orhi	r2,r17,16
 2002f48:	100490fa 	slli	r2,r2,3
 2002f4c:	3022d77a 	srli	r17,r6,29
 2002f50:	302890fa 	slli	r20,r6,3
 2002f54:	18ff0044 	addi	r3,r3,-1023
 2002f58:	88a2b03a 	or	r17,r17,r2
 2002f5c:	000f883a 	mov	r7,zero
 2002f60:	b5e6f03a 	xor	r19,r22,r23
 2002f64:	3a4cb03a 	or	r6,r7,r9
 2002f68:	008003c4 	movi	r2,15
 2002f6c:	9809883a 	mov	r4,r19
 2002f70:	90c7c83a 	sub	r3,r18,r3
 2002f74:	9cc03fcc 	andi	r19,r19,255
 2002f78:	11809636 	bltu	r2,r6,20031d4 <__divdf3+0x334>
 2002f7c:	300c90ba 	slli	r6,r6,2
 2002f80:	00808034 	movhi	r2,512
 2002f84:	108be504 	addi	r2,r2,12180
 2002f88:	308d883a 	add	r6,r6,r2
 2002f8c:	30800017 	ldw	r2,0(r6)
 2002f90:	1000683a 	jmp	r2
 2002f94:	020031d4 	movui	r8,199
 2002f98:	0200300c 	andi	r8,zero,192
 2002f9c:	020031c4 	movi	r8,199
 2002fa0:	02003000 	call	200300 <__alt_mem_mem_Nios_PI+0x300>
 2002fa4:	020031c4 	movi	r8,199
 2002fa8:	02003198 	cmpnei	r8,zero,198
 2002fac:	020031c4 	movi	r8,199
 2002fb0:	02003000 	call	200300 <__alt_mem_mem_Nios_PI+0x300>
 2002fb4:	0200300c 	andi	r8,zero,192
 2002fb8:	0200300c 	andi	r8,zero,192
 2002fbc:	02003198 	cmpnei	r8,zero,198
 2002fc0:	02003000 	call	200300 <__alt_mem_mem_Nios_PI+0x300>
 2002fc4:	02002ff0 	cmpltui	r8,zero,191
 2002fc8:	02002ff0 	cmpltui	r8,zero,191
 2002fcc:	02002ff0 	cmpltui	r8,zero,191
 2002fd0:	0200355c 	xori	r8,zero,213
 2002fd4:	2404b03a 	or	r2,r4,r16
 2002fd8:	10006c1e 	bne	r2,zero,200318c <__divdf3+0x2ec>
 2002fdc:	02400204 	movi	r9,8
 2002fe0:	0021883a 	mov	r16,zero
 2002fe4:	002b883a 	mov	r21,zero
 2002fe8:	01400084 	movi	r5,2
 2002fec:	003fca06 	br	2002f18 <__divdf3+0x78>
 2002ff0:	8023883a 	mov	r17,r16
 2002ff4:	a829883a 	mov	r20,r21
 2002ff8:	4039883a 	mov	fp,r8
 2002ffc:	280f883a 	mov	r7,r5
 2003000:	00800084 	movi	r2,2
 2003004:	3881601e 	bne	r7,r2,2003588 <__divdf3+0x6e8>
 2003008:	e027883a 	mov	r19,fp
 200300c:	9900004c 	andi	r4,r19,1
 2003010:	0081ffc4 	movi	r2,2047
 2003014:	0021883a 	mov	r16,zero
 2003018:	002b883a 	mov	r21,zero
 200301c:	1004953a 	slli	r2,r2,20
 2003020:	20c03fcc 	andi	r3,r4,255
 2003024:	01400434 	movhi	r5,16
 2003028:	297fffc4 	addi	r5,r5,-1
 200302c:	180697fa 	slli	r3,r3,31
 2003030:	8160703a 	and	r16,r16,r5
 2003034:	80a0b03a 	or	r16,r16,r2
 2003038:	80c6b03a 	or	r3,r16,r3
 200303c:	a805883a 	mov	r2,r21
 2003040:	dfc00f17 	ldw	ra,60(sp)
 2003044:	df000e17 	ldw	fp,56(sp)
 2003048:	ddc00d17 	ldw	r23,52(sp)
 200304c:	dd800c17 	ldw	r22,48(sp)
 2003050:	dd400b17 	ldw	r21,44(sp)
 2003054:	dd000a17 	ldw	r20,40(sp)
 2003058:	dcc00917 	ldw	r19,36(sp)
 200305c:	dc800817 	ldw	r18,32(sp)
 2003060:	dc400717 	ldw	r17,28(sp)
 2003064:	dc000617 	ldw	r16,24(sp)
 2003068:	dec01004 	addi	sp,sp,64
 200306c:	f800283a 	ret
 2003070:	2404b03a 	or	r2,r4,r16
 2003074:	2023883a 	mov	r17,r4
 2003078:	10003f26 	beq	r2,zero,2003178 <__divdf3+0x2d8>
 200307c:	80015e26 	beq	r16,zero,20035f8 <__divdf3+0x758>
 2003080:	8009883a 	mov	r4,r16
 2003084:	d9800215 	stw	r6,8(sp)
 2003088:	d9c00515 	stw	r7,20(sp)
 200308c:	da000415 	stw	r8,16(sp)
 2003090:	20044700 	call	2004470 <__clzsi2>
 2003094:	d9800217 	ldw	r6,8(sp)
 2003098:	d9c00517 	ldw	r7,20(sp)
 200309c:	da000417 	ldw	r8,16(sp)
 20030a0:	113ffd44 	addi	r4,r2,-11
 20030a4:	00c00704 	movi	r3,28
 20030a8:	19014f16 	blt	r3,r4,20035e8 <__divdf3+0x748>
 20030ac:	00c00744 	movi	r3,29
 20030b0:	157ffe04 	addi	r21,r2,-8
 20030b4:	1907c83a 	sub	r3,r3,r4
 20030b8:	8560983a 	sll	r16,r16,r21
 20030bc:	88c6d83a 	srl	r3,r17,r3
 20030c0:	8d6a983a 	sll	r21,r17,r21
 20030c4:	1c20b03a 	or	r16,r3,r16
 20030c8:	1080fcc4 	addi	r2,r2,1011
 20030cc:	00a5c83a 	sub	r18,zero,r2
 20030d0:	0013883a 	mov	r9,zero
 20030d4:	000b883a 	mov	r5,zero
 20030d8:	003f8f06 	br	2002f18 <__divdf3+0x78>
 20030dc:	3444b03a 	or	r2,r6,r17
 20030e0:	1000231e 	bne	r2,zero,2003170 <__divdf3+0x2d0>
 20030e4:	0023883a 	mov	r17,zero
 20030e8:	0029883a 	mov	r20,zero
 20030ec:	01c00084 	movi	r7,2
 20030f0:	003f9b06 	br	2002f60 <__divdf3+0xc0>
 20030f4:	3444b03a 	or	r2,r6,r17
 20030f8:	10001926 	beq	r2,zero,2003160 <__divdf3+0x2c0>
 20030fc:	88014b26 	beq	r17,zero,200362c <__divdf3+0x78c>
 2003100:	8809883a 	mov	r4,r17
 2003104:	d9400115 	stw	r5,4(sp)
 2003108:	d9800215 	stw	r6,8(sp)
 200310c:	da000415 	stw	r8,16(sp)
 2003110:	da400315 	stw	r9,12(sp)
 2003114:	20044700 	call	2004470 <__clzsi2>
 2003118:	d9400117 	ldw	r5,4(sp)
 200311c:	d9800217 	ldw	r6,8(sp)
 2003120:	da000417 	ldw	r8,16(sp)
 2003124:	da400317 	ldw	r9,12(sp)
 2003128:	113ffd44 	addi	r4,r2,-11
 200312c:	00c00704 	movi	r3,28
 2003130:	19013a16 	blt	r3,r4,200361c <__divdf3+0x77c>
 2003134:	00c00744 	movi	r3,29
 2003138:	153ffe04 	addi	r20,r2,-8
 200313c:	1907c83a 	sub	r3,r3,r4
 2003140:	8d22983a 	sll	r17,r17,r20
 2003144:	30c6d83a 	srl	r3,r6,r3
 2003148:	3528983a 	sll	r20,r6,r20
 200314c:	1c62b03a 	or	r17,r3,r17
 2003150:	1080fcc4 	addi	r2,r2,1011
 2003154:	0087c83a 	sub	r3,zero,r2
 2003158:	000f883a 	mov	r7,zero
 200315c:	003f8006 	br	2002f60 <__divdf3+0xc0>
 2003160:	0023883a 	mov	r17,zero
 2003164:	0029883a 	mov	r20,zero
 2003168:	01c00044 	movi	r7,1
 200316c:	003f7c06 	br	2002f60 <__divdf3+0xc0>
 2003170:	01c000c4 	movi	r7,3
 2003174:	003f7a06 	br	2002f60 <__divdf3+0xc0>
 2003178:	02400104 	movi	r9,4
 200317c:	0021883a 	mov	r16,zero
 2003180:	002b883a 	mov	r21,zero
 2003184:	01400044 	movi	r5,1
 2003188:	003f6306 	br	2002f18 <__divdf3+0x78>
 200318c:	02400304 	movi	r9,12
 2003190:	014000c4 	movi	r5,3
 2003194:	003f6006 	br	2002f18 <__divdf3+0x78>
 2003198:	04000434 	movhi	r16,16
 200319c:	0009883a 	mov	r4,zero
 20031a0:	843fffc4 	addi	r16,r16,-1
 20031a4:	057fffc4 	movi	r21,-1
 20031a8:	0081ffc4 	movi	r2,2047
 20031ac:	003f9b06 	br	200301c <__divdf3+0x17c>
 20031b0:	00c00044 	movi	r3,1
 20031b4:	1887c83a 	sub	r3,r3,r2
 20031b8:	01000e04 	movi	r4,56
 20031bc:	20c1530e 	bge	r4,r3,200370c <__divdf3+0x86c>
 20031c0:	9900004c 	andi	r4,r19,1
 20031c4:	0005883a 	mov	r2,zero
 20031c8:	0021883a 	mov	r16,zero
 20031cc:	002b883a 	mov	r21,zero
 20031d0:	003f9206 	br	200301c <__divdf3+0x17c>
 20031d4:	8c012e36 	bltu	r17,r16,2003690 <__divdf3+0x7f0>
 20031d8:	84412c26 	beq	r16,r17,200368c <__divdf3+0x7ec>
 20031dc:	a82f883a 	mov	r23,r21
 20031e0:	18ffffc4 	addi	r3,r3,-1
 20031e4:	002b883a 	mov	r21,zero
 20031e8:	a004d63a 	srli	r2,r20,24
 20031ec:	8822923a 	slli	r17,r17,8
 20031f0:	a028923a 	slli	r20,r20,8
 20031f4:	8009883a 	mov	r4,r16
 20031f8:	88acb03a 	or	r22,r17,r2
 20031fc:	dd000015 	stw	r20,0(sp)
 2003200:	b028d43a 	srli	r20,r22,16
 2003204:	d8c00215 	stw	r3,8(sp)
 2003208:	b4bfffcc 	andi	r18,r22,65535
 200320c:	a00b883a 	mov	r5,r20
 2003210:	20045cc0 	call	20045cc <__udivsi3>
 2003214:	100b883a 	mov	r5,r2
 2003218:	9009883a 	mov	r4,r18
 200321c:	1023883a 	mov	r17,r2
 2003220:	20019440 	call	2001944 <__mulsi3>
 2003224:	8009883a 	mov	r4,r16
 2003228:	a00b883a 	mov	r5,r20
 200322c:	1039883a 	mov	fp,r2
 2003230:	20046300 	call	2004630 <__umodsi3>
 2003234:	1004943a 	slli	r2,r2,16
 2003238:	b808d43a 	srli	r4,r23,16
 200323c:	d8c00217 	ldw	r3,8(sp)
 2003240:	2084b03a 	or	r2,r4,r2
 2003244:	1700062e 	bgeu	r2,fp,2003260 <__divdf3+0x3c0>
 2003248:	1585883a 	add	r2,r2,r22
 200324c:	893fffc4 	addi	r4,r17,-1
 2003250:	15811d36 	bltu	r2,r22,20036c8 <__divdf3+0x828>
 2003254:	17011c2e 	bgeu	r2,fp,20036c8 <__divdf3+0x828>
 2003258:	8c7fff84 	addi	r17,r17,-2
 200325c:	1585883a 	add	r2,r2,r22
 2003260:	1739c83a 	sub	fp,r2,fp
 2003264:	a00b883a 	mov	r5,r20
 2003268:	e009883a 	mov	r4,fp
 200326c:	d8c00215 	stw	r3,8(sp)
 2003270:	20045cc0 	call	20045cc <__udivsi3>
 2003274:	100b883a 	mov	r5,r2
 2003278:	9009883a 	mov	r4,r18
 200327c:	1021883a 	mov	r16,r2
 2003280:	20019440 	call	2001944 <__mulsi3>
 2003284:	a00b883a 	mov	r5,r20
 2003288:	e009883a 	mov	r4,fp
 200328c:	d8800415 	stw	r2,16(sp)
 2003290:	20046300 	call	2004630 <__umodsi3>
 2003294:	1004943a 	slli	r2,r2,16
 2003298:	da000417 	ldw	r8,16(sp)
 200329c:	bdffffcc 	andi	r23,r23,65535
 20032a0:	b884b03a 	or	r2,r23,r2
 20032a4:	d8c00217 	ldw	r3,8(sp)
 20032a8:	1200062e 	bgeu	r2,r8,20032c4 <__divdf3+0x424>
 20032ac:	1585883a 	add	r2,r2,r22
 20032b0:	813fffc4 	addi	r4,r16,-1
 20032b4:	15810236 	bltu	r2,r22,20036c0 <__divdf3+0x820>
 20032b8:	1201012e 	bgeu	r2,r8,20036c0 <__divdf3+0x820>
 20032bc:	843fff84 	addi	r16,r16,-2
 20032c0:	1585883a 	add	r2,r2,r22
 20032c4:	8822943a 	slli	r17,r17,16
 20032c8:	d9800017 	ldw	r6,0(sp)
 20032cc:	1211c83a 	sub	r8,r2,r8
 20032d0:	8c22b03a 	or	r17,r17,r16
 20032d4:	373fffcc 	andi	fp,r6,65535
 20032d8:	8abfffcc 	andi	r10,r17,65535
 20032dc:	8820d43a 	srli	r16,r17,16
 20032e0:	5009883a 	mov	r4,r10
 20032e4:	e00b883a 	mov	r5,fp
 20032e8:	302ed43a 	srli	r23,r6,16
 20032ec:	d8c00215 	stw	r3,8(sp)
 20032f0:	da000415 	stw	r8,16(sp)
 20032f4:	da800115 	stw	r10,4(sp)
 20032f8:	20019440 	call	2001944 <__mulsi3>
 20032fc:	800b883a 	mov	r5,r16
 2003300:	e009883a 	mov	r4,fp
 2003304:	d8800515 	stw	r2,20(sp)
 2003308:	20019440 	call	2001944 <__mulsi3>
 200330c:	8009883a 	mov	r4,r16
 2003310:	b80b883a 	mov	r5,r23
 2003314:	d8800315 	stw	r2,12(sp)
 2003318:	20019440 	call	2001944 <__mulsi3>
 200331c:	da800117 	ldw	r10,4(sp)
 2003320:	b80b883a 	mov	r5,r23
 2003324:	1021883a 	mov	r16,r2
 2003328:	5009883a 	mov	r4,r10
 200332c:	20019440 	call	2001944 <__mulsi3>
 2003330:	d9c00517 	ldw	r7,20(sp)
 2003334:	da400317 	ldw	r9,12(sp)
 2003338:	d8c00217 	ldw	r3,8(sp)
 200333c:	3808d43a 	srli	r4,r7,16
 2003340:	1245883a 	add	r2,r2,r9
 2003344:	da000417 	ldw	r8,16(sp)
 2003348:	2085883a 	add	r2,r4,r2
 200334c:	1240022e 	bgeu	r2,r9,2003358 <__divdf3+0x4b8>
 2003350:	01000074 	movhi	r4,1
 2003354:	8121883a 	add	r16,r16,r4
 2003358:	1008d43a 	srli	r4,r2,16
 200335c:	1004943a 	slli	r2,r2,16
 2003360:	39ffffcc 	andi	r7,r7,65535
 2003364:	2409883a 	add	r4,r4,r16
 2003368:	11c5883a 	add	r2,r2,r7
 200336c:	4100bb36 	bltu	r8,r4,200365c <__divdf3+0x7bc>
 2003370:	4100d726 	beq	r8,r4,20036d0 <__divdf3+0x830>
 2003374:	4109c83a 	sub	r4,r8,r4
 2003378:	a8a1c83a 	sub	r16,r21,r2
 200337c:	ac2b803a 	cmpltu	r21,r21,r16
 2003380:	256bc83a 	sub	r21,r4,r21
 2003384:	b540d926 	beq	r22,r21,20036ec <__divdf3+0x84c>
 2003388:	a00b883a 	mov	r5,r20
 200338c:	a809883a 	mov	r4,r21
 2003390:	d8c00215 	stw	r3,8(sp)
 2003394:	20045cc0 	call	20045cc <__udivsi3>
 2003398:	100b883a 	mov	r5,r2
 200339c:	9009883a 	mov	r4,r18
 20033a0:	d8800515 	stw	r2,20(sp)
 20033a4:	20019440 	call	2001944 <__mulsi3>
 20033a8:	a809883a 	mov	r4,r21
 20033ac:	a00b883a 	mov	r5,r20
 20033b0:	d8800415 	stw	r2,16(sp)
 20033b4:	20046300 	call	2004630 <__umodsi3>
 20033b8:	1004943a 	slli	r2,r2,16
 20033bc:	8008d43a 	srli	r4,r16,16
 20033c0:	da000417 	ldw	r8,16(sp)
 20033c4:	d8c00217 	ldw	r3,8(sp)
 20033c8:	2084b03a 	or	r2,r4,r2
 20033cc:	d9c00517 	ldw	r7,20(sp)
 20033d0:	1200062e 	bgeu	r2,r8,20033ec <__divdf3+0x54c>
 20033d4:	1585883a 	add	r2,r2,r22
 20033d8:	393fffc4 	addi	r4,r7,-1
 20033dc:	1580c536 	bltu	r2,r22,20036f4 <__divdf3+0x854>
 20033e0:	1200c42e 	bgeu	r2,r8,20036f4 <__divdf3+0x854>
 20033e4:	39ffff84 	addi	r7,r7,-2
 20033e8:	1585883a 	add	r2,r2,r22
 20033ec:	122bc83a 	sub	r21,r2,r8
 20033f0:	a00b883a 	mov	r5,r20
 20033f4:	a809883a 	mov	r4,r21
 20033f8:	d8c00215 	stw	r3,8(sp)
 20033fc:	d9c00515 	stw	r7,20(sp)
 2003400:	20045cc0 	call	20045cc <__udivsi3>
 2003404:	9009883a 	mov	r4,r18
 2003408:	100b883a 	mov	r5,r2
 200340c:	d8800415 	stw	r2,16(sp)
 2003410:	20019440 	call	2001944 <__mulsi3>
 2003414:	a809883a 	mov	r4,r21
 2003418:	a00b883a 	mov	r5,r20
 200341c:	1025883a 	mov	r18,r2
 2003420:	20046300 	call	2004630 <__umodsi3>
 2003424:	1004943a 	slli	r2,r2,16
 2003428:	813fffcc 	andi	r4,r16,65535
 200342c:	d8c00217 	ldw	r3,8(sp)
 2003430:	20a0b03a 	or	r16,r4,r2
 2003434:	d9c00517 	ldw	r7,20(sp)
 2003438:	da000417 	ldw	r8,16(sp)
 200343c:	8480062e 	bgeu	r16,r18,2003458 <__divdf3+0x5b8>
 2003440:	85a1883a 	add	r16,r16,r22
 2003444:	40bfffc4 	addi	r2,r8,-1
 2003448:	8580ac36 	bltu	r16,r22,20036fc <__divdf3+0x85c>
 200344c:	8480ab2e 	bgeu	r16,r18,20036fc <__divdf3+0x85c>
 2003450:	423fff84 	addi	r8,r8,-2
 2003454:	85a1883a 	add	r16,r16,r22
 2003458:	3804943a 	slli	r2,r7,16
 200345c:	84a1c83a 	sub	r16,r16,r18
 2003460:	e009883a 	mov	r4,fp
 2003464:	1228b03a 	or	r20,r2,r8
 2003468:	a1ffffcc 	andi	r7,r20,65535
 200346c:	a024d43a 	srli	r18,r20,16
 2003470:	380b883a 	mov	r5,r7
 2003474:	d8c00215 	stw	r3,8(sp)
 2003478:	d9c00515 	stw	r7,20(sp)
 200347c:	20019440 	call	2001944 <__mulsi3>
 2003480:	900b883a 	mov	r5,r18
 2003484:	e009883a 	mov	r4,fp
 2003488:	102b883a 	mov	r21,r2
 200348c:	20019440 	call	2001944 <__mulsi3>
 2003490:	900b883a 	mov	r5,r18
 2003494:	b809883a 	mov	r4,r23
 2003498:	1039883a 	mov	fp,r2
 200349c:	20019440 	call	2001944 <__mulsi3>
 20034a0:	d9c00517 	ldw	r7,20(sp)
 20034a4:	b80b883a 	mov	r5,r23
 20034a8:	1025883a 	mov	r18,r2
 20034ac:	3809883a 	mov	r4,r7
 20034b0:	20019440 	call	2001944 <__mulsi3>
 20034b4:	a808d43a 	srli	r4,r21,16
 20034b8:	1705883a 	add	r2,r2,fp
 20034bc:	d8c00217 	ldw	r3,8(sp)
 20034c0:	2085883a 	add	r2,r4,r2
 20034c4:	1700022e 	bgeu	r2,fp,20034d0 <__divdf3+0x630>
 20034c8:	01000074 	movhi	r4,1
 20034cc:	9125883a 	add	r18,r18,r4
 20034d0:	1008d43a 	srli	r4,r2,16
 20034d4:	1004943a 	slli	r2,r2,16
 20034d8:	ad7fffcc 	andi	r21,r21,65535
 20034dc:	2489883a 	add	r4,r4,r18
 20034e0:	1545883a 	add	r2,r2,r21
 20034e4:	81003836 	bltu	r16,r4,20035c8 <__divdf3+0x728>
 20034e8:	81003626 	beq	r16,r4,20035c4 <__divdf3+0x724>
 20034ec:	a5000054 	ori	r20,r20,1
 20034f0:	1880ffc4 	addi	r2,r3,1023
 20034f4:	00bf2e0e 	bge	zero,r2,20031b0 <__divdf3+0x310>
 20034f8:	a10001cc 	andi	r4,r20,7
 20034fc:	20000726 	beq	r4,zero,200351c <__divdf3+0x67c>
 2003500:	a10003cc 	andi	r4,r20,15
 2003504:	01400104 	movi	r5,4
 2003508:	21400426 	beq	r4,r5,200351c <__divdf3+0x67c>
 200350c:	a149883a 	add	r4,r20,r5
 2003510:	2529803a 	cmpltu	r20,r4,r20
 2003514:	8d23883a 	add	r17,r17,r20
 2003518:	2029883a 	mov	r20,r4
 200351c:	8900402c 	andhi	r4,r17,256
 2003520:	20000426 	beq	r4,zero,2003534 <__divdf3+0x694>
 2003524:	18810004 	addi	r2,r3,1024
 2003528:	00ffc034 	movhi	r3,65280
 200352c:	18ffffc4 	addi	r3,r3,-1
 2003530:	88e2703a 	and	r17,r17,r3
 2003534:	00c1ff84 	movi	r3,2046
 2003538:	18beb416 	blt	r3,r2,200300c <__divdf3+0x16c>
 200353c:	a028d0fa 	srli	r20,r20,3
 2003540:	882a977a 	slli	r21,r17,29
 2003544:	8820927a 	slli	r16,r17,9
 2003548:	1081ffcc 	andi	r2,r2,2047
 200354c:	ad2ab03a 	or	r21,r21,r20
 2003550:	8020d33a 	srli	r16,r16,12
 2003554:	9900004c 	andi	r4,r19,1
 2003558:	003eb006 	br	200301c <__divdf3+0x17c>
 200355c:	8080022c 	andhi	r2,r16,8
 2003560:	10001226 	beq	r2,zero,20035ac <__divdf3+0x70c>
 2003564:	8880022c 	andhi	r2,r17,8
 2003568:	1000101e 	bne	r2,zero,20035ac <__divdf3+0x70c>
 200356c:	00800434 	movhi	r2,16
 2003570:	8c000234 	orhi	r16,r17,8
 2003574:	10bfffc4 	addi	r2,r2,-1
 2003578:	b809883a 	mov	r4,r23
 200357c:	80a0703a 	and	r16,r16,r2
 2003580:	a02b883a 	mov	r21,r20
 2003584:	003f0806 	br	20031a8 <__divdf3+0x308>
 2003588:	008000c4 	movi	r2,3
 200358c:	3880b126 	beq	r7,r2,2003854 <__divdf3+0x9b4>
 2003590:	00800044 	movi	r2,1
 2003594:	38805b1e 	bne	r7,r2,2003704 <__divdf3+0x864>
 2003598:	e009883a 	mov	r4,fp
 200359c:	0005883a 	mov	r2,zero
 20035a0:	0021883a 	mov	r16,zero
 20035a4:	002b883a 	mov	r21,zero
 20035a8:	003e9c06 	br	200301c <__divdf3+0x17c>
 20035ac:	00800434 	movhi	r2,16
 20035b0:	84000234 	orhi	r16,r16,8
 20035b4:	10bfffc4 	addi	r2,r2,-1
 20035b8:	b009883a 	mov	r4,r22
 20035bc:	80a0703a 	and	r16,r16,r2
 20035c0:	003ef906 	br	20031a8 <__divdf3+0x308>
 20035c4:	103fca26 	beq	r2,zero,20034f0 <__divdf3+0x650>
 20035c8:	b421883a 	add	r16,r22,r16
 20035cc:	a17fffc4 	addi	r5,r20,-1
 20035d0:	8580422e 	bgeu	r16,r22,20036dc <__divdf3+0x83c>
 20035d4:	2829883a 	mov	r20,r5
 20035d8:	813fc41e 	bne	r16,r4,20034ec <__divdf3+0x64c>
 20035dc:	d9800017 	ldw	r6,0(sp)
 20035e0:	30bfc21e 	bne	r6,r2,20034ec <__divdf3+0x64c>
 20035e4:	003fc206 	br	20034f0 <__divdf3+0x650>
 20035e8:	143ff604 	addi	r16,r2,-40
 20035ec:	8c20983a 	sll	r16,r17,r16
 20035f0:	002b883a 	mov	r21,zero
 20035f4:	003eb406 	br	20030c8 <__divdf3+0x228>
 20035f8:	d9800215 	stw	r6,8(sp)
 20035fc:	d9c00515 	stw	r7,20(sp)
 2003600:	da000415 	stw	r8,16(sp)
 2003604:	20044700 	call	2004470 <__clzsi2>
 2003608:	10800804 	addi	r2,r2,32
 200360c:	da000417 	ldw	r8,16(sp)
 2003610:	d9c00517 	ldw	r7,20(sp)
 2003614:	d9800217 	ldw	r6,8(sp)
 2003618:	003ea106 	br	20030a0 <__divdf3+0x200>
 200361c:	147ff604 	addi	r17,r2,-40
 2003620:	3462983a 	sll	r17,r6,r17
 2003624:	0029883a 	mov	r20,zero
 2003628:	003ec906 	br	2003150 <__divdf3+0x2b0>
 200362c:	3009883a 	mov	r4,r6
 2003630:	d9400115 	stw	r5,4(sp)
 2003634:	d9800215 	stw	r6,8(sp)
 2003638:	da000415 	stw	r8,16(sp)
 200363c:	da400315 	stw	r9,12(sp)
 2003640:	20044700 	call	2004470 <__clzsi2>
 2003644:	10800804 	addi	r2,r2,32
 2003648:	da400317 	ldw	r9,12(sp)
 200364c:	da000417 	ldw	r8,16(sp)
 2003650:	d9800217 	ldw	r6,8(sp)
 2003654:	d9400117 	ldw	r5,4(sp)
 2003658:	003eb306 	br	2003128 <__divdf3+0x288>
 200365c:	d9800017 	ldw	r6,0(sp)
 2003660:	a9ab883a 	add	r21,r21,r6
 2003664:	a98b803a 	cmpltu	r5,r21,r6
 2003668:	2d8b883a 	add	r5,r5,r22
 200366c:	2a11883a 	add	r8,r5,r8
 2003670:	897fffc4 	addi	r5,r17,-1
 2003674:	b2000c2e 	bgeu	r22,r8,20036a8 <__divdf3+0x808>
 2003678:	41003f36 	bltu	r8,r4,2003778 <__divdf3+0x8d8>
 200367c:	22006c26 	beq	r4,r8,2003830 <__divdf3+0x990>
 2003680:	4109c83a 	sub	r4,r8,r4
 2003684:	2823883a 	mov	r17,r5
 2003688:	003f3b06 	br	2003378 <__divdf3+0x4d8>
 200368c:	ad3ed336 	bltu	r21,r20,20031dc <__divdf3+0x33c>
 2003690:	a804d07a 	srli	r2,r21,1
 2003694:	802e97fa 	slli	r23,r16,31
 2003698:	a82a97fa 	slli	r21,r21,31
 200369c:	8020d07a 	srli	r16,r16,1
 20036a0:	b8aeb03a 	or	r23,r23,r2
 20036a4:	003ed006 	br	20031e8 <__divdf3+0x348>
 20036a8:	b23ff51e 	bne	r22,r8,2003680 <__divdf3+0x7e0>
 20036ac:	d9800017 	ldw	r6,0(sp)
 20036b0:	a9bff12e 	bgeu	r21,r6,2003678 <__divdf3+0x7d8>
 20036b4:	b109c83a 	sub	r4,r22,r4
 20036b8:	2823883a 	mov	r17,r5
 20036bc:	003f2e06 	br	2003378 <__divdf3+0x4d8>
 20036c0:	2021883a 	mov	r16,r4
 20036c4:	003eff06 	br	20032c4 <__divdf3+0x424>
 20036c8:	2023883a 	mov	r17,r4
 20036cc:	003ee406 	br	2003260 <__divdf3+0x3c0>
 20036d0:	a8bfe236 	bltu	r21,r2,200365c <__divdf3+0x7bc>
 20036d4:	0009883a 	mov	r4,zero
 20036d8:	003f2706 	br	2003378 <__divdf3+0x4d8>
 20036dc:	81002d36 	bltu	r16,r4,2003794 <__divdf3+0x8f4>
 20036e0:	24005626 	beq	r4,r16,200383c <__divdf3+0x99c>
 20036e4:	2829883a 	mov	r20,r5
 20036e8:	003f8006 	br	20034ec <__divdf3+0x64c>
 20036ec:	053fffc4 	movi	r20,-1
 20036f0:	003f7f06 	br	20034f0 <__divdf3+0x650>
 20036f4:	200f883a 	mov	r7,r4
 20036f8:	003f3c06 	br	20033ec <__divdf3+0x54c>
 20036fc:	1011883a 	mov	r8,r2
 2003700:	003f5506 	br	2003458 <__divdf3+0x5b8>
 2003704:	e027883a 	mov	r19,fp
 2003708:	003f7906 	br	20034f0 <__divdf3+0x650>
 200370c:	010007c4 	movi	r4,31
 2003710:	20c02816 	blt	r4,r3,20037b4 <__divdf3+0x914>
 2003714:	00800804 	movi	r2,32
 2003718:	10c5c83a 	sub	r2,r2,r3
 200371c:	888a983a 	sll	r5,r17,r2
 2003720:	a0c8d83a 	srl	r4,r20,r3
 2003724:	a084983a 	sll	r2,r20,r2
 2003728:	88e2d83a 	srl	r17,r17,r3
 200372c:	2906b03a 	or	r3,r5,r4
 2003730:	1004c03a 	cmpne	r2,r2,zero
 2003734:	1886b03a 	or	r3,r3,r2
 2003738:	188001cc 	andi	r2,r3,7
 200373c:	10000726 	beq	r2,zero,200375c <__divdf3+0x8bc>
 2003740:	188003cc 	andi	r2,r3,15
 2003744:	01000104 	movi	r4,4
 2003748:	11000426 	beq	r2,r4,200375c <__divdf3+0x8bc>
 200374c:	1805883a 	mov	r2,r3
 2003750:	10c00104 	addi	r3,r2,4
 2003754:	1885803a 	cmpltu	r2,r3,r2
 2003758:	88a3883a 	add	r17,r17,r2
 200375c:	8880202c 	andhi	r2,r17,128
 2003760:	10002926 	beq	r2,zero,2003808 <__divdf3+0x968>
 2003764:	9900004c 	andi	r4,r19,1
 2003768:	00800044 	movi	r2,1
 200376c:	0021883a 	mov	r16,zero
 2003770:	002b883a 	mov	r21,zero
 2003774:	003e2906 	br	200301c <__divdf3+0x17c>
 2003778:	d9800017 	ldw	r6,0(sp)
 200377c:	8c7fff84 	addi	r17,r17,-2
 2003780:	a9ab883a 	add	r21,r21,r6
 2003784:	a98b803a 	cmpltu	r5,r21,r6
 2003788:	2d8b883a 	add	r5,r5,r22
 200378c:	2a11883a 	add	r8,r5,r8
 2003790:	003ef806 	br	2003374 <__divdf3+0x4d4>
 2003794:	d9800017 	ldw	r6,0(sp)
 2003798:	318f883a 	add	r7,r6,r6
 200379c:	398b803a 	cmpltu	r5,r7,r6
 20037a0:	2d8d883a 	add	r6,r5,r22
 20037a4:	81a1883a 	add	r16,r16,r6
 20037a8:	a17fff84 	addi	r5,r20,-2
 20037ac:	d9c00015 	stw	r7,0(sp)
 20037b0:	003f8806 	br	20035d4 <__divdf3+0x734>
 20037b4:	013ff844 	movi	r4,-31
 20037b8:	2085c83a 	sub	r2,r4,r2
 20037bc:	8888d83a 	srl	r4,r17,r2
 20037c0:	00800804 	movi	r2,32
 20037c4:	18802126 	beq	r3,r2,200384c <__divdf3+0x9ac>
 20037c8:	04001004 	movi	r16,64
 20037cc:	80c7c83a 	sub	r3,r16,r3
 20037d0:	88e0983a 	sll	r16,r17,r3
 20037d4:	8504b03a 	or	r2,r16,r20
 20037d8:	1004c03a 	cmpne	r2,r2,zero
 20037dc:	2084b03a 	or	r2,r4,r2
 20037e0:	144001cc 	andi	r17,r2,7
 20037e4:	88000d1e 	bne	r17,zero,200381c <__divdf3+0x97c>
 20037e8:	0021883a 	mov	r16,zero
 20037ec:	102ad0fa 	srli	r21,r2,3
 20037f0:	9900004c 	andi	r4,r19,1
 20037f4:	0005883a 	mov	r2,zero
 20037f8:	ac6ab03a 	or	r21,r21,r17
 20037fc:	003e0706 	br	200301c <__divdf3+0x17c>
 2003800:	1007883a 	mov	r3,r2
 2003804:	0023883a 	mov	r17,zero
 2003808:	8820927a 	slli	r16,r17,9
 200380c:	1805883a 	mov	r2,r3
 2003810:	8822977a 	slli	r17,r17,29
 2003814:	8020d33a 	srli	r16,r16,12
 2003818:	003ff406 	br	20037ec <__divdf3+0x94c>
 200381c:	10c003cc 	andi	r3,r2,15
 2003820:	01000104 	movi	r4,4
 2003824:	193ff626 	beq	r3,r4,2003800 <__divdf3+0x960>
 2003828:	0023883a 	mov	r17,zero
 200382c:	003fc806 	br	2003750 <__divdf3+0x8b0>
 2003830:	a8bfd136 	bltu	r21,r2,2003778 <__divdf3+0x8d8>
 2003834:	2823883a 	mov	r17,r5
 2003838:	003fa606 	br	20036d4 <__divdf3+0x834>
 200383c:	d9800017 	ldw	r6,0(sp)
 2003840:	30bfd436 	bltu	r6,r2,2003794 <__divdf3+0x8f4>
 2003844:	2829883a 	mov	r20,r5
 2003848:	003f6406 	br	20035dc <__divdf3+0x73c>
 200384c:	0021883a 	mov	r16,zero
 2003850:	003fe006 	br	20037d4 <__divdf3+0x934>
 2003854:	00800434 	movhi	r2,16
 2003858:	8c000234 	orhi	r16,r17,8
 200385c:	10bfffc4 	addi	r2,r2,-1
 2003860:	e009883a 	mov	r4,fp
 2003864:	80a0703a 	and	r16,r16,r2
 2003868:	a02b883a 	mov	r21,r20
 200386c:	003e4e06 	br	20031a8 <__divdf3+0x308>

02003870 <__gedf2>:
 2003870:	2804d53a 	srli	r2,r5,20
 2003874:	3806d53a 	srli	r3,r7,20
 2003878:	02000434 	movhi	r8,16
 200387c:	423fffc4 	addi	r8,r8,-1
 2003880:	1081ffcc 	andi	r2,r2,2047
 2003884:	0241ffc4 	movi	r9,2047
 2003888:	2a14703a 	and	r10,r5,r8
 200388c:	18c1ffcc 	andi	r3,r3,2047
 2003890:	3a10703a 	and	r8,r7,r8
 2003894:	280ad7fa 	srli	r5,r5,31
 2003898:	380ed7fa 	srli	r7,r7,31
 200389c:	12401d26 	beq	r2,r9,2003914 <__gedf2+0xa4>
 20038a0:	0241ffc4 	movi	r9,2047
 20038a4:	1a401226 	beq	r3,r9,20038f0 <__gedf2+0x80>
 20038a8:	1000081e 	bne	r2,zero,20038cc <__gedf2+0x5c>
 20038ac:	2296b03a 	or	r11,r4,r10
 20038b0:	5813003a 	cmpeq	r9,r11,zero
 20038b4:	1800091e 	bne	r3,zero,20038dc <__gedf2+0x6c>
 20038b8:	3218b03a 	or	r12,r6,r8
 20038bc:	6000071e 	bne	r12,zero,20038dc <__gedf2+0x6c>
 20038c0:	0005883a 	mov	r2,zero
 20038c4:	5800101e 	bne	r11,zero,2003908 <__gedf2+0x98>
 20038c8:	f800283a 	ret
 20038cc:	18000c1e 	bne	r3,zero,2003900 <__gedf2+0x90>
 20038d0:	3212b03a 	or	r9,r6,r8
 20038d4:	48000c26 	beq	r9,zero,2003908 <__gedf2+0x98>
 20038d8:	0013883a 	mov	r9,zero
 20038dc:	39c03fcc 	andi	r7,r7,255
 20038e0:	48000826 	beq	r9,zero,2003904 <__gedf2+0x94>
 20038e4:	38000926 	beq	r7,zero,200390c <__gedf2+0x9c>
 20038e8:	00800044 	movi	r2,1
 20038ec:	f800283a 	ret
 20038f0:	3212b03a 	or	r9,r6,r8
 20038f4:	483fec26 	beq	r9,zero,20038a8 <__gedf2+0x38>
 20038f8:	00bfff84 	movi	r2,-2
 20038fc:	f800283a 	ret
 2003900:	39c03fcc 	andi	r7,r7,255
 2003904:	29c00626 	beq	r5,r7,2003920 <__gedf2+0xb0>
 2003908:	283ff726 	beq	r5,zero,20038e8 <__gedf2+0x78>
 200390c:	00bfffc4 	movi	r2,-1
 2003910:	f800283a 	ret
 2003914:	2292b03a 	or	r9,r4,r10
 2003918:	483fe126 	beq	r9,zero,20038a0 <__gedf2+0x30>
 200391c:	003ff606 	br	20038f8 <__gedf2+0x88>
 2003920:	18bff916 	blt	r3,r2,2003908 <__gedf2+0x98>
 2003924:	10c00316 	blt	r2,r3,2003934 <__gedf2+0xc4>
 2003928:	42bff736 	bltu	r8,r10,2003908 <__gedf2+0x98>
 200392c:	52000326 	beq	r10,r8,200393c <__gedf2+0xcc>
 2003930:	5200042e 	bgeu	r10,r8,2003944 <__gedf2+0xd4>
 2003934:	283fec1e 	bne	r5,zero,20038e8 <__gedf2+0x78>
 2003938:	003ff406 	br	200390c <__gedf2+0x9c>
 200393c:	313ff236 	bltu	r6,r4,2003908 <__gedf2+0x98>
 2003940:	21bffc36 	bltu	r4,r6,2003934 <__gedf2+0xc4>
 2003944:	0005883a 	mov	r2,zero
 2003948:	f800283a 	ret

0200394c <__muldf3>:
 200394c:	deffee04 	addi	sp,sp,-72
 2003950:	dd000c15 	stw	r20,48(sp)
 2003954:	2828d53a 	srli	r20,r5,20
 2003958:	ddc00f15 	stw	r23,60(sp)
 200395c:	282ed7fa 	srli	r23,r5,31
 2003960:	dc000815 	stw	r16,32(sp)
 2003964:	04000434 	movhi	r16,16
 2003968:	dcc00b15 	stw	r19,44(sp)
 200396c:	843fffc4 	addi	r16,r16,-1
 2003970:	dfc01115 	stw	ra,68(sp)
 2003974:	df001015 	stw	fp,64(sp)
 2003978:	dd800e15 	stw	r22,56(sp)
 200397c:	dd400d15 	stw	r21,52(sp)
 2003980:	dc800a15 	stw	r18,40(sp)
 2003984:	dc400915 	stw	r17,36(sp)
 2003988:	a501ffcc 	andi	r20,r20,2047
 200398c:	2c20703a 	and	r16,r5,r16
 2003990:	b827883a 	mov	r19,r23
 2003994:	ba403fcc 	andi	r9,r23,255
 2003998:	a0006026 	beq	r20,zero,2003b1c <__muldf3+0x1d0>
 200399c:	0081ffc4 	movi	r2,2047
 20039a0:	202d883a 	mov	r22,r4
 20039a4:	a0803626 	beq	r20,r2,2003a80 <__muldf3+0x134>
 20039a8:	84000434 	orhi	r16,r16,16
 20039ac:	200ad77a 	srli	r5,r4,29
 20039b0:	800490fa 	slli	r2,r16,3
 20039b4:	202c90fa 	slli	r22,r4,3
 20039b8:	a53f0044 	addi	r20,r20,-1023
 20039bc:	28a0b03a 	or	r16,r5,r2
 20039c0:	002b883a 	mov	r21,zero
 20039c4:	000b883a 	mov	r5,zero
 20039c8:	3804d53a 	srli	r2,r7,20
 20039cc:	3838d7fa 	srli	fp,r7,31
 20039d0:	04400434 	movhi	r17,16
 20039d4:	8c7fffc4 	addi	r17,r17,-1
 20039d8:	1081ffcc 	andi	r2,r2,2047
 20039dc:	3025883a 	mov	r18,r6
 20039e0:	3c62703a 	and	r17,r7,r17
 20039e4:	e2803fcc 	andi	r10,fp,255
 20039e8:	10006d26 	beq	r2,zero,2003ba0 <__muldf3+0x254>
 20039ec:	00c1ffc4 	movi	r3,2047
 20039f0:	10c06526 	beq	r2,r3,2003b88 <__muldf3+0x23c>
 20039f4:	8c400434 	orhi	r17,r17,16
 20039f8:	300ed77a 	srli	r7,r6,29
 20039fc:	880690fa 	slli	r3,r17,3
 2003a00:	302490fa 	slli	r18,r6,3
 2003a04:	10bf0044 	addi	r2,r2,-1023
 2003a08:	38e2b03a 	or	r17,r7,r3
 2003a0c:	000f883a 	mov	r7,zero
 2003a10:	a087883a 	add	r3,r20,r2
 2003a14:	010003c4 	movi	r4,15
 2003a18:	3d44b03a 	or	r2,r7,r21
 2003a1c:	e5ccf03a 	xor	r6,fp,r23
 2003a20:	1a000044 	addi	r8,r3,1
 2003a24:	20809b36 	bltu	r4,r2,2003c94 <__muldf3+0x348>
 2003a28:	100490ba 	slli	r2,r2,2
 2003a2c:	01008034 	movhi	r4,512
 2003a30:	210e9004 	addi	r4,r4,14912
 2003a34:	1105883a 	add	r2,r2,r4
 2003a38:	10800017 	ldw	r2,0(r2)
 2003a3c:	1000683a 	jmp	r2
 2003a40:	02003c94 	movui	r8,242
 2003a44:	02003aa0 	cmpeqi	r8,zero,234
 2003a48:	02003aa0 	cmpeqi	r8,zero,234
 2003a4c:	02003a9c 	xori	r8,zero,234
 2003a50:	02003c70 	cmpltui	r8,zero,241
 2003a54:	02003c70 	cmpltui	r8,zero,241
 2003a58:	02003c58 	cmpnei	r8,zero,241
 2003a5c:	02003a9c 	xori	r8,zero,234
 2003a60:	02003c70 	cmpltui	r8,zero,241
 2003a64:	02003c58 	cmpnei	r8,zero,241
 2003a68:	02003c70 	cmpltui	r8,zero,241
 2003a6c:	02003a9c 	xori	r8,zero,234
 2003a70:	02003c80 	call	2003c8 <__alt_mem_mem_Nios_PI+0x3c8>
 2003a74:	02003c80 	call	2003c8 <__alt_mem_mem_Nios_PI+0x3c8>
 2003a78:	02003c80 	call	2003c8 <__alt_mem_mem_Nios_PI+0x3c8>
 2003a7c:	02003fe0 	cmpeqi	r8,zero,255
 2003a80:	2404b03a 	or	r2,r4,r16
 2003a84:	1000711e 	bne	r2,zero,2003c4c <__muldf3+0x300>
 2003a88:	05400204 	movi	r21,8
 2003a8c:	0021883a 	mov	r16,zero
 2003a90:	002d883a 	mov	r22,zero
 2003a94:	01400084 	movi	r5,2
 2003a98:	003fcb06 	br	20039c8 <__muldf3+0x7c>
 2003a9c:	500d883a 	mov	r6,r10
 2003aa0:	00800084 	movi	r2,2
 2003aa4:	38805926 	beq	r7,r2,2003c0c <__muldf3+0x2c0>
 2003aa8:	008000c4 	movi	r2,3
 2003aac:	3881bb26 	beq	r7,r2,200419c <__muldf3+0x850>
 2003ab0:	00800044 	movi	r2,1
 2003ab4:	3881961e 	bne	r7,r2,2004110 <__muldf3+0x7c4>
 2003ab8:	3027883a 	mov	r19,r6
 2003abc:	0005883a 	mov	r2,zero
 2003ac0:	0021883a 	mov	r16,zero
 2003ac4:	002d883a 	mov	r22,zero
 2003ac8:	1004953a 	slli	r2,r2,20
 2003acc:	98c03fcc 	andi	r3,r19,255
 2003ad0:	04400434 	movhi	r17,16
 2003ad4:	8c7fffc4 	addi	r17,r17,-1
 2003ad8:	180697fa 	slli	r3,r3,31
 2003adc:	8460703a 	and	r16,r16,r17
 2003ae0:	80a0b03a 	or	r16,r16,r2
 2003ae4:	80c6b03a 	or	r3,r16,r3
 2003ae8:	b005883a 	mov	r2,r22
 2003aec:	dfc01117 	ldw	ra,68(sp)
 2003af0:	df001017 	ldw	fp,64(sp)
 2003af4:	ddc00f17 	ldw	r23,60(sp)
 2003af8:	dd800e17 	ldw	r22,56(sp)
 2003afc:	dd400d17 	ldw	r21,52(sp)
 2003b00:	dd000c17 	ldw	r20,48(sp)
 2003b04:	dcc00b17 	ldw	r19,44(sp)
 2003b08:	dc800a17 	ldw	r18,40(sp)
 2003b0c:	dc400917 	ldw	r17,36(sp)
 2003b10:	dc000817 	ldw	r16,32(sp)
 2003b14:	dec01204 	addi	sp,sp,72
 2003b18:	f800283a 	ret
 2003b1c:	2404b03a 	or	r2,r4,r16
 2003b20:	202b883a 	mov	r21,r4
 2003b24:	10004426 	beq	r2,zero,2003c38 <__muldf3+0x2ec>
 2003b28:	80015126 	beq	r16,zero,2004070 <__muldf3+0x724>
 2003b2c:	8009883a 	mov	r4,r16
 2003b30:	d9800715 	stw	r6,28(sp)
 2003b34:	d9c00215 	stw	r7,8(sp)
 2003b38:	da400415 	stw	r9,16(sp)
 2003b3c:	20044700 	call	2004470 <__clzsi2>
 2003b40:	d9800717 	ldw	r6,28(sp)
 2003b44:	d9c00217 	ldw	r7,8(sp)
 2003b48:	da400417 	ldw	r9,16(sp)
 2003b4c:	113ffd44 	addi	r4,r2,-11
 2003b50:	00c00704 	movi	r3,28
 2003b54:	19014216 	blt	r3,r4,2004060 <__muldf3+0x714>
 2003b58:	00c00744 	movi	r3,29
 2003b5c:	15bffe04 	addi	r22,r2,-8
 2003b60:	1907c83a 	sub	r3,r3,r4
 2003b64:	85a0983a 	sll	r16,r16,r22
 2003b68:	a8c6d83a 	srl	r3,r21,r3
 2003b6c:	adac983a 	sll	r22,r21,r22
 2003b70:	1c20b03a 	or	r16,r3,r16
 2003b74:	1080fcc4 	addi	r2,r2,1011
 2003b78:	00a9c83a 	sub	r20,zero,r2
 2003b7c:	002b883a 	mov	r21,zero
 2003b80:	000b883a 	mov	r5,zero
 2003b84:	003f9006 	br	20039c8 <__muldf3+0x7c>
 2003b88:	3446b03a 	or	r3,r6,r17
 2003b8c:	1800281e 	bne	r3,zero,2003c30 <__muldf3+0x2e4>
 2003b90:	0023883a 	mov	r17,zero
 2003b94:	0025883a 	mov	r18,zero
 2003b98:	01c00084 	movi	r7,2
 2003b9c:	003f9c06 	br	2003a10 <__muldf3+0xc4>
 2003ba0:	3446b03a 	or	r3,r6,r17
 2003ba4:	18001e26 	beq	r3,zero,2003c20 <__muldf3+0x2d4>
 2003ba8:	88012126 	beq	r17,zero,2004030 <__muldf3+0x6e4>
 2003bac:	8809883a 	mov	r4,r17
 2003bb0:	d9400215 	stw	r5,8(sp)
 2003bb4:	d9800715 	stw	r6,28(sp)
 2003bb8:	da400415 	stw	r9,16(sp)
 2003bbc:	da800315 	stw	r10,12(sp)
 2003bc0:	20044700 	call	2004470 <__clzsi2>
 2003bc4:	d9400217 	ldw	r5,8(sp)
 2003bc8:	d9800717 	ldw	r6,28(sp)
 2003bcc:	da400417 	ldw	r9,16(sp)
 2003bd0:	da800317 	ldw	r10,12(sp)
 2003bd4:	113ffd44 	addi	r4,r2,-11
 2003bd8:	00c00704 	movi	r3,28
 2003bdc:	19011016 	blt	r3,r4,2004020 <__muldf3+0x6d4>
 2003be0:	00c00744 	movi	r3,29
 2003be4:	14bffe04 	addi	r18,r2,-8
 2003be8:	1907c83a 	sub	r3,r3,r4
 2003bec:	8ca2983a 	sll	r17,r17,r18
 2003bf0:	30c6d83a 	srl	r3,r6,r3
 2003bf4:	34a4983a 	sll	r18,r6,r18
 2003bf8:	1c62b03a 	or	r17,r3,r17
 2003bfc:	1080fcc4 	addi	r2,r2,1011
 2003c00:	0085c83a 	sub	r2,zero,r2
 2003c04:	000f883a 	mov	r7,zero
 2003c08:	003f8106 	br	2003a10 <__muldf3+0xc4>
 2003c0c:	3027883a 	mov	r19,r6
 2003c10:	0081ffc4 	movi	r2,2047
 2003c14:	0021883a 	mov	r16,zero
 2003c18:	002d883a 	mov	r22,zero
 2003c1c:	003faa06 	br	2003ac8 <__muldf3+0x17c>
 2003c20:	0023883a 	mov	r17,zero
 2003c24:	0025883a 	mov	r18,zero
 2003c28:	01c00044 	movi	r7,1
 2003c2c:	003f7806 	br	2003a10 <__muldf3+0xc4>
 2003c30:	01c000c4 	movi	r7,3
 2003c34:	003f7606 	br	2003a10 <__muldf3+0xc4>
 2003c38:	05400104 	movi	r21,4
 2003c3c:	0021883a 	mov	r16,zero
 2003c40:	002d883a 	mov	r22,zero
 2003c44:	01400044 	movi	r5,1
 2003c48:	003f5f06 	br	20039c8 <__muldf3+0x7c>
 2003c4c:	05400304 	movi	r21,12
 2003c50:	014000c4 	movi	r5,3
 2003c54:	003f5c06 	br	20039c8 <__muldf3+0x7c>
 2003c58:	04000434 	movhi	r16,16
 2003c5c:	0027883a 	mov	r19,zero
 2003c60:	843fffc4 	addi	r16,r16,-1
 2003c64:	05bfffc4 	movi	r22,-1
 2003c68:	0081ffc4 	movi	r2,2047
 2003c6c:	003f9606 	br	2003ac8 <__muldf3+0x17c>
 2003c70:	8023883a 	mov	r17,r16
 2003c74:	b025883a 	mov	r18,r22
 2003c78:	280f883a 	mov	r7,r5
 2003c7c:	003f8806 	br	2003aa0 <__muldf3+0x154>
 2003c80:	8023883a 	mov	r17,r16
 2003c84:	b025883a 	mov	r18,r22
 2003c88:	480d883a 	mov	r6,r9
 2003c8c:	280f883a 	mov	r7,r5
 2003c90:	003f8306 	br	2003aa0 <__muldf3+0x154>
 2003c94:	b026d43a 	srli	r19,r22,16
 2003c98:	902ed43a 	srli	r23,r18,16
 2003c9c:	b5bfffcc 	andi	r22,r22,65535
 2003ca0:	94bfffcc 	andi	r18,r18,65535
 2003ca4:	b00b883a 	mov	r5,r22
 2003ca8:	9009883a 	mov	r4,r18
 2003cac:	d8c00515 	stw	r3,20(sp)
 2003cb0:	d9800715 	stw	r6,28(sp)
 2003cb4:	da000615 	stw	r8,24(sp)
 2003cb8:	20019440 	call	2001944 <__mulsi3>
 2003cbc:	980b883a 	mov	r5,r19
 2003cc0:	9009883a 	mov	r4,r18
 2003cc4:	1029883a 	mov	r20,r2
 2003cc8:	20019440 	call	2001944 <__mulsi3>
 2003ccc:	b80b883a 	mov	r5,r23
 2003cd0:	9809883a 	mov	r4,r19
 2003cd4:	102b883a 	mov	r21,r2
 2003cd8:	20019440 	call	2001944 <__mulsi3>
 2003cdc:	b809883a 	mov	r4,r23
 2003ce0:	b00b883a 	mov	r5,r22
 2003ce4:	1039883a 	mov	fp,r2
 2003ce8:	20019440 	call	2001944 <__mulsi3>
 2003cec:	a008d43a 	srli	r4,r20,16
 2003cf0:	1545883a 	add	r2,r2,r21
 2003cf4:	d8c00517 	ldw	r3,20(sp)
 2003cf8:	2085883a 	add	r2,r4,r2
 2003cfc:	d9800717 	ldw	r6,28(sp)
 2003d00:	da000617 	ldw	r8,24(sp)
 2003d04:	1540022e 	bgeu	r2,r21,2003d10 <__muldf3+0x3c4>
 2003d08:	01000074 	movhi	r4,1
 2003d0c:	e139883a 	add	fp,fp,r4
 2003d10:	100e943a 	slli	r7,r2,16
 2003d14:	1004d43a 	srli	r2,r2,16
 2003d18:	882ad43a 	srli	r21,r17,16
 2003d1c:	a53fffcc 	andi	r20,r20,65535
 2003d20:	8c7fffcc 	andi	r17,r17,65535
 2003d24:	3d29883a 	add	r20,r7,r20
 2003d28:	b00b883a 	mov	r5,r22
 2003d2c:	8809883a 	mov	r4,r17
 2003d30:	d8c00515 	stw	r3,20(sp)
 2003d34:	d9800715 	stw	r6,28(sp)
 2003d38:	da000615 	stw	r8,24(sp)
 2003d3c:	dd000115 	stw	r20,4(sp)
 2003d40:	d8800015 	stw	r2,0(sp)
 2003d44:	20019440 	call	2001944 <__mulsi3>
 2003d48:	980b883a 	mov	r5,r19
 2003d4c:	8809883a 	mov	r4,r17
 2003d50:	d8800215 	stw	r2,8(sp)
 2003d54:	20019440 	call	2001944 <__mulsi3>
 2003d58:	9809883a 	mov	r4,r19
 2003d5c:	a80b883a 	mov	r5,r21
 2003d60:	1029883a 	mov	r20,r2
 2003d64:	20019440 	call	2001944 <__mulsi3>
 2003d68:	b00b883a 	mov	r5,r22
 2003d6c:	a809883a 	mov	r4,r21
 2003d70:	d8800415 	stw	r2,16(sp)
 2003d74:	20019440 	call	2001944 <__mulsi3>
 2003d78:	d9c00217 	ldw	r7,8(sp)
 2003d7c:	1505883a 	add	r2,r2,r20
 2003d80:	d8c00517 	ldw	r3,20(sp)
 2003d84:	3826d43a 	srli	r19,r7,16
 2003d88:	d9800717 	ldw	r6,28(sp)
 2003d8c:	da000617 	ldw	r8,24(sp)
 2003d90:	9885883a 	add	r2,r19,r2
 2003d94:	da400417 	ldw	r9,16(sp)
 2003d98:	1500022e 	bgeu	r2,r20,2003da4 <__muldf3+0x458>
 2003d9c:	01000074 	movhi	r4,1
 2003da0:	4913883a 	add	r9,r9,r4
 2003da4:	1028d43a 	srli	r20,r2,16
 2003da8:	1004943a 	slli	r2,r2,16
 2003dac:	802cd43a 	srli	r22,r16,16
 2003db0:	843fffcc 	andi	r16,r16,65535
 2003db4:	3cffffcc 	andi	r19,r7,65535
 2003db8:	9009883a 	mov	r4,r18
 2003dbc:	800b883a 	mov	r5,r16
 2003dc0:	a269883a 	add	r20,r20,r9
 2003dc4:	d8c00515 	stw	r3,20(sp)
 2003dc8:	d9800715 	stw	r6,28(sp)
 2003dcc:	da000615 	stw	r8,24(sp)
 2003dd0:	14e7883a 	add	r19,r2,r19
 2003dd4:	20019440 	call	2001944 <__mulsi3>
 2003dd8:	9009883a 	mov	r4,r18
 2003ddc:	b00b883a 	mov	r5,r22
 2003de0:	d8800315 	stw	r2,12(sp)
 2003de4:	20019440 	call	2001944 <__mulsi3>
 2003de8:	b809883a 	mov	r4,r23
 2003dec:	b00b883a 	mov	r5,r22
 2003df0:	d8800215 	stw	r2,8(sp)
 2003df4:	20019440 	call	2001944 <__mulsi3>
 2003df8:	b80b883a 	mov	r5,r23
 2003dfc:	8009883a 	mov	r4,r16
 2003e00:	d8800415 	stw	r2,16(sp)
 2003e04:	20019440 	call	2001944 <__mulsi3>
 2003e08:	da800317 	ldw	r10,12(sp)
 2003e0c:	d9c00217 	ldw	r7,8(sp)
 2003e10:	d9000017 	ldw	r4,0(sp)
 2003e14:	502ed43a 	srli	r23,r10,16
 2003e18:	11c5883a 	add	r2,r2,r7
 2003e1c:	24e5883a 	add	r18,r4,r19
 2003e20:	b885883a 	add	r2,r23,r2
 2003e24:	d8c00517 	ldw	r3,20(sp)
 2003e28:	d9800717 	ldw	r6,28(sp)
 2003e2c:	da000617 	ldw	r8,24(sp)
 2003e30:	da400417 	ldw	r9,16(sp)
 2003e34:	11c0022e 	bgeu	r2,r7,2003e40 <__muldf3+0x4f4>
 2003e38:	01000074 	movhi	r4,1
 2003e3c:	4913883a 	add	r9,r9,r4
 2003e40:	100ed43a 	srli	r7,r2,16
 2003e44:	1004943a 	slli	r2,r2,16
 2003e48:	55ffffcc 	andi	r23,r10,65535
 2003e4c:	3a53883a 	add	r9,r7,r9
 2003e50:	8809883a 	mov	r4,r17
 2003e54:	800b883a 	mov	r5,r16
 2003e58:	d8c00515 	stw	r3,20(sp)
 2003e5c:	d9800715 	stw	r6,28(sp)
 2003e60:	da000615 	stw	r8,24(sp)
 2003e64:	da400415 	stw	r9,16(sp)
 2003e68:	15ef883a 	add	r23,r2,r23
 2003e6c:	20019440 	call	2001944 <__mulsi3>
 2003e70:	8809883a 	mov	r4,r17
 2003e74:	b00b883a 	mov	r5,r22
 2003e78:	d8800215 	stw	r2,8(sp)
 2003e7c:	20019440 	call	2001944 <__mulsi3>
 2003e80:	b00b883a 	mov	r5,r22
 2003e84:	a809883a 	mov	r4,r21
 2003e88:	d8800315 	stw	r2,12(sp)
 2003e8c:	20019440 	call	2001944 <__mulsi3>
 2003e90:	8009883a 	mov	r4,r16
 2003e94:	a80b883a 	mov	r5,r21
 2003e98:	1023883a 	mov	r17,r2
 2003e9c:	20019440 	call	2001944 <__mulsi3>
 2003ea0:	d9c00217 	ldw	r7,8(sp)
 2003ea4:	da800317 	ldw	r10,12(sp)
 2003ea8:	d8c00517 	ldw	r3,20(sp)
 2003eac:	3808d43a 	srli	r4,r7,16
 2003eb0:	1285883a 	add	r2,r2,r10
 2003eb4:	d9800717 	ldw	r6,28(sp)
 2003eb8:	2085883a 	add	r2,r4,r2
 2003ebc:	da000617 	ldw	r8,24(sp)
 2003ec0:	da400417 	ldw	r9,16(sp)
 2003ec4:	1280022e 	bgeu	r2,r10,2003ed0 <__muldf3+0x584>
 2003ec8:	01000074 	movhi	r4,1
 2003ecc:	8923883a 	add	r17,r17,r4
 2003ed0:	1008943a 	slli	r4,r2,16
 2003ed4:	39ffffcc 	andi	r7,r7,65535
 2003ed8:	e4b9883a 	add	fp,fp,r18
 2003edc:	21cf883a 	add	r7,r4,r7
 2003ee0:	e4e7803a 	cmpltu	r19,fp,r19
 2003ee4:	3d0f883a 	add	r7,r7,r20
 2003ee8:	bf39883a 	add	fp,r23,fp
 2003eec:	99c9883a 	add	r4,r19,r7
 2003ef0:	e5ef803a 	cmpltu	r23,fp,r23
 2003ef4:	490b883a 	add	r5,r9,r4
 2003ef8:	1004d43a 	srli	r2,r2,16
 2003efc:	b965883a 	add	r18,r23,r5
 2003f00:	24c9803a 	cmpltu	r4,r4,r19
 2003f04:	3d29803a 	cmpltu	r20,r7,r20
 2003f08:	a128b03a 	or	r20,r20,r4
 2003f0c:	95ef803a 	cmpltu	r23,r18,r23
 2003f10:	2a53803a 	cmpltu	r9,r5,r9
 2003f14:	a0a9883a 	add	r20,r20,r2
 2003f18:	4deeb03a 	or	r23,r9,r23
 2003f1c:	a5ef883a 	add	r23,r20,r23
 2003f20:	bc63883a 	add	r17,r23,r17
 2003f24:	e004927a 	slli	r2,fp,9
 2003f28:	d9000117 	ldw	r4,4(sp)
 2003f2c:	882e927a 	slli	r23,r17,9
 2003f30:	9022d5fa 	srli	r17,r18,23
 2003f34:	e038d5fa 	srli	fp,fp,23
 2003f38:	1104b03a 	or	r2,r2,r4
 2003f3c:	9024927a 	slli	r18,r18,9
 2003f40:	1004c03a 	cmpne	r2,r2,zero
 2003f44:	bc62b03a 	or	r17,r23,r17
 2003f48:	1738b03a 	or	fp,r2,fp
 2003f4c:	8880402c 	andhi	r2,r17,256
 2003f50:	e4a4b03a 	or	r18,fp,r18
 2003f54:	10000726 	beq	r2,zero,2003f74 <__muldf3+0x628>
 2003f58:	9006d07a 	srli	r3,r18,1
 2003f5c:	880497fa 	slli	r2,r17,31
 2003f60:	9480004c 	andi	r18,r18,1
 2003f64:	8822d07a 	srli	r17,r17,1
 2003f68:	1ca4b03a 	or	r18,r3,r18
 2003f6c:	14a4b03a 	or	r18,r2,r18
 2003f70:	4007883a 	mov	r3,r8
 2003f74:	1880ffc4 	addi	r2,r3,1023
 2003f78:	0080460e 	bge	zero,r2,2004094 <__muldf3+0x748>
 2003f7c:	910001cc 	andi	r4,r18,7
 2003f80:	20000726 	beq	r4,zero,2003fa0 <__muldf3+0x654>
 2003f84:	910003cc 	andi	r4,r18,15
 2003f88:	01400104 	movi	r5,4
 2003f8c:	21400426 	beq	r4,r5,2003fa0 <__muldf3+0x654>
 2003f90:	9149883a 	add	r4,r18,r5
 2003f94:	24a5803a 	cmpltu	r18,r4,r18
 2003f98:	8ca3883a 	add	r17,r17,r18
 2003f9c:	2025883a 	mov	r18,r4
 2003fa0:	8900402c 	andhi	r4,r17,256
 2003fa4:	20000426 	beq	r4,zero,2003fb8 <__muldf3+0x66c>
 2003fa8:	18810004 	addi	r2,r3,1024
 2003fac:	00ffc034 	movhi	r3,65280
 2003fb0:	18ffffc4 	addi	r3,r3,-1
 2003fb4:	88e2703a 	and	r17,r17,r3
 2003fb8:	00c1ff84 	movi	r3,2046
 2003fbc:	18bf1316 	blt	r3,r2,2003c0c <__muldf3+0x2c0>
 2003fc0:	882c977a 	slli	r22,r17,29
 2003fc4:	9024d0fa 	srli	r18,r18,3
 2003fc8:	8822927a 	slli	r17,r17,9
 2003fcc:	1081ffcc 	andi	r2,r2,2047
 2003fd0:	b4acb03a 	or	r22,r22,r18
 2003fd4:	8820d33a 	srli	r16,r17,12
 2003fd8:	3027883a 	mov	r19,r6
 2003fdc:	003eba06 	br	2003ac8 <__muldf3+0x17c>
 2003fe0:	8080022c 	andhi	r2,r16,8
 2003fe4:	10000926 	beq	r2,zero,200400c <__muldf3+0x6c0>
 2003fe8:	8880022c 	andhi	r2,r17,8
 2003fec:	1000071e 	bne	r2,zero,200400c <__muldf3+0x6c0>
 2003ff0:	00800434 	movhi	r2,16
 2003ff4:	8c000234 	orhi	r16,r17,8
 2003ff8:	10bfffc4 	addi	r2,r2,-1
 2003ffc:	e027883a 	mov	r19,fp
 2004000:	80a0703a 	and	r16,r16,r2
 2004004:	902d883a 	mov	r22,r18
 2004008:	003f1706 	br	2003c68 <__muldf3+0x31c>
 200400c:	00800434 	movhi	r2,16
 2004010:	84000234 	orhi	r16,r16,8
 2004014:	10bfffc4 	addi	r2,r2,-1
 2004018:	80a0703a 	and	r16,r16,r2
 200401c:	003f1206 	br	2003c68 <__muldf3+0x31c>
 2004020:	147ff604 	addi	r17,r2,-40
 2004024:	3462983a 	sll	r17,r6,r17
 2004028:	0025883a 	mov	r18,zero
 200402c:	003ef306 	br	2003bfc <__muldf3+0x2b0>
 2004030:	3009883a 	mov	r4,r6
 2004034:	d9400215 	stw	r5,8(sp)
 2004038:	d9800715 	stw	r6,28(sp)
 200403c:	da400415 	stw	r9,16(sp)
 2004040:	da800315 	stw	r10,12(sp)
 2004044:	20044700 	call	2004470 <__clzsi2>
 2004048:	10800804 	addi	r2,r2,32
 200404c:	da800317 	ldw	r10,12(sp)
 2004050:	da400417 	ldw	r9,16(sp)
 2004054:	d9800717 	ldw	r6,28(sp)
 2004058:	d9400217 	ldw	r5,8(sp)
 200405c:	003edd06 	br	2003bd4 <__muldf3+0x288>
 2004060:	143ff604 	addi	r16,r2,-40
 2004064:	ac20983a 	sll	r16,r21,r16
 2004068:	002d883a 	mov	r22,zero
 200406c:	003ec106 	br	2003b74 <__muldf3+0x228>
 2004070:	d9800715 	stw	r6,28(sp)
 2004074:	d9c00215 	stw	r7,8(sp)
 2004078:	da400415 	stw	r9,16(sp)
 200407c:	20044700 	call	2004470 <__clzsi2>
 2004080:	10800804 	addi	r2,r2,32
 2004084:	da400417 	ldw	r9,16(sp)
 2004088:	d9c00217 	ldw	r7,8(sp)
 200408c:	d9800717 	ldw	r6,28(sp)
 2004090:	003eae06 	br	2003b4c <__muldf3+0x200>
 2004094:	00c00044 	movi	r3,1
 2004098:	1887c83a 	sub	r3,r3,r2
 200409c:	01000e04 	movi	r4,56
 20040a0:	20fe8516 	blt	r4,r3,2003ab8 <__muldf3+0x16c>
 20040a4:	010007c4 	movi	r4,31
 20040a8:	20c01b16 	blt	r4,r3,2004118 <__muldf3+0x7cc>
 20040ac:	00800804 	movi	r2,32
 20040b0:	10c5c83a 	sub	r2,r2,r3
 20040b4:	888a983a 	sll	r5,r17,r2
 20040b8:	90c8d83a 	srl	r4,r18,r3
 20040bc:	9084983a 	sll	r2,r18,r2
 20040c0:	88e2d83a 	srl	r17,r17,r3
 20040c4:	2906b03a 	or	r3,r5,r4
 20040c8:	1004c03a 	cmpne	r2,r2,zero
 20040cc:	1886b03a 	or	r3,r3,r2
 20040d0:	188001cc 	andi	r2,r3,7
 20040d4:	10000726 	beq	r2,zero,20040f4 <__muldf3+0x7a8>
 20040d8:	188003cc 	andi	r2,r3,15
 20040dc:	01000104 	movi	r4,4
 20040e0:	11000426 	beq	r2,r4,20040f4 <__muldf3+0x7a8>
 20040e4:	1805883a 	mov	r2,r3
 20040e8:	10c00104 	addi	r3,r2,4
 20040ec:	1885803a 	cmpltu	r2,r3,r2
 20040f0:	88a3883a 	add	r17,r17,r2
 20040f4:	8880202c 	andhi	r2,r17,128
 20040f8:	10001c26 	beq	r2,zero,200416c <__muldf3+0x820>
 20040fc:	3027883a 	mov	r19,r6
 2004100:	00800044 	movi	r2,1
 2004104:	0021883a 	mov	r16,zero
 2004108:	002d883a 	mov	r22,zero
 200410c:	003e6e06 	br	2003ac8 <__muldf3+0x17c>
 2004110:	4007883a 	mov	r3,r8
 2004114:	003f9706 	br	2003f74 <__muldf3+0x628>
 2004118:	017ff844 	movi	r5,-31
 200411c:	2885c83a 	sub	r2,r5,r2
 2004120:	888ad83a 	srl	r5,r17,r2
 2004124:	00800804 	movi	r2,32
 2004128:	18801a26 	beq	r3,r2,2004194 <__muldf3+0x848>
 200412c:	01001004 	movi	r4,64
 2004130:	20c7c83a 	sub	r3,r4,r3
 2004134:	88e2983a 	sll	r17,r17,r3
 2004138:	8ca4b03a 	or	r18,r17,r18
 200413c:	9004c03a 	cmpne	r2,r18,zero
 2004140:	2884b03a 	or	r2,r5,r2
 2004144:	144001cc 	andi	r17,r2,7
 2004148:	88000d1e 	bne	r17,zero,2004180 <__muldf3+0x834>
 200414c:	0021883a 	mov	r16,zero
 2004150:	102cd0fa 	srli	r22,r2,3
 2004154:	3027883a 	mov	r19,r6
 2004158:	0005883a 	mov	r2,zero
 200415c:	b46cb03a 	or	r22,r22,r17
 2004160:	003e5906 	br	2003ac8 <__muldf3+0x17c>
 2004164:	1007883a 	mov	r3,r2
 2004168:	0023883a 	mov	r17,zero
 200416c:	8820927a 	slli	r16,r17,9
 2004170:	1805883a 	mov	r2,r3
 2004174:	8822977a 	slli	r17,r17,29
 2004178:	8020d33a 	srli	r16,r16,12
 200417c:	003ff406 	br	2004150 <__muldf3+0x804>
 2004180:	10c003cc 	andi	r3,r2,15
 2004184:	01000104 	movi	r4,4
 2004188:	193ff626 	beq	r3,r4,2004164 <__muldf3+0x818>
 200418c:	0023883a 	mov	r17,zero
 2004190:	003fd506 	br	20040e8 <__muldf3+0x79c>
 2004194:	0023883a 	mov	r17,zero
 2004198:	003fe706 	br	2004138 <__muldf3+0x7ec>
 200419c:	00800434 	movhi	r2,16
 20041a0:	8c000234 	orhi	r16,r17,8
 20041a4:	10bfffc4 	addi	r2,r2,-1
 20041a8:	3027883a 	mov	r19,r6
 20041ac:	80a0703a 	and	r16,r16,r2
 20041b0:	902d883a 	mov	r22,r18
 20041b4:	003eac06 	br	2003c68 <__muldf3+0x31c>

020041b8 <__extendsfdf2>:
 20041b8:	200ad5fa 	srli	r5,r4,23
 20041bc:	defffd04 	addi	sp,sp,-12
 20041c0:	dc400115 	stw	r17,4(sp)
 20041c4:	29403fcc 	andi	r5,r5,255
 20041c8:	29800044 	addi	r6,r5,1
 20041cc:	04402034 	movhi	r17,128
 20041d0:	dc000015 	stw	r16,0(sp)
 20041d4:	8c7fffc4 	addi	r17,r17,-1
 20041d8:	dfc00215 	stw	ra,8(sp)
 20041dc:	31803fcc 	andi	r6,r6,255
 20041e0:	00800044 	movi	r2,1
 20041e4:	8922703a 	and	r17,r17,r4
 20041e8:	2020d7fa 	srli	r16,r4,31
 20041ec:	1180110e 	bge	r2,r6,2004234 <__extendsfdf2+0x7c>
 20041f0:	880cd0fa 	srli	r6,r17,3
 20041f4:	8822977a 	slli	r17,r17,29
 20041f8:	2940e004 	addi	r5,r5,896
 20041fc:	2941ffcc 	andi	r5,r5,2047
 2004200:	2804953a 	slli	r2,r5,20
 2004204:	01400434 	movhi	r5,16
 2004208:	800697fa 	slli	r3,r16,31
 200420c:	297fffc4 	addi	r5,r5,-1
 2004210:	314a703a 	and	r5,r6,r5
 2004214:	288ab03a 	or	r5,r5,r2
 2004218:	28c6b03a 	or	r3,r5,r3
 200421c:	8805883a 	mov	r2,r17
 2004220:	dfc00217 	ldw	ra,8(sp)
 2004224:	dc400117 	ldw	r17,4(sp)
 2004228:	dc000017 	ldw	r16,0(sp)
 200422c:	dec00304 	addi	sp,sp,12
 2004230:	f800283a 	ret
 2004234:	2800111e 	bne	r5,zero,200427c <__extendsfdf2+0xc4>
 2004238:	88001c26 	beq	r17,zero,20042ac <__extendsfdf2+0xf4>
 200423c:	8809883a 	mov	r4,r17
 2004240:	20044700 	call	2004470 <__clzsi2>
 2004244:	00c00284 	movi	r3,10
 2004248:	18801b16 	blt	r3,r2,20042b8 <__extendsfdf2+0x100>
 200424c:	018002c4 	movi	r6,11
 2004250:	308dc83a 	sub	r6,r6,r2
 2004254:	11000544 	addi	r4,r2,21
 2004258:	8986d83a 	srl	r3,r17,r6
 200425c:	8922983a 	sll	r17,r17,r4
 2004260:	0180e244 	movi	r6,905
 2004264:	01400434 	movhi	r5,16
 2004268:	3085c83a 	sub	r2,r6,r2
 200426c:	297fffc4 	addi	r5,r5,-1
 2004270:	194c703a 	and	r6,r3,r5
 2004274:	1141ffcc 	andi	r5,r2,2047
 2004278:	003fe006 	br	20041fc <__extendsfdf2+0x44>
 200427c:	88000826 	beq	r17,zero,20042a0 <__extendsfdf2+0xe8>
 2004280:	880cd0fa 	srli	r6,r17,3
 2004284:	00800434 	movhi	r2,16
 2004288:	10bfffc4 	addi	r2,r2,-1
 200428c:	31800234 	orhi	r6,r6,8
 2004290:	8822977a 	slli	r17,r17,29
 2004294:	308c703a 	and	r6,r6,r2
 2004298:	0141ffc4 	movi	r5,2047
 200429c:	003fd706 	br	20041fc <__extendsfdf2+0x44>
 20042a0:	0141ffc4 	movi	r5,2047
 20042a4:	000d883a 	mov	r6,zero
 20042a8:	003fd406 	br	20041fc <__extendsfdf2+0x44>
 20042ac:	000b883a 	mov	r5,zero
 20042b0:	000d883a 	mov	r6,zero
 20042b4:	003fd106 	br	20041fc <__extendsfdf2+0x44>
 20042b8:	11bffd44 	addi	r6,r2,-11
 20042bc:	8986983a 	sll	r3,r17,r6
 20042c0:	0023883a 	mov	r17,zero
 20042c4:	003fe606 	br	2004260 <__extendsfdf2+0xa8>

020042c8 <__truncdfsf2>:
 20042c8:	2810d53a 	srli	r8,r5,20
 20042cc:	01c00434 	movhi	r7,16
 20042d0:	39ffffc4 	addi	r7,r7,-1
 20042d4:	29ce703a 	and	r7,r5,r7
 20042d8:	4201ffcc 	andi	r8,r8,2047
 20042dc:	380e90fa 	slli	r7,r7,3
 20042e0:	200cd77a 	srli	r6,r4,29
 20042e4:	42400044 	addi	r9,r8,1
 20042e8:	4a41ffcc 	andi	r9,r9,2047
 20042ec:	00c00044 	movi	r3,1
 20042f0:	280ad7fa 	srli	r5,r5,31
 20042f4:	31ceb03a 	or	r7,r6,r7
 20042f8:	200490fa 	slli	r2,r4,3
 20042fc:	1a40230e 	bge	r3,r9,200438c <__truncdfsf2+0xc4>
 2004300:	40ff2004 	addi	r3,r8,-896
 2004304:	01803f84 	movi	r6,254
 2004308:	30c01516 	blt	r6,r3,2004360 <__truncdfsf2+0x98>
 200430c:	00c0380e 	bge	zero,r3,20043f0 <__truncdfsf2+0x128>
 2004310:	200c91ba 	slli	r6,r4,6
 2004314:	380e90fa 	slli	r7,r7,3
 2004318:	1004d77a 	srli	r2,r2,29
 200431c:	300cc03a 	cmpne	r6,r6,zero
 2004320:	31ccb03a 	or	r6,r6,r7
 2004324:	308cb03a 	or	r6,r6,r2
 2004328:	308001cc 	andi	r2,r6,7
 200432c:	10000426 	beq	r2,zero,2004340 <__truncdfsf2+0x78>
 2004330:	308003cc 	andi	r2,r6,15
 2004334:	01000104 	movi	r4,4
 2004338:	11000126 	beq	r2,r4,2004340 <__truncdfsf2+0x78>
 200433c:	31800104 	addi	r6,r6,4
 2004340:	3081002c 	andhi	r2,r6,1024
 2004344:	10001626 	beq	r2,zero,20043a0 <__truncdfsf2+0xd8>
 2004348:	18c00044 	addi	r3,r3,1
 200434c:	00803fc4 	movi	r2,255
 2004350:	18800326 	beq	r3,r2,2004360 <__truncdfsf2+0x98>
 2004354:	300c91ba 	slli	r6,r6,6
 2004358:	300cd27a 	srli	r6,r6,9
 200435c:	00000206 	br	2004368 <__truncdfsf2+0xa0>
 2004360:	00ffffc4 	movi	r3,-1
 2004364:	000d883a 	mov	r6,zero
 2004368:	18c03fcc 	andi	r3,r3,255
 200436c:	180895fa 	slli	r4,r3,23
 2004370:	00c02034 	movhi	r3,128
 2004374:	280a97fa 	slli	r5,r5,31
 2004378:	18ffffc4 	addi	r3,r3,-1
 200437c:	30c6703a 	and	r3,r6,r3
 2004380:	1906b03a 	or	r3,r3,r4
 2004384:	1944b03a 	or	r2,r3,r5
 2004388:	f800283a 	ret
 200438c:	40000b1e 	bne	r8,zero,20043bc <__truncdfsf2+0xf4>
 2004390:	388cb03a 	or	r6,r7,r2
 2004394:	0007883a 	mov	r3,zero
 2004398:	30000426 	beq	r6,zero,20043ac <__truncdfsf2+0xe4>
 200439c:	01800144 	movi	r6,5
 20043a0:	00803fc4 	movi	r2,255
 20043a4:	300cd0fa 	srli	r6,r6,3
 20043a8:	18800a26 	beq	r3,r2,20043d4 <__truncdfsf2+0x10c>
 20043ac:	00802034 	movhi	r2,128
 20043b0:	10bfffc4 	addi	r2,r2,-1
 20043b4:	308c703a 	and	r6,r6,r2
 20043b8:	003feb06 	br	2004368 <__truncdfsf2+0xa0>
 20043bc:	3888b03a 	or	r4,r7,r2
 20043c0:	203fe726 	beq	r4,zero,2004360 <__truncdfsf2+0x98>
 20043c4:	380c90fa 	slli	r6,r7,3
 20043c8:	00c03fc4 	movi	r3,255
 20043cc:	31808034 	orhi	r6,r6,512
 20043d0:	003fd506 	br	2004328 <__truncdfsf2+0x60>
 20043d4:	303fe226 	beq	r6,zero,2004360 <__truncdfsf2+0x98>
 20043d8:	00802034 	movhi	r2,128
 20043dc:	31801034 	orhi	r6,r6,64
 20043e0:	10bfffc4 	addi	r2,r2,-1
 20043e4:	00ffffc4 	movi	r3,-1
 20043e8:	308c703a 	and	r6,r6,r2
 20043ec:	003fde06 	br	2004368 <__truncdfsf2+0xa0>
 20043f0:	013ffa44 	movi	r4,-23
 20043f4:	19000e16 	blt	r3,r4,2004430 <__truncdfsf2+0x168>
 20043f8:	01000784 	movi	r4,30
 20043fc:	20c9c83a 	sub	r4,r4,r3
 2004400:	018007c4 	movi	r6,31
 2004404:	39c02034 	orhi	r7,r7,128
 2004408:	31000b16 	blt	r6,r4,2004438 <__truncdfsf2+0x170>
 200440c:	423f2084 	addi	r8,r8,-894
 2004410:	120c983a 	sll	r6,r2,r8
 2004414:	3a0e983a 	sll	r7,r7,r8
 2004418:	1104d83a 	srl	r2,r2,r4
 200441c:	300cc03a 	cmpne	r6,r6,zero
 2004420:	31ceb03a 	or	r7,r6,r7
 2004424:	388cb03a 	or	r6,r7,r2
 2004428:	0007883a 	mov	r3,zero
 200442c:	003fbe06 	br	2004328 <__truncdfsf2+0x60>
 2004430:	0007883a 	mov	r3,zero
 2004434:	003fd906 	br	200439c <__truncdfsf2+0xd4>
 2004438:	01bfff84 	movi	r6,-2
 200443c:	30cdc83a 	sub	r6,r6,r3
 2004440:	00c00804 	movi	r3,32
 2004444:	398cd83a 	srl	r6,r7,r6
 2004448:	20c00726 	beq	r4,r3,2004468 <__truncdfsf2+0x1a0>
 200444c:	423f2884 	addi	r8,r8,-862
 2004450:	3a0e983a 	sll	r7,r7,r8
 2004454:	3884b03a 	or	r2,r7,r2
 2004458:	1004c03a 	cmpne	r2,r2,zero
 200445c:	118cb03a 	or	r6,r2,r6
 2004460:	0007883a 	mov	r3,zero
 2004464:	003fb006 	br	2004328 <__truncdfsf2+0x60>
 2004468:	000f883a 	mov	r7,zero
 200446c:	003ff906 	br	2004454 <__truncdfsf2+0x18c>

02004470 <__clzsi2>:
 2004470:	00bfffd4 	movui	r2,65535
 2004474:	11000536 	bltu	r2,r4,200448c <__clzsi2+0x1c>
 2004478:	00803fc4 	movi	r2,255
 200447c:	11000f36 	bltu	r2,r4,20044bc <__clzsi2+0x4c>
 2004480:	00800804 	movi	r2,32
 2004484:	0007883a 	mov	r3,zero
 2004488:	00000506 	br	20044a0 <__clzsi2+0x30>
 200448c:	00804034 	movhi	r2,256
 2004490:	10bfffc4 	addi	r2,r2,-1
 2004494:	11000c2e 	bgeu	r2,r4,20044c8 <__clzsi2+0x58>
 2004498:	00800204 	movi	r2,8
 200449c:	00c00604 	movi	r3,24
 20044a0:	20c8d83a 	srl	r4,r4,r3
 20044a4:	00c080b4 	movhi	r3,514
 20044a8:	18ed5084 	addi	r3,r3,-19134
 20044ac:	1909883a 	add	r4,r3,r4
 20044b0:	20c00003 	ldbu	r3,0(r4)
 20044b4:	10c5c83a 	sub	r2,r2,r3
 20044b8:	f800283a 	ret
 20044bc:	00800604 	movi	r2,24
 20044c0:	00c00204 	movi	r3,8
 20044c4:	003ff606 	br	20044a0 <__clzsi2+0x30>
 20044c8:	00800404 	movi	r2,16
 20044cc:	1007883a 	mov	r3,r2
 20044d0:	003ff306 	br	20044a0 <__clzsi2+0x30>

020044d4 <__divsi3>:
 20044d4:	20001b16 	blt	r4,zero,2004544 <__divsi3+0x70>
 20044d8:	000f883a 	mov	r7,zero
 20044dc:	28001616 	blt	r5,zero,2004538 <__divsi3+0x64>
 20044e0:	200d883a 	mov	r6,r4
 20044e4:	29001a2e 	bgeu	r5,r4,2004550 <__divsi3+0x7c>
 20044e8:	00800804 	movi	r2,32
 20044ec:	00c00044 	movi	r3,1
 20044f0:	00000106 	br	20044f8 <__divsi3+0x24>
 20044f4:	10000d26 	beq	r2,zero,200452c <__divsi3+0x58>
 20044f8:	294b883a 	add	r5,r5,r5
 20044fc:	10bfffc4 	addi	r2,r2,-1
 2004500:	18c7883a 	add	r3,r3,r3
 2004504:	293ffb36 	bltu	r5,r4,20044f4 <__divsi3+0x20>
 2004508:	0005883a 	mov	r2,zero
 200450c:	18000726 	beq	r3,zero,200452c <__divsi3+0x58>
 2004510:	0005883a 	mov	r2,zero
 2004514:	31400236 	bltu	r6,r5,2004520 <__divsi3+0x4c>
 2004518:	314dc83a 	sub	r6,r6,r5
 200451c:	10c4b03a 	or	r2,r2,r3
 2004520:	1806d07a 	srli	r3,r3,1
 2004524:	280ad07a 	srli	r5,r5,1
 2004528:	183ffa1e 	bne	r3,zero,2004514 <__divsi3+0x40>
 200452c:	38000126 	beq	r7,zero,2004534 <__divsi3+0x60>
 2004530:	0085c83a 	sub	r2,zero,r2
 2004534:	f800283a 	ret
 2004538:	014bc83a 	sub	r5,zero,r5
 200453c:	39c0005c 	xori	r7,r7,1
 2004540:	003fe706 	br	20044e0 <__divsi3+0xc>
 2004544:	0109c83a 	sub	r4,zero,r4
 2004548:	01c00044 	movi	r7,1
 200454c:	003fe306 	br	20044dc <__divsi3+0x8>
 2004550:	00c00044 	movi	r3,1
 2004554:	003fee06 	br	2004510 <__divsi3+0x3c>

02004558 <__modsi3>:
 2004558:	20001716 	blt	r4,zero,20045b8 <__modsi3+0x60>
 200455c:	000f883a 	mov	r7,zero
 2004560:	2005883a 	mov	r2,r4
 2004564:	28001216 	blt	r5,zero,20045b0 <__modsi3+0x58>
 2004568:	2900162e 	bgeu	r5,r4,20045c4 <__modsi3+0x6c>
 200456c:	01800804 	movi	r6,32
 2004570:	00c00044 	movi	r3,1
 2004574:	00000106 	br	200457c <__modsi3+0x24>
 2004578:	30000a26 	beq	r6,zero,20045a4 <__modsi3+0x4c>
 200457c:	294b883a 	add	r5,r5,r5
 2004580:	31bfffc4 	addi	r6,r6,-1
 2004584:	18c7883a 	add	r3,r3,r3
 2004588:	293ffb36 	bltu	r5,r4,2004578 <__modsi3+0x20>
 200458c:	18000526 	beq	r3,zero,20045a4 <__modsi3+0x4c>
 2004590:	1806d07a 	srli	r3,r3,1
 2004594:	11400136 	bltu	r2,r5,200459c <__modsi3+0x44>
 2004598:	1145c83a 	sub	r2,r2,r5
 200459c:	280ad07a 	srli	r5,r5,1
 20045a0:	183ffb1e 	bne	r3,zero,2004590 <__modsi3+0x38>
 20045a4:	38000126 	beq	r7,zero,20045ac <__modsi3+0x54>
 20045a8:	0085c83a 	sub	r2,zero,r2
 20045ac:	f800283a 	ret
 20045b0:	014bc83a 	sub	r5,zero,r5
 20045b4:	003fec06 	br	2004568 <__modsi3+0x10>
 20045b8:	0109c83a 	sub	r4,zero,r4
 20045bc:	01c00044 	movi	r7,1
 20045c0:	003fe706 	br	2004560 <__modsi3+0x8>
 20045c4:	00c00044 	movi	r3,1
 20045c8:	003ff106 	br	2004590 <__modsi3+0x38>

020045cc <__udivsi3>:
 20045cc:	200d883a 	mov	r6,r4
 20045d0:	2900152e 	bgeu	r5,r4,2004628 <__udivsi3+0x5c>
 20045d4:	28001416 	blt	r5,zero,2004628 <__udivsi3+0x5c>
 20045d8:	00800804 	movi	r2,32
 20045dc:	00c00044 	movi	r3,1
 20045e0:	00000206 	br	20045ec <__udivsi3+0x20>
 20045e4:	10000e26 	beq	r2,zero,2004620 <__udivsi3+0x54>
 20045e8:	28000516 	blt	r5,zero,2004600 <__udivsi3+0x34>
 20045ec:	294b883a 	add	r5,r5,r5
 20045f0:	10bfffc4 	addi	r2,r2,-1
 20045f4:	18c7883a 	add	r3,r3,r3
 20045f8:	293ffa36 	bltu	r5,r4,20045e4 <__udivsi3+0x18>
 20045fc:	18000826 	beq	r3,zero,2004620 <__udivsi3+0x54>
 2004600:	0005883a 	mov	r2,zero
 2004604:	31400236 	bltu	r6,r5,2004610 <__udivsi3+0x44>
 2004608:	314dc83a 	sub	r6,r6,r5
 200460c:	10c4b03a 	or	r2,r2,r3
 2004610:	1806d07a 	srli	r3,r3,1
 2004614:	280ad07a 	srli	r5,r5,1
 2004618:	183ffa1e 	bne	r3,zero,2004604 <__udivsi3+0x38>
 200461c:	f800283a 	ret
 2004620:	0005883a 	mov	r2,zero
 2004624:	f800283a 	ret
 2004628:	00c00044 	movi	r3,1
 200462c:	003ff406 	br	2004600 <__udivsi3+0x34>

02004630 <__umodsi3>:
 2004630:	2005883a 	mov	r2,r4
 2004634:	2900122e 	bgeu	r5,r4,2004680 <__umodsi3+0x50>
 2004638:	28001116 	blt	r5,zero,2004680 <__umodsi3+0x50>
 200463c:	01800804 	movi	r6,32
 2004640:	00c00044 	movi	r3,1
 2004644:	00000206 	br	2004650 <__umodsi3+0x20>
 2004648:	30000c26 	beq	r6,zero,200467c <__umodsi3+0x4c>
 200464c:	28000516 	blt	r5,zero,2004664 <__umodsi3+0x34>
 2004650:	294b883a 	add	r5,r5,r5
 2004654:	31bfffc4 	addi	r6,r6,-1
 2004658:	18c7883a 	add	r3,r3,r3
 200465c:	293ffa36 	bltu	r5,r4,2004648 <__umodsi3+0x18>
 2004660:	18000626 	beq	r3,zero,200467c <__umodsi3+0x4c>
 2004664:	1806d07a 	srli	r3,r3,1
 2004668:	11400136 	bltu	r2,r5,2004670 <__umodsi3+0x40>
 200466c:	1145c83a 	sub	r2,r2,r5
 2004670:	280ad07a 	srli	r5,r5,1
 2004674:	183ffb1e 	bne	r3,zero,2004664 <__umodsi3+0x34>
 2004678:	f800283a 	ret
 200467c:	f800283a 	ret
 2004680:	00c00044 	movi	r3,1
 2004684:	003ff706 	br	2004664 <__umodsi3+0x34>

02004688 <__errno>:
 2004688:	008080b4 	movhi	r2,514
 200468c:	10b50804 	addi	r2,r2,-11232
 2004690:	10800017 	ldw	r2,0(r2)
 2004694:	f800283a 	ret

02004698 <_printf_r>:
 2004698:	defffd04 	addi	sp,sp,-12
 200469c:	2805883a 	mov	r2,r5
 20046a0:	dfc00015 	stw	ra,0(sp)
 20046a4:	d9800115 	stw	r6,4(sp)
 20046a8:	d9c00215 	stw	r7,8(sp)
 20046ac:	21400217 	ldw	r5,8(r4)
 20046b0:	d9c00104 	addi	r7,sp,4
 20046b4:	100d883a 	mov	r6,r2
 20046b8:	20048700 	call	2004870 <___vfprintf_internal_r>
 20046bc:	dfc00017 	ldw	ra,0(sp)
 20046c0:	dec00304 	addi	sp,sp,12
 20046c4:	f800283a 	ret

020046c8 <printf>:
 20046c8:	defffc04 	addi	sp,sp,-16
 20046cc:	dfc00015 	stw	ra,0(sp)
 20046d0:	d9400115 	stw	r5,4(sp)
 20046d4:	d9800215 	stw	r6,8(sp)
 20046d8:	d9c00315 	stw	r7,12(sp)
 20046dc:	008080b4 	movhi	r2,514
 20046e0:	10b50804 	addi	r2,r2,-11232
 20046e4:	10800017 	ldw	r2,0(r2)
 20046e8:	200b883a 	mov	r5,r4
 20046ec:	d9800104 	addi	r6,sp,4
 20046f0:	11000217 	ldw	r4,8(r2)
 20046f4:	2006b4c0 	call	2006b4c <__vfprintf_internal>
 20046f8:	dfc00017 	ldw	ra,0(sp)
 20046fc:	dec00404 	addi	sp,sp,16
 2004700:	f800283a 	ret

02004704 <_puts_r>:
 2004704:	defff604 	addi	sp,sp,-40
 2004708:	dc000715 	stw	r16,28(sp)
 200470c:	2021883a 	mov	r16,r4
 2004710:	2809883a 	mov	r4,r5
 2004714:	dc400815 	stw	r17,32(sp)
 2004718:	dfc00915 	stw	ra,36(sp)
 200471c:	2823883a 	mov	r17,r5
 2004720:	20047d80 	call	20047d8 <strlen>
 2004724:	10c00044 	addi	r3,r2,1
 2004728:	d8800115 	stw	r2,4(sp)
 200472c:	008080b4 	movhi	r2,514
 2004730:	10ad9204 	addi	r2,r2,-18872
 2004734:	d8800215 	stw	r2,8(sp)
 2004738:	00800044 	movi	r2,1
 200473c:	d8800315 	stw	r2,12(sp)
 2004740:	00800084 	movi	r2,2
 2004744:	dc400015 	stw	r17,0(sp)
 2004748:	d8c00615 	stw	r3,24(sp)
 200474c:	dec00415 	stw	sp,16(sp)
 2004750:	d8800515 	stw	r2,20(sp)
 2004754:	80000226 	beq	r16,zero,2004760 <_puts_r+0x5c>
 2004758:	80800e17 	ldw	r2,56(r16)
 200475c:	10001426 	beq	r2,zero,20047b0 <_puts_r+0xac>
 2004760:	81400217 	ldw	r5,8(r16)
 2004764:	2880030b 	ldhu	r2,12(r5)
 2004768:	10c8000c 	andi	r3,r2,8192
 200476c:	1800061e 	bne	r3,zero,2004788 <_puts_r+0x84>
 2004770:	29001917 	ldw	r4,100(r5)
 2004774:	00f7ffc4 	movi	r3,-8193
 2004778:	10880014 	ori	r2,r2,8192
 200477c:	20c6703a 	and	r3,r4,r3
 2004780:	2880030d 	sth	r2,12(r5)
 2004784:	28c01915 	stw	r3,100(r5)
 2004788:	d9800404 	addi	r6,sp,16
 200478c:	8009883a 	mov	r4,r16
 2004790:	20090b40 	call	20090b4 <__sfvwrite_r>
 2004794:	1000091e 	bne	r2,zero,20047bc <_puts_r+0xb8>
 2004798:	00800284 	movi	r2,10
 200479c:	dfc00917 	ldw	ra,36(sp)
 20047a0:	dc400817 	ldw	r17,32(sp)
 20047a4:	dc000717 	ldw	r16,28(sp)
 20047a8:	dec00a04 	addi	sp,sp,40
 20047ac:	f800283a 	ret
 20047b0:	8009883a 	mov	r4,r16
 20047b4:	2008c300 	call	2008c30 <__sinit>
 20047b8:	003fe906 	br	2004760 <_puts_r+0x5c>
 20047bc:	00bfffc4 	movi	r2,-1
 20047c0:	003ff606 	br	200479c <_puts_r+0x98>

020047c4 <puts>:
 20047c4:	008080b4 	movhi	r2,514
 20047c8:	10b50804 	addi	r2,r2,-11232
 20047cc:	200b883a 	mov	r5,r4
 20047d0:	11000017 	ldw	r4,0(r2)
 20047d4:	20047041 	jmpi	2004704 <_puts_r>

020047d8 <strlen>:
 20047d8:	208000cc 	andi	r2,r4,3
 20047dc:	10002026 	beq	r2,zero,2004860 <strlen+0x88>
 20047e0:	20800007 	ldb	r2,0(r4)
 20047e4:	10002026 	beq	r2,zero,2004868 <strlen+0x90>
 20047e8:	2005883a 	mov	r2,r4
 20047ec:	00000206 	br	20047f8 <strlen+0x20>
 20047f0:	10c00007 	ldb	r3,0(r2)
 20047f4:	18001826 	beq	r3,zero,2004858 <strlen+0x80>
 20047f8:	10800044 	addi	r2,r2,1
 20047fc:	10c000cc 	andi	r3,r2,3
 2004800:	183ffb1e 	bne	r3,zero,20047f0 <strlen+0x18>
 2004804:	10c00017 	ldw	r3,0(r2)
 2004808:	01ffbff4 	movhi	r7,65279
 200480c:	39ffbfc4 	addi	r7,r7,-257
 2004810:	00ca303a 	nor	r5,zero,r3
 2004814:	01a02074 	movhi	r6,32897
 2004818:	19c7883a 	add	r3,r3,r7
 200481c:	31a02004 	addi	r6,r6,-32640
 2004820:	1946703a 	and	r3,r3,r5
 2004824:	1986703a 	and	r3,r3,r6
 2004828:	1800091e 	bne	r3,zero,2004850 <strlen+0x78>
 200482c:	10800104 	addi	r2,r2,4
 2004830:	10c00017 	ldw	r3,0(r2)
 2004834:	19cb883a 	add	r5,r3,r7
 2004838:	00c6303a 	nor	r3,zero,r3
 200483c:	28c6703a 	and	r3,r5,r3
 2004840:	1986703a 	and	r3,r3,r6
 2004844:	183ff926 	beq	r3,zero,200482c <strlen+0x54>
 2004848:	00000106 	br	2004850 <strlen+0x78>
 200484c:	10800044 	addi	r2,r2,1
 2004850:	10c00007 	ldb	r3,0(r2)
 2004854:	183ffd1e 	bne	r3,zero,200484c <strlen+0x74>
 2004858:	1105c83a 	sub	r2,r2,r4
 200485c:	f800283a 	ret
 2004860:	2005883a 	mov	r2,r4
 2004864:	003fe706 	br	2004804 <strlen+0x2c>
 2004868:	0005883a 	mov	r2,zero
 200486c:	f800283a 	ret

02004870 <___vfprintf_internal_r>:
 2004870:	deffb804 	addi	sp,sp,-288
 2004874:	dfc04715 	stw	ra,284(sp)
 2004878:	ddc04515 	stw	r23,276(sp)
 200487c:	dd404315 	stw	r21,268(sp)
 2004880:	d9002d15 	stw	r4,180(sp)
 2004884:	282f883a 	mov	r23,r5
 2004888:	302b883a 	mov	r21,r6
 200488c:	d9c02e15 	stw	r7,184(sp)
 2004890:	df004615 	stw	fp,280(sp)
 2004894:	dd804415 	stw	r22,272(sp)
 2004898:	dd004215 	stw	r20,264(sp)
 200489c:	dcc04115 	stw	r19,260(sp)
 20048a0:	dc804015 	stw	r18,256(sp)
 20048a4:	dc403f15 	stw	r17,252(sp)
 20048a8:	dc003e15 	stw	r16,248(sp)
 20048ac:	20097b00 	call	20097b0 <_localeconv_r>
 20048b0:	10800017 	ldw	r2,0(r2)
 20048b4:	1009883a 	mov	r4,r2
 20048b8:	d8803415 	stw	r2,208(sp)
 20048bc:	20047d80 	call	20047d8 <strlen>
 20048c0:	d8803715 	stw	r2,220(sp)
 20048c4:	d8802d17 	ldw	r2,180(sp)
 20048c8:	10000226 	beq	r2,zero,20048d4 <___vfprintf_internal_r+0x64>
 20048cc:	10800e17 	ldw	r2,56(r2)
 20048d0:	1000fb26 	beq	r2,zero,2004cc0 <___vfprintf_internal_r+0x450>
 20048d4:	b880030b 	ldhu	r2,12(r23)
 20048d8:	10c8000c 	andi	r3,r2,8192
 20048dc:	1800061e 	bne	r3,zero,20048f8 <___vfprintf_internal_r+0x88>
 20048e0:	b9001917 	ldw	r4,100(r23)
 20048e4:	00f7ffc4 	movi	r3,-8193
 20048e8:	10880014 	ori	r2,r2,8192
 20048ec:	20c6703a 	and	r3,r4,r3
 20048f0:	b880030d 	sth	r2,12(r23)
 20048f4:	b8c01915 	stw	r3,100(r23)
 20048f8:	10c0020c 	andi	r3,r2,8
 20048fc:	1800c326 	beq	r3,zero,2004c0c <___vfprintf_internal_r+0x39c>
 2004900:	b8c00417 	ldw	r3,16(r23)
 2004904:	1800c126 	beq	r3,zero,2004c0c <___vfprintf_internal_r+0x39c>
 2004908:	1080068c 	andi	r2,r2,26
 200490c:	00c00284 	movi	r3,10
 2004910:	10c0c626 	beq	r2,r3,2004c2c <___vfprintf_internal_r+0x3bc>
 2004914:	d8c00404 	addi	r3,sp,16
 2004918:	050080b4 	movhi	r20,514
 200491c:	d9001e04 	addi	r4,sp,120
 2004920:	a52da384 	addi	r20,r20,-18802
 2004924:	d8c01e15 	stw	r3,120(sp)
 2004928:	d8002015 	stw	zero,128(sp)
 200492c:	d8001f15 	stw	zero,124(sp)
 2004930:	d8003315 	stw	zero,204(sp)
 2004934:	d8003615 	stw	zero,216(sp)
 2004938:	d8003815 	stw	zero,224(sp)
 200493c:	1811883a 	mov	r8,r3
 2004940:	d8003915 	stw	zero,228(sp)
 2004944:	d8003a15 	stw	zero,232(sp)
 2004948:	d8002f15 	stw	zero,188(sp)
 200494c:	d9002815 	stw	r4,160(sp)
 2004950:	a8800007 	ldb	r2,0(r21)
 2004954:	10028b26 	beq	r2,zero,2005384 <___vfprintf_internal_r+0xb14>
 2004958:	00c00944 	movi	r3,37
 200495c:	a823883a 	mov	r17,r21
 2004960:	10c0021e 	bne	r2,r3,200496c <___vfprintf_internal_r+0xfc>
 2004964:	00001406 	br	20049b8 <___vfprintf_internal_r+0x148>
 2004968:	10c00326 	beq	r2,r3,2004978 <___vfprintf_internal_r+0x108>
 200496c:	8c400044 	addi	r17,r17,1
 2004970:	88800007 	ldb	r2,0(r17)
 2004974:	103ffc1e 	bne	r2,zero,2004968 <___vfprintf_internal_r+0xf8>
 2004978:	8d61c83a 	sub	r16,r17,r21
 200497c:	80000e26 	beq	r16,zero,20049b8 <___vfprintf_internal_r+0x148>
 2004980:	d8c02017 	ldw	r3,128(sp)
 2004984:	d8801f17 	ldw	r2,124(sp)
 2004988:	45400015 	stw	r21,0(r8)
 200498c:	1c07883a 	add	r3,r3,r16
 2004990:	10800044 	addi	r2,r2,1
 2004994:	d8c02015 	stw	r3,128(sp)
 2004998:	44000115 	stw	r16,4(r8)
 200499c:	d8801f15 	stw	r2,124(sp)
 20049a0:	00c001c4 	movi	r3,7
 20049a4:	1880a916 	blt	r3,r2,2004c4c <___vfprintf_internal_r+0x3dc>
 20049a8:	42000204 	addi	r8,r8,8
 20049ac:	d9402f17 	ldw	r5,188(sp)
 20049b0:	2c0b883a 	add	r5,r5,r16
 20049b4:	d9402f15 	stw	r5,188(sp)
 20049b8:	88800007 	ldb	r2,0(r17)
 20049bc:	1000aa26 	beq	r2,zero,2004c68 <___vfprintf_internal_r+0x3f8>
 20049c0:	8d400044 	addi	r21,r17,1
 20049c4:	8c400047 	ldb	r17,1(r17)
 20049c8:	0021883a 	mov	r16,zero
 20049cc:	00bfffc4 	movi	r2,-1
 20049d0:	0025883a 	mov	r18,zero
 20049d4:	dc002905 	stb	r16,164(sp)
 20049d8:	d8002785 	stb	zero,158(sp)
 20049dc:	d8002b05 	stb	zero,172(sp)
 20049e0:	d8802a15 	stw	r2,168(sp)
 20049e4:	d8003115 	stw	zero,196(sp)
 20049e8:	04c01604 	movi	r19,88
 20049ec:	05800244 	movi	r22,9
 20049f0:	9021883a 	mov	r16,r18
 20049f4:	4039883a 	mov	fp,r8
 20049f8:	ad400044 	addi	r21,r21,1
 20049fc:	88bff804 	addi	r2,r17,-32
 2004a00:	98833236 	bltu	r19,r2,20056cc <___vfprintf_internal_r+0xe5c>
 2004a04:	100490ba 	slli	r2,r2,2
 2004a08:	00c08034 	movhi	r3,512
 2004a0c:	18d28704 	addi	r3,r3,18972
 2004a10:	10c5883a 	add	r2,r2,r3
 2004a14:	10800017 	ldw	r2,0(r2)
 2004a18:	1000683a 	jmp	r2
 2004a1c:	020055c4 	movi	r8,343
 2004a20:	020056cc 	andi	r8,zero,347
 2004a24:	020056cc 	andi	r8,zero,347
 2004a28:	020055e4 	muli	r8,zero,343
 2004a2c:	020056cc 	andi	r8,zero,347
 2004a30:	020056cc 	andi	r8,zero,347
 2004a34:	020056cc 	andi	r8,zero,347
 2004a38:	020056cc 	andi	r8,zero,347
 2004a3c:	020056cc 	andi	r8,zero,347
 2004a40:	020056cc 	andi	r8,zero,347
 2004a44:	02004ccc 	andi	r8,zero,307
 2004a48:	020054d4 	movui	r8,339
 2004a4c:	020056cc 	andi	r8,zero,347
 2004a50:	02004b90 	cmplti	r8,zero,302
 2004a54:	02004cf0 	cmpltui	r8,zero,307
 2004a58:	020056cc 	andi	r8,zero,347
 2004a5c:	02004d40 	call	2004d4 <__alt_mem_mem_Nios_PI+0x4d4>
 2004a60:	02004d4c 	andi	r8,zero,309
 2004a64:	02004d4c 	andi	r8,zero,309
 2004a68:	02004d4c 	andi	r8,zero,309
 2004a6c:	02004d4c 	andi	r8,zero,309
 2004a70:	02004d4c 	andi	r8,zero,309
 2004a74:	02004d4c 	andi	r8,zero,309
 2004a78:	02004d4c 	andi	r8,zero,309
 2004a7c:	02004d4c 	andi	r8,zero,309
 2004a80:	02004d4c 	andi	r8,zero,309
 2004a84:	020056cc 	andi	r8,zero,347
 2004a88:	020056cc 	andi	r8,zero,347
 2004a8c:	020056cc 	andi	r8,zero,347
 2004a90:	020056cc 	andi	r8,zero,347
 2004a94:	020056cc 	andi	r8,zero,347
 2004a98:	020056cc 	andi	r8,zero,347
 2004a9c:	020056cc 	andi	r8,zero,347
 2004aa0:	020056cc 	andi	r8,zero,347
 2004aa4:	020056cc 	andi	r8,zero,347
 2004aa8:	020056cc 	andi	r8,zero,347
 2004aac:	02004d88 	cmpgei	r8,zero,310
 2004ab0:	02004e50 	cmplti	r8,zero,313
 2004ab4:	020056cc 	andi	r8,zero,347
 2004ab8:	02004e50 	cmplti	r8,zero,313
 2004abc:	020056cc 	andi	r8,zero,347
 2004ac0:	020056cc 	andi	r8,zero,347
 2004ac4:	020056cc 	andi	r8,zero,347
 2004ac8:	020056cc 	andi	r8,zero,347
 2004acc:	02004efc 	xorhi	r8,zero,315
 2004ad0:	020056cc 	andi	r8,zero,347
 2004ad4:	020056cc 	andi	r8,zero,347
 2004ad8:	02004f08 	cmpgei	r8,zero,316
 2004adc:	020056cc 	andi	r8,zero,347
 2004ae0:	020056cc 	andi	r8,zero,347
 2004ae4:	020056cc 	andi	r8,zero,347
 2004ae8:	020056cc 	andi	r8,zero,347
 2004aec:	020056cc 	andi	r8,zero,347
 2004af0:	0200538c 	andi	r8,zero,334
 2004af4:	020056cc 	andi	r8,zero,347
 2004af8:	020056cc 	andi	r8,zero,347
 2004afc:	020053f8 	rdprs	r8,zero,335
 2004b00:	020056cc 	andi	r8,zero,347
 2004b04:	020056cc 	andi	r8,zero,347
 2004b08:	020056cc 	andi	r8,zero,347
 2004b0c:	020056cc 	andi	r8,zero,347
 2004b10:	020056cc 	andi	r8,zero,347
 2004b14:	020056cc 	andi	r8,zero,347
 2004b18:	020056cc 	andi	r8,zero,347
 2004b1c:	020056cc 	andi	r8,zero,347
 2004b20:	020056cc 	andi	r8,zero,347
 2004b24:	020056cc 	andi	r8,zero,347
 2004b28:	02005670 	cmpltui	r8,zero,345
 2004b2c:	020055f0 	cmpltui	r8,zero,343
 2004b30:	02004e50 	cmplti	r8,zero,313
 2004b34:	02004e50 	cmplti	r8,zero,313
 2004b38:	02004e50 	cmplti	r8,zero,313
 2004b3c:	02005610 	cmplti	r8,zero,344
 2004b40:	020055f0 	cmpltui	r8,zero,343
 2004b44:	020056cc 	andi	r8,zero,347
 2004b48:	020056cc 	andi	r8,zero,347
 2004b4c:	0200561c 	xori	r8,zero,344
 2004b50:	020056cc 	andi	r8,zero,347
 2004b54:	02005630 	cmpltui	r8,zero,344
 2004b58:	020054b4 	movhi	r8,338
 2004b5c:	02004b9c 	xori	r8,zero,302
 2004b60:	020054ec 	andhi	r8,zero,339
 2004b64:	020056cc 	andi	r8,zero,347
 2004b68:	020054f8 	rdprs	r8,zero,339
 2004b6c:	020056cc 	andi	r8,zero,347
 2004b70:	0200555c 	xori	r8,zero,341
 2004b74:	020056cc 	andi	r8,zero,347
 2004b78:	020056cc 	andi	r8,zero,347
 2004b7c:	0200557c 	xorhi	r8,zero,341
 2004b80:	d8c03117 	ldw	r3,196(sp)
 2004b84:	d8802e15 	stw	r2,184(sp)
 2004b88:	00c7c83a 	sub	r3,zero,r3
 2004b8c:	d8c03115 	stw	r3,196(sp)
 2004b90:	84000114 	ori	r16,r16,4
 2004b94:	ac400007 	ldb	r17,0(r21)
 2004b98:	003f9706 	br	20049f8 <___vfprintf_internal_r+0x188>
 2004b9c:	00800c04 	movi	r2,48
 2004ba0:	d8802705 	stb	r2,156(sp)
 2004ba4:	00801e04 	movi	r2,120
 2004ba8:	d8802745 	stb	r2,157(sp)
 2004bac:	d9002a17 	ldw	r4,168(sp)
 2004bb0:	d8802e17 	ldw	r2,184(sp)
 2004bb4:	d8002785 	stb	zero,158(sp)
 2004bb8:	e011883a 	mov	r8,fp
 2004bbc:	10c00104 	addi	r3,r2,4
 2004bc0:	14c00017 	ldw	r19,0(r2)
 2004bc4:	002d883a 	mov	r22,zero
 2004bc8:	80800094 	ori	r2,r16,2
 2004bcc:	2002ca16 	blt	r4,zero,20056f8 <___vfprintf_internal_r+0xe88>
 2004bd0:	00bfdfc4 	movi	r2,-129
 2004bd4:	80a4703a 	and	r18,r16,r2
 2004bd8:	d8c02e15 	stw	r3,184(sp)
 2004bdc:	94800094 	ori	r18,r18,2
 2004be0:	9802b41e 	bne	r19,zero,20056b4 <___vfprintf_internal_r+0xe44>
 2004be4:	014080b4 	movhi	r5,514
 2004be8:	296d9c04 	addi	r5,r5,-18832
 2004bec:	d9403915 	stw	r5,228(sp)
 2004bf0:	04401e04 	movi	r17,120
 2004bf4:	d8802a17 	ldw	r2,168(sp)
 2004bf8:	0039883a 	mov	fp,zero
 2004bfc:	1001fa26 	beq	r2,zero,20053e8 <___vfprintf_internal_r+0xb78>
 2004c00:	0027883a 	mov	r19,zero
 2004c04:	002d883a 	mov	r22,zero
 2004c08:	00021906 	br	2005470 <___vfprintf_internal_r+0xc00>
 2004c0c:	d9002d17 	ldw	r4,180(sp)
 2004c10:	b80b883a 	mov	r5,r23
 2004c14:	2006c240 	call	2006c24 <__swsetup_r>
 2004c18:	1005dc1e 	bne	r2,zero,200638c <___vfprintf_internal_r+0x1b1c>
 2004c1c:	b880030b 	ldhu	r2,12(r23)
 2004c20:	00c00284 	movi	r3,10
 2004c24:	1080068c 	andi	r2,r2,26
 2004c28:	10ff3a1e 	bne	r2,r3,2004914 <___vfprintf_internal_r+0xa4>
 2004c2c:	b880038f 	ldh	r2,14(r23)
 2004c30:	103f3816 	blt	r2,zero,2004914 <___vfprintf_internal_r+0xa4>
 2004c34:	d9c02e17 	ldw	r7,184(sp)
 2004c38:	d9002d17 	ldw	r4,180(sp)
 2004c3c:	a80d883a 	mov	r6,r21
 2004c40:	b80b883a 	mov	r5,r23
 2004c44:	2006b680 	call	2006b68 <__sbprintf>
 2004c48:	00001106 	br	2004c90 <___vfprintf_internal_r+0x420>
 2004c4c:	d9002d17 	ldw	r4,180(sp)
 2004c50:	d9801e04 	addi	r6,sp,120
 2004c54:	b80b883a 	mov	r5,r23
 2004c58:	200c0500 	call	200c050 <__sprint_r>
 2004c5c:	1000081e 	bne	r2,zero,2004c80 <___vfprintf_internal_r+0x410>
 2004c60:	da000404 	addi	r8,sp,16
 2004c64:	003f5106 	br	20049ac <___vfprintf_internal_r+0x13c>
 2004c68:	d8802017 	ldw	r2,128(sp)
 2004c6c:	10000426 	beq	r2,zero,2004c80 <___vfprintf_internal_r+0x410>
 2004c70:	d9002d17 	ldw	r4,180(sp)
 2004c74:	d9801e04 	addi	r6,sp,120
 2004c78:	b80b883a 	mov	r5,r23
 2004c7c:	200c0500 	call	200c050 <__sprint_r>
 2004c80:	b880030b 	ldhu	r2,12(r23)
 2004c84:	1080100c 	andi	r2,r2,64
 2004c88:	1005c01e 	bne	r2,zero,200638c <___vfprintf_internal_r+0x1b1c>
 2004c8c:	d8802f17 	ldw	r2,188(sp)
 2004c90:	dfc04717 	ldw	ra,284(sp)
 2004c94:	df004617 	ldw	fp,280(sp)
 2004c98:	ddc04517 	ldw	r23,276(sp)
 2004c9c:	dd804417 	ldw	r22,272(sp)
 2004ca0:	dd404317 	ldw	r21,268(sp)
 2004ca4:	dd004217 	ldw	r20,264(sp)
 2004ca8:	dcc04117 	ldw	r19,260(sp)
 2004cac:	dc804017 	ldw	r18,256(sp)
 2004cb0:	dc403f17 	ldw	r17,252(sp)
 2004cb4:	dc003e17 	ldw	r16,248(sp)
 2004cb8:	dec04804 	addi	sp,sp,288
 2004cbc:	f800283a 	ret
 2004cc0:	d9002d17 	ldw	r4,180(sp)
 2004cc4:	2008c300 	call	2008c30 <__sinit>
 2004cc8:	003f0206 	br	20048d4 <___vfprintf_internal_r+0x64>
 2004ccc:	d9002e17 	ldw	r4,184(sp)
 2004cd0:	d9402e17 	ldw	r5,184(sp)
 2004cd4:	21000017 	ldw	r4,0(r4)
 2004cd8:	28800104 	addi	r2,r5,4
 2004cdc:	d9003115 	stw	r4,196(sp)
 2004ce0:	203fa716 	blt	r4,zero,2004b80 <___vfprintf_internal_r+0x310>
 2004ce4:	d8802e15 	stw	r2,184(sp)
 2004ce8:	ac400007 	ldb	r17,0(r21)
 2004cec:	003f4206 	br	20049f8 <___vfprintf_internal_r+0x188>
 2004cf0:	ac400007 	ldb	r17,0(r21)
 2004cf4:	01000a84 	movi	r4,42
 2004cf8:	a8c00044 	addi	r3,r21,1
 2004cfc:	89075826 	beq	r17,r4,2006a60 <___vfprintf_internal_r+0x21f0>
 2004d00:	8cbff404 	addi	r18,r17,-48
 2004d04:	b486ae36 	bltu	r22,r18,20067c0 <___vfprintf_internal_r+0x1f50>
 2004d08:	0009883a 	mov	r4,zero
 2004d0c:	1823883a 	mov	r17,r3
 2004d10:	01400284 	movi	r5,10
 2004d14:	20019440 	call	2001944 <__mulsi3>
 2004d18:	88c00007 	ldb	r3,0(r17)
 2004d1c:	1489883a 	add	r4,r2,r18
 2004d20:	8d400044 	addi	r21,r17,1
 2004d24:	1cbff404 	addi	r18,r3,-48
 2004d28:	a823883a 	mov	r17,r21
 2004d2c:	b4bff82e 	bgeu	r22,r18,2004d10 <___vfprintf_internal_r+0x4a0>
 2004d30:	1823883a 	mov	r17,r3
 2004d34:	2005f616 	blt	r4,zero,2006510 <___vfprintf_internal_r+0x1ca0>
 2004d38:	d9002a15 	stw	r4,168(sp)
 2004d3c:	003f2f06 	br	20049fc <___vfprintf_internal_r+0x18c>
 2004d40:	84002014 	ori	r16,r16,128
 2004d44:	ac400007 	ldb	r17,0(r21)
 2004d48:	003f2b06 	br	20049f8 <___vfprintf_internal_r+0x188>
 2004d4c:	8cbff404 	addi	r18,r17,-48
 2004d50:	d8003115 	stw	zero,196(sp)
 2004d54:	0009883a 	mov	r4,zero
 2004d58:	a823883a 	mov	r17,r21
 2004d5c:	01400284 	movi	r5,10
 2004d60:	20019440 	call	2001944 <__mulsi3>
 2004d64:	88c00007 	ldb	r3,0(r17)
 2004d68:	9089883a 	add	r4,r18,r2
 2004d6c:	ad400044 	addi	r21,r21,1
 2004d70:	1cbff404 	addi	r18,r3,-48
 2004d74:	a823883a 	mov	r17,r21
 2004d78:	b4bff82e 	bgeu	r22,r18,2004d5c <___vfprintf_internal_r+0x4ec>
 2004d7c:	1823883a 	mov	r17,r3
 2004d80:	d9003115 	stw	r4,196(sp)
 2004d84:	003f1d06 	br	20049fc <___vfprintf_internal_r+0x18c>
 2004d88:	8025883a 	mov	r18,r16
 2004d8c:	dc002903 	ldbu	r16,164(sp)
 2004d90:	e011883a 	mov	r8,fp
 2004d94:	84003fcc 	andi	r16,r16,255
 2004d98:	8007531e 	bne	r16,zero,2006ae8 <___vfprintf_internal_r+0x2278>
 2004d9c:	94800414 	ori	r18,r18,16
 2004da0:	9080080c 	andi	r2,r18,32
 2004da4:	1003a326 	beq	r2,zero,2005c34 <___vfprintf_internal_r+0x13c4>
 2004da8:	d9002e17 	ldw	r4,184(sp)
 2004dac:	20800117 	ldw	r2,4(r4)
 2004db0:	24c00017 	ldw	r19,0(r4)
 2004db4:	21000204 	addi	r4,r4,8
 2004db8:	d9002e15 	stw	r4,184(sp)
 2004dbc:	102d883a 	mov	r22,r2
 2004dc0:	10047316 	blt	r2,zero,2005f90 <___vfprintf_internal_r+0x1720>
 2004dc4:	d9002a17 	ldw	r4,168(sp)
 2004dc8:	df002783 	ldbu	fp,158(sp)
 2004dcc:	2003e416 	blt	r4,zero,2005d60 <___vfprintf_internal_r+0x14f0>
 2004dd0:	00ffdfc4 	movi	r3,-129
 2004dd4:	9d84b03a 	or	r2,r19,r22
 2004dd8:	90e4703a 	and	r18,r18,r3
 2004ddc:	10018026 	beq	r2,zero,20053e0 <___vfprintf_internal_r+0xb70>
 2004de0:	b003ab26 	beq	r22,zero,2005c90 <___vfprintf_internal_r+0x1420>
 2004de4:	dc402915 	stw	r17,164(sp)
 2004de8:	dc001e04 	addi	r16,sp,120
 2004dec:	b023883a 	mov	r17,r22
 2004df0:	402d883a 	mov	r22,r8
 2004df4:	9809883a 	mov	r4,r19
 2004df8:	880b883a 	mov	r5,r17
 2004dfc:	01800284 	movi	r6,10
 2004e00:	000f883a 	mov	r7,zero
 2004e04:	200e5940 	call	200e594 <__umoddi3>
 2004e08:	10800c04 	addi	r2,r2,48
 2004e0c:	843fffc4 	addi	r16,r16,-1
 2004e10:	9809883a 	mov	r4,r19
 2004e14:	880b883a 	mov	r5,r17
 2004e18:	80800005 	stb	r2,0(r16)
 2004e1c:	01800284 	movi	r6,10
 2004e20:	000f883a 	mov	r7,zero
 2004e24:	200df980 	call	200df98 <__udivdi3>
 2004e28:	1027883a 	mov	r19,r2
 2004e2c:	10c4b03a 	or	r2,r2,r3
 2004e30:	1823883a 	mov	r17,r3
 2004e34:	103fef1e 	bne	r2,zero,2004df4 <___vfprintf_internal_r+0x584>
 2004e38:	d8c02817 	ldw	r3,160(sp)
 2004e3c:	dc402917 	ldw	r17,164(sp)
 2004e40:	b011883a 	mov	r8,r22
 2004e44:	1c07c83a 	sub	r3,r3,r16
 2004e48:	d8c02b15 	stw	r3,172(sp)
 2004e4c:	00005f06 	br	2004fcc <___vfprintf_internal_r+0x75c>
 2004e50:	8025883a 	mov	r18,r16
 2004e54:	dc002903 	ldbu	r16,164(sp)
 2004e58:	e011883a 	mov	r8,fp
 2004e5c:	84003fcc 	andi	r16,r16,255
 2004e60:	80071e1e 	bne	r16,zero,2006adc <___vfprintf_internal_r+0x226c>
 2004e64:	9080020c 	andi	r2,r18,8
 2004e68:	1004af26 	beq	r2,zero,2006128 <___vfprintf_internal_r+0x18b8>
 2004e6c:	d9002e17 	ldw	r4,184(sp)
 2004e70:	d9402e17 	ldw	r5,184(sp)
 2004e74:	d8802e17 	ldw	r2,184(sp)
 2004e78:	21000017 	ldw	r4,0(r4)
 2004e7c:	29400117 	ldw	r5,4(r5)
 2004e80:	10800204 	addi	r2,r2,8
 2004e84:	d9003615 	stw	r4,216(sp)
 2004e88:	d9403815 	stw	r5,224(sp)
 2004e8c:	d8802e15 	stw	r2,184(sp)
 2004e90:	d9003617 	ldw	r4,216(sp)
 2004e94:	d9403817 	ldw	r5,224(sp)
 2004e98:	da003d15 	stw	r8,244(sp)
 2004e9c:	04000044 	movi	r16,1
 2004ea0:	200bc740 	call	200bc74 <__fpclassifyd>
 2004ea4:	da003d17 	ldw	r8,244(sp)
 2004ea8:	1404441e 	bne	r2,r16,2005fbc <___vfprintf_internal_r+0x174c>
 2004eac:	d9003617 	ldw	r4,216(sp)
 2004eb0:	d9403817 	ldw	r5,224(sp)
 2004eb4:	000d883a 	mov	r6,zero
 2004eb8:	000f883a 	mov	r7,zero
 2004ebc:	200f48c0 	call	200f48c <__ledf2>
 2004ec0:	da003d17 	ldw	r8,244(sp)
 2004ec4:	1005e316 	blt	r2,zero,2006654 <___vfprintf_internal_r+0x1de4>
 2004ec8:	df002783 	ldbu	fp,158(sp)
 2004ecc:	008011c4 	movi	r2,71
 2004ed0:	1445580e 	bge	r2,r17,2006434 <___vfprintf_internal_r+0x1bc4>
 2004ed4:	040080b4 	movhi	r16,514
 2004ed8:	842d9404 	addi	r16,r16,-18864
 2004edc:	00c000c4 	movi	r3,3
 2004ee0:	00bfdfc4 	movi	r2,-129
 2004ee4:	d8c02915 	stw	r3,164(sp)
 2004ee8:	90a4703a 	and	r18,r18,r2
 2004eec:	d8c02b15 	stw	r3,172(sp)
 2004ef0:	d8002a15 	stw	zero,168(sp)
 2004ef4:	d8003215 	stw	zero,200(sp)
 2004ef8:	00003a06 	br	2004fe4 <___vfprintf_internal_r+0x774>
 2004efc:	84000214 	ori	r16,r16,8
 2004f00:	ac400007 	ldb	r17,0(r21)
 2004f04:	003ebc06 	br	20049f8 <___vfprintf_internal_r+0x188>
 2004f08:	8025883a 	mov	r18,r16
 2004f0c:	dc002903 	ldbu	r16,164(sp)
 2004f10:	e011883a 	mov	r8,fp
 2004f14:	84003fcc 	andi	r16,r16,255
 2004f18:	8007001e 	bne	r16,zero,2006b1c <___vfprintf_internal_r+0x22ac>
 2004f1c:	94800414 	ori	r18,r18,16
 2004f20:	9080080c 	andi	r2,r18,32
 2004f24:	1002fa26 	beq	r2,zero,2005b10 <___vfprintf_internal_r+0x12a0>
 2004f28:	d9002e17 	ldw	r4,184(sp)
 2004f2c:	d9402a17 	ldw	r5,168(sp)
 2004f30:	d8002785 	stb	zero,158(sp)
 2004f34:	20800204 	addi	r2,r4,8
 2004f38:	24c00017 	ldw	r19,0(r4)
 2004f3c:	25800117 	ldw	r22,4(r4)
 2004f40:	2804b116 	blt	r5,zero,2006208 <___vfprintf_internal_r+0x1998>
 2004f44:	013fdfc4 	movi	r4,-129
 2004f48:	9d86b03a 	or	r3,r19,r22
 2004f4c:	d8802e15 	stw	r2,184(sp)
 2004f50:	9124703a 	and	r18,r18,r4
 2004f54:	1802fb1e 	bne	r3,zero,2005b44 <___vfprintf_internal_r+0x12d4>
 2004f58:	d8c02a17 	ldw	r3,168(sp)
 2004f5c:	0039883a 	mov	fp,zero
 2004f60:	1805e526 	beq	r3,zero,20066f8 <___vfprintf_internal_r+0x1e88>
 2004f64:	0027883a 	mov	r19,zero
 2004f68:	002d883a 	mov	r22,zero
 2004f6c:	dc001e04 	addi	r16,sp,120
 2004f70:	9806d0fa 	srli	r3,r19,3
 2004f74:	b008977a 	slli	r4,r22,29
 2004f78:	b02cd0fa 	srli	r22,r22,3
 2004f7c:	9cc001cc 	andi	r19,r19,7
 2004f80:	98800c04 	addi	r2,r19,48
 2004f84:	843fffc4 	addi	r16,r16,-1
 2004f88:	20e6b03a 	or	r19,r4,r3
 2004f8c:	80800005 	stb	r2,0(r16)
 2004f90:	9d86b03a 	or	r3,r19,r22
 2004f94:	183ff61e 	bne	r3,zero,2004f70 <___vfprintf_internal_r+0x700>
 2004f98:	90c0004c 	andi	r3,r18,1
 2004f9c:	18014126 	beq	r3,zero,20054a4 <___vfprintf_internal_r+0xc34>
 2004fa0:	10803fcc 	andi	r2,r2,255
 2004fa4:	1080201c 	xori	r2,r2,128
 2004fa8:	10bfe004 	addi	r2,r2,-128
 2004fac:	00c00c04 	movi	r3,48
 2004fb0:	10c13c26 	beq	r2,r3,20054a4 <___vfprintf_internal_r+0xc34>
 2004fb4:	80ffffc5 	stb	r3,-1(r16)
 2004fb8:	d8c02817 	ldw	r3,160(sp)
 2004fbc:	80bfffc4 	addi	r2,r16,-1
 2004fc0:	1021883a 	mov	r16,r2
 2004fc4:	1887c83a 	sub	r3,r3,r2
 2004fc8:	d8c02b15 	stw	r3,172(sp)
 2004fcc:	d8802b17 	ldw	r2,172(sp)
 2004fd0:	d9002a17 	ldw	r4,168(sp)
 2004fd4:	1100010e 	bge	r2,r4,2004fdc <___vfprintf_internal_r+0x76c>
 2004fd8:	2005883a 	mov	r2,r4
 2004fdc:	d8802915 	stw	r2,164(sp)
 2004fe0:	d8003215 	stw	zero,200(sp)
 2004fe4:	e7003fcc 	andi	fp,fp,255
 2004fe8:	e700201c 	xori	fp,fp,128
 2004fec:	e73fe004 	addi	fp,fp,-128
 2004ff0:	e0000326 	beq	fp,zero,2005000 <___vfprintf_internal_r+0x790>
 2004ff4:	d8c02917 	ldw	r3,164(sp)
 2004ff8:	18c00044 	addi	r3,r3,1
 2004ffc:	d8c02915 	stw	r3,164(sp)
 2005000:	90c0008c 	andi	r3,r18,2
 2005004:	d8c02c15 	stw	r3,176(sp)
 2005008:	18000326 	beq	r3,zero,2005018 <___vfprintf_internal_r+0x7a8>
 200500c:	d8c02917 	ldw	r3,164(sp)
 2005010:	18c00084 	addi	r3,r3,2
 2005014:	d8c02915 	stw	r3,164(sp)
 2005018:	90c0210c 	andi	r3,r18,132
 200501c:	d8c03015 	stw	r3,192(sp)
 2005020:	1801c51e 	bne	r3,zero,2005738 <___vfprintf_internal_r+0xec8>
 2005024:	d9003117 	ldw	r4,196(sp)
 2005028:	d8c02917 	ldw	r3,164(sp)
 200502c:	20e7c83a 	sub	r19,r4,r3
 2005030:	04c1c10e 	bge	zero,r19,2005738 <___vfprintf_internal_r+0xec8>
 2005034:	02400404 	movi	r9,16
 2005038:	d8c02017 	ldw	r3,128(sp)
 200503c:	d8801f17 	ldw	r2,124(sp)
 2005040:	4cc52f0e 	bge	r9,r19,2006500 <___vfprintf_internal_r+0x1c90>
 2005044:	014080b4 	movhi	r5,514
 2005048:	296da784 	addi	r5,r5,-18786
 200504c:	dc403b15 	stw	r17,236(sp)
 2005050:	d9403515 	stw	r5,212(sp)
 2005054:	9823883a 	mov	r17,r19
 2005058:	482d883a 	mov	r22,r9
 200505c:	9027883a 	mov	r19,r18
 2005060:	070001c4 	movi	fp,7
 2005064:	8025883a 	mov	r18,r16
 2005068:	dc002d17 	ldw	r16,180(sp)
 200506c:	00000306 	br	200507c <___vfprintf_internal_r+0x80c>
 2005070:	8c7ffc04 	addi	r17,r17,-16
 2005074:	42000204 	addi	r8,r8,8
 2005078:	b440130e 	bge	r22,r17,20050c8 <___vfprintf_internal_r+0x858>
 200507c:	010080b4 	movhi	r4,514
 2005080:	18c00404 	addi	r3,r3,16
 2005084:	10800044 	addi	r2,r2,1
 2005088:	212da784 	addi	r4,r4,-18786
 200508c:	41000015 	stw	r4,0(r8)
 2005090:	45800115 	stw	r22,4(r8)
 2005094:	d8c02015 	stw	r3,128(sp)
 2005098:	d8801f15 	stw	r2,124(sp)
 200509c:	e0bff40e 	bge	fp,r2,2005070 <___vfprintf_internal_r+0x800>
 20050a0:	d9801e04 	addi	r6,sp,120
 20050a4:	b80b883a 	mov	r5,r23
 20050a8:	8009883a 	mov	r4,r16
 20050ac:	200c0500 	call	200c050 <__sprint_r>
 20050b0:	103ef31e 	bne	r2,zero,2004c80 <___vfprintf_internal_r+0x410>
 20050b4:	8c7ffc04 	addi	r17,r17,-16
 20050b8:	d8c02017 	ldw	r3,128(sp)
 20050bc:	d8801f17 	ldw	r2,124(sp)
 20050c0:	da000404 	addi	r8,sp,16
 20050c4:	b47fed16 	blt	r22,r17,200507c <___vfprintf_internal_r+0x80c>
 20050c8:	9021883a 	mov	r16,r18
 20050cc:	9825883a 	mov	r18,r19
 20050d0:	8827883a 	mov	r19,r17
 20050d4:	dc403b17 	ldw	r17,236(sp)
 20050d8:	d9403517 	ldw	r5,212(sp)
 20050dc:	98c7883a 	add	r3,r19,r3
 20050e0:	10800044 	addi	r2,r2,1
 20050e4:	41400015 	stw	r5,0(r8)
 20050e8:	44c00115 	stw	r19,4(r8)
 20050ec:	d8c02015 	stw	r3,128(sp)
 20050f0:	d8801f15 	stw	r2,124(sp)
 20050f4:	010001c4 	movi	r4,7
 20050f8:	2082c516 	blt	r4,r2,2005c10 <___vfprintf_internal_r+0x13a0>
 20050fc:	df002787 	ldb	fp,158(sp)
 2005100:	42000204 	addi	r8,r8,8
 2005104:	e0000c26 	beq	fp,zero,2005138 <___vfprintf_internal_r+0x8c8>
 2005108:	d8801f17 	ldw	r2,124(sp)
 200510c:	d9002784 	addi	r4,sp,158
 2005110:	18c00044 	addi	r3,r3,1
 2005114:	10800044 	addi	r2,r2,1
 2005118:	41000015 	stw	r4,0(r8)
 200511c:	01000044 	movi	r4,1
 2005120:	41000115 	stw	r4,4(r8)
 2005124:	d8c02015 	stw	r3,128(sp)
 2005128:	d8801f15 	stw	r2,124(sp)
 200512c:	010001c4 	movi	r4,7
 2005130:	20825e16 	blt	r4,r2,2005aac <___vfprintf_internal_r+0x123c>
 2005134:	42000204 	addi	r8,r8,8
 2005138:	d8802c17 	ldw	r2,176(sp)
 200513c:	10000c26 	beq	r2,zero,2005170 <___vfprintf_internal_r+0x900>
 2005140:	d8801f17 	ldw	r2,124(sp)
 2005144:	d9002704 	addi	r4,sp,156
 2005148:	18c00084 	addi	r3,r3,2
 200514c:	10800044 	addi	r2,r2,1
 2005150:	41000015 	stw	r4,0(r8)
 2005154:	01000084 	movi	r4,2
 2005158:	41000115 	stw	r4,4(r8)
 200515c:	d8c02015 	stw	r3,128(sp)
 2005160:	d8801f15 	stw	r2,124(sp)
 2005164:	010001c4 	movi	r4,7
 2005168:	20825816 	blt	r4,r2,2005acc <___vfprintf_internal_r+0x125c>
 200516c:	42000204 	addi	r8,r8,8
 2005170:	d9003017 	ldw	r4,192(sp)
 2005174:	00802004 	movi	r2,128
 2005178:	2081bb26 	beq	r4,r2,2005868 <___vfprintf_internal_r+0xff8>
 200517c:	d9402a17 	ldw	r5,168(sp)
 2005180:	d8802b17 	ldw	r2,172(sp)
 2005184:	28adc83a 	sub	r22,r5,r2
 2005188:	0580310e 	bge	zero,r22,2005250 <___vfprintf_internal_r+0x9e0>
 200518c:	07000404 	movi	fp,16
 2005190:	d8801f17 	ldw	r2,124(sp)
 2005194:	e584360e 	bge	fp,r22,2006270 <___vfprintf_internal_r+0x1a00>
 2005198:	014080b4 	movhi	r5,514
 200519c:	296da384 	addi	r5,r5,-18802
 20051a0:	dc402a15 	stw	r17,168(sp)
 20051a4:	d9402c15 	stw	r5,176(sp)
