
collision_project.elf:     file format elf32-littlenios2
collision_project.elf
architecture: nios2:r1, flags 0x00000112:
EXEC_P, HAS_SYMS, D_PAGED
start address 0x02000244

Program Header:
    LOAD off    0x00001000 vaddr 0x02000000 paddr 0x02000000 align 2**12
         filesz 0x00000020 memsz 0x00000020 flags r-x
    LOAD off    0x00001020 vaddr 0x02000020 paddr 0x02000020 align 2**12
         filesz 0x0001ccb4 memsz 0x0001ccb4 flags r-x
    LOAD off    0x0001dcd4 vaddr 0x0201ccd4 paddr 0x0201e85c align 2**12
         filesz 0x00001b88 memsz 0x00001b88 flags rw-
    LOAD off    0x000203e4 vaddr 0x020203e4 paddr 0x020203e4 align 2**12
         filesz 0x00000000 memsz 0x00007404 flags rw-

Sections:
Idx Name          Size      VMA       LMA       File off  Algn
  0 .entry        00000020  02000000  02000000  00001000  2**5
                  CONTENTS, ALLOC, LOAD, READONLY, CODE
  1 .exceptions   00000224  02000020  02000020  00001020  2**2
                  CONTENTS, ALLOC, LOAD, READONLY, CODE
  2 .text         0001c574  02000244  02000244  00001244  2**2
                  CONTENTS, ALLOC, LOAD, READONLY, CODE
  3 .rodata       0000051c  0201c7b8  0201c7b8  0001d7b8  2**2
                  CONTENTS, ALLOC, LOAD, READONLY, DATA
  4 .rwdata       00001b88  0201ccd4  0201e85c  0001dcd4  2**2
                  CONTENTS, ALLOC, LOAD, DATA, SMALL_DATA
  5 .bss          00007404  020203e4  020203e4  000203e4  2**2
                  ALLOC, SMALL_DATA
  6 .mem_Nios_PI  00000000  00200000  00200000  0001f85c  2**0
                  CONTENTS
  7 .sdram_controller 00000000  020277e8  020277e8  0001f85c  2**0
                  CONTENTS
  8 .comment      00000023  00000000  00000000  0001f85c  2**0
                  CONTENTS, READONLY
  9 .debug_aranges 00001100  00000000  00000000  0001f880  2**3
                  CONTENTS, READONLY, DEBUGGING
 10 .debug_info   0002c061  00000000  00000000  00020980  2**0
                  CONTENTS, READONLY, DEBUGGING
 11 .debug_abbrev 0000a37e  00000000  00000000  0004c9e1  2**0
                  CONTENTS, READONLY, DEBUGGING
 12 .debug_line   0000da0c  00000000  00000000  00056d5f  2**0
                  CONTENTS, READONLY, DEBUGGING
 13 .debug_frame  00003630  00000000  00000000  0006476c  2**2
                  CONTENTS, READONLY, DEBUGGING
 14 .debug_str    00005433  00000000  00000000  00067d9c  2**0
                  CONTENTS, READONLY, DEBUGGING
 15 .debug_loc    00008a9b  00000000  00000000  0006d1cf  2**0
                  CONTENTS, READONLY, DEBUGGING
 16 .debug_alt_sim_info 00000030  00000000  00000000  00075c6c  2**2
                  CONTENTS, READONLY, DEBUGGING
 17 .debug_ranges 00001348  00000000  00000000  00075ca0  2**3
                  CONTENTS, READONLY, DEBUGGING
 18 .thread_model 00000006  00000000  00000000  0007bcee  2**0
                  CONTENTS, READONLY
 19 .cpu          00000003  00000000  00000000  0007bcf4  2**0
                  CONTENTS, READONLY
 20 .qsys         00000001  00000000  00000000  0007bcf7  2**0
                  CONTENTS, READONLY
 21 .simulation_enabled 00000001  00000000  00000000  0007bcf8  2**0
                  CONTENTS, READONLY
 22 .sysid_hash   00000004  00000000  00000000  0007bcf9  2**0
                  CONTENTS, READONLY
 23 .sysid_base   00000004  00000000  00000000  0007bcfd  2**0
                  CONTENTS, READONLY
 24 .sysid_time   00000004  00000000  00000000  0007bd01  2**0
                  CONTENTS, READONLY
 25 .stderr_dev   00000009  00000000  00000000  0007bd05  2**0
                  CONTENTS, READONLY
 26 .stdin_dev    00000009  00000000  00000000  0007bd0e  2**0
                  CONTENTS, READONLY
 27 .stdout_dev   00000009  00000000  00000000  0007bd17  2**0
                  CONTENTS, READONLY
 28 .sopc_system_name 00000009  00000000  00000000  0007bd20  2**0
                  CONTENTS, READONLY
 29 .quartus_project_dir 0000003f  00000000  00000000  0007bd29  2**0
                  CONTENTS, READONLY
 30 .jdi          00003d7f  00000000  00000000  0007bd68  2**0
                  CONTENTS, READONLY
 31 .sopcinfo     000575f4  00000000  00000000  0007fae7  2**0
                  CONTENTS, READONLY
SYMBOL TABLE:
02000000 l    d  .entry	00000000 .entry
02000020 l    d  .exceptions	00000000 .exceptions
02000244 l    d  .text	00000000 .text
0201c7b8 l    d  .rodata	00000000 .rodata
0201ccd4 l    d  .rwdata	00000000 .rwdata
020203e4 l    d  .bss	00000000 .bss
00200000 l    d  .mem_Nios_PI	00000000 .mem_Nios_PI
020277e8 l    d  .sdram_controller	00000000 .sdram_controller
00000000 l    d  .comment	00000000 .comment
00000000 l    d  .debug_aranges	00000000 .debug_aranges
00000000 l    d  .debug_info	00000000 .debug_info
00000000 l    d  .debug_abbrev	00000000 .debug_abbrev
00000000 l    d  .debug_line	00000000 .debug_line
00000000 l    d  .debug_frame	00000000 .debug_frame
00000000 l    d  .debug_str	00000000 .debug_str
00000000 l    d  .debug_loc	00000000 .debug_loc
00000000 l    d  .debug_alt_sim_info	00000000 .debug_alt_sim_info
00000000 l    d  .debug_ranges	00000000 .debug_ranges
00000000 l    df *ABS*	00000000 ../collision_project_bsp//obj/HAL/src/crt0.o
0200028c l       .text	00000000 alt_after_alt_main
00000000 l    df *ABS*	00000000 alt_irq_handler.c
00000000 l    df *ABS*	00000000 alt_instruction_exception_entry.c
00000000 l    df *ABS*	00000000 hello_ucosii.c
00000000 l    df *ABS*	00000000 w_sqrt.c
00000000 l    df *ABS*	00000000 e_sqrt.c
0201e78c l     O .rwdata	00000008 one
0201e794 l     O .rwdata	00000008 tiny
00000000 l    df *ABS*	00000000 s_fpclassify.c
00000000 l    df *ABS*	00000000 s_lib_ver.c
00000000 l    df *ABS*	00000000 s_matherr.c
00000000 l    df *ABS*	00000000 adddf3.c
00000000 l    df *ABS*	00000000 divdf3.c
00000000 l    df *ABS*	00000000 eqdf2.c
00000000 l    df *ABS*	00000000 gedf2.c
00000000 l    df *ABS*	00000000 ledf2.c
00000000 l    df *ABS*	00000000 muldf3.c
00000000 l    df *ABS*	00000000 subdf3.c
00000000 l    df *ABS*	00000000 fixdfsi.c
00000000 l    df *ABS*	00000000 floatsidf.c
00000000 l    df *ABS*	00000000 libgcc2.c
00000000 l    df *ABS*	00000000 lib2-divmod.c
00000000 l    df *ABS*	00000000 libgcc2.c
00000000 l    df *ABS*	00000000 errno.c
00000000 l    df *ABS*	00000000 impure.c
0201ccd4 l     O .rwdata	00000424 impure_data
00000000 l    df *ABS*	00000000 printf.c
00000000 l    df *ABS*	00000000 puts.c
00000000 l    df *ABS*	00000000 strlen.c
00000000 l    df *ABS*	00000000 vfprintf.c
02004270 l     F .text	000000f0 __sbprintf
02006480 l     F .text	0000020c cvt
0200668c l     F .text	00000140 exponent
0201c9aa l     O .rodata	00000010 blanks.4403
0201c9ba l     O .rodata	00000010 zeroes.4404
00000000 l    df *ABS*	00000000 wsetup.c
00000000 l    df *ABS*	00000000 dtoa.c
0200696c l     F .text	000003b4 quorem
00000000 l    df *ABS*	00000000 fflush.c
00000000 l    df *ABS*	00000000 findfp.c
02008c78 l     F .text	000000f4 std
020203f0 l     O .bss	00000004 __sfp_lock
020203f4 l     O .bss	00000004 __sinit_lock
02009174 l     F .text	00000024 __fp_lock
02009198 l     F .text	00000024 __fp_unlock
00000000 l    df *ABS*	00000000 mallocr.c
00000000 l    df *ABS*	00000000 fvwrite.c
00000000 l    df *ABS*	00000000 fwalk.c
00000000 l    df *ABS*	00000000 locale.c
0201d0f8 l     O .rwdata	00000038 lconv
0201d130 l     O .rwdata	00000020 lc_ctype_charset
0201d150 l     O .rwdata	00000020 lc_message_charset
02020404 l     O .bss	00000004 lc_ctype_cjk_lang
00000000 l    df *ABS*	00000000 makebuf.c
00000000 l    df *ABS*	00000000 mallocr.c
0200a4c8 l     F .text	000003b4 malloc_extend_top
00000000 l    df *ABS*	00000000 memchr.c
00000000 l    df *ABS*	00000000 memcpy.c
00000000 l    df *ABS*	00000000 memmove.c
00000000 l    df *ABS*	00000000 memset.c
00000000 l    df *ABS*	00000000 mprec.c
0201cb0c l     O .rodata	0000000c p05.2768
00000000 l    df *ABS*	00000000 mallocr.c
00000000 l    df *ABS*	00000000 sbrkr.c
00000000 l    df *ABS*	00000000 stdio.c
00000000 l    df *ABS*	00000000 strcmp.c
00000000 l    df *ABS*	00000000 vfprintf.c
0200e6c0 l     F .text	000000f0 __sbprintf
0201cb62 l     O .rodata	00000010 blanks.4348
0201cb72 l     O .rodata	00000010 zeroes.4349
00000000 l    df *ABS*	00000000 writer.c
00000000 l    df *ABS*	00000000 closer.c
00000000 l    df *ABS*	00000000 mallocr.c
00000000 l    df *ABS*	00000000 fclose.c
00000000 l    df *ABS*	00000000 fputwc.c
00000000 l    df *ABS*	00000000 fstatr.c
00000000 l    df *ABS*	00000000 int_errno.c
00000000 l    df *ABS*	00000000 isattyr.c
00000000 l    df *ABS*	00000000 lseekr.c
00000000 l    df *ABS*	00000000 readr.c
00000000 l    df *ABS*	00000000 wbuf.c
00000000 l    df *ABS*	00000000 wcrtomb.c
00000000 l    df *ABS*	00000000 wctomb_r.c
00000000 l    df *ABS*	00000000 libgcc2.c
00000000 l    df *ABS*	00000000 libgcc2.c
00000000 l    df *ABS*	00000000 floatunsidf.c
00000000 l    df *ABS*	00000000 alt_close.c
02011270 l     F .text	0000003c alt_get_errno
00000000 l    df *ABS*	00000000 alt_dev.c
0201137c l     F .text	0000002c alt_dev_null_write
00000000 l    df *ABS*	00000000 alt_errno.c
00000000 l    df *ABS*	00000000 alt_fstat.c
020113a8 l     F .text	0000003c alt_get_errno
00000000 l    df *ABS*	00000000 alt_isatty.c
02011494 l     F .text	0000003c alt_get_errno
00000000 l    df *ABS*	00000000 alt_load.c
02011574 l     F .text	00000068 alt_load_section
00000000 l    df *ABS*	00000000 alt_lseek.c
02011660 l     F .text	0000003c alt_get_errno
00000000 l    df *ABS*	00000000 alt_main.c
00000000 l    df *ABS*	00000000 alt_read.c
0201182c l     F .text	0000003c alt_get_errno
00000000 l    df *ABS*	00000000 alt_release_fd.c
00000000 l    df *ABS*	00000000 alt_sbrk.c
0201e7d0 l     O .rwdata	00000004 heap_end
00000000 l    df *ABS*	00000000 alt_write.c
02011a78 l     F .text	0000003c alt_get_errno
00000000 l    df *ABS*	00000000 alt_env_lock.c
0201e7d4 l     O .rwdata	00000004 lockid
02020428 l     O .bss	00000004 locks
00000000 l    df *ABS*	00000000 alt_malloc_lock.c
0201e7d8 l     O .rwdata	00000004 lockid
02020430 l     O .bss	00000004 locks
00000000 l    df *ABS*	00000000 os_core.c
020134a8 l     F .text	00000048 OS_InitMisc
020134f0 l     F .text	0000006c OS_InitRdyList
0201365c l     F .text	000000e4 OS_InitTCBList
020133c8 l     F .text	000000e0 OS_InitEventList
0201355c l     F .text	00000080 OS_InitTaskIdle
020135dc l     F .text	00000080 OS_InitTaskStat
020138cc l     F .text	00000074 OS_SchedNew
00000000 l    df *ABS*	00000000 os_dbg.c
00000000 l    df *ABS*	00000000 os_flag.c
020155dc l     F .text	000000f4 OS_FlagTaskRdy
0201539c l     F .text	00000160 OS_FlagBlock
00000000 l    df *ABS*	00000000 os_mbox.c
00000000 l    df *ABS*	00000000 os_mem.c
00000000 l    df *ABS*	00000000 os_q.c
00000000 l    df *ABS*	00000000 os_sem.c
00000000 l    df *ABS*	00000000 os_task.c
00000000 l    df *ABS*	00000000 os_time.c
00000000 l    df *ABS*	00000000 alt_sys_init.c
0201a148 l     F .text	00000034 alt_dev_reg
0201d720 l     O .rwdata	0000106c jtag_uart
00000000 l    df *ABS*	00000000 altera_avalon_jtag_uart_fd.c
00000000 l    df *ABS*	00000000 altera_avalon_jtag_uart_init.c
0201a4c0 l     F .text	000002a4 altera_avalon_jtag_uart_irq
0201a764 l     F .text	00000104 altera_avalon_jtag_uart_timeout
00000000 l    df *ABS*	00000000 altera_avalon_jtag_uart_ioctl.c
00000000 l    df *ABS*	00000000 altera_avalon_jtag_uart_read.c
00000000 l    df *ABS*	00000000 altera_avalon_jtag_uart_write.c
00000000 l    df *ABS*	00000000 altera_avalon_timer_sc.c
0201af40 l     F .text	00000078 alt_avalon_timer_sc_irq
00000000 l    df *ABS*	00000000 alt_alarm_start.c
00000000 l    df *ABS*	00000000 alt_dcache_flush_all.c
00000000 l    df *ABS*	00000000 alt_dev_llist_insert.c
0201b1a8 l     F .text	0000003c alt_get_errno
00000000 l    df *ABS*	00000000 alt_do_ctors.c
00000000 l    df *ABS*	00000000 alt_do_dtors.c
00000000 l    df *ABS*	00000000 alt_icache_flush_all.c
00000000 l    df *ABS*	00000000 alt_iic.c
00000000 l    df *ABS*	00000000 alt_iic_isr_register.c
00000000 l    df *ABS*	00000000 alt_io_redirect.c
0201b61c l     F .text	000000c4 alt_open_fd
00000000 l    df *ABS*	00000000 alt_irq_vars.c
00000000 l    df *ABS*	00000000 alt_open.c
0201b75c l     F .text	0000003c alt_get_errno
0201b798 l     F .text	000000c4 alt_file_locked
00000000 l    df *ABS*	00000000 alt_tick.c
00000000 l    df *ABS*	00000000 altera_nios2_gen2_irq.c
00000000 l    df *ABS*	00000000 os_cpu_a.o
00000040 l       *ABS*	00000000 OSCtxSw_SWITCH_PC
00000000 l    df *ABS*	00000000 os_cpu_c.c
00000014 l       *ABS*	00000000 OSTCBNext_OFFSET
00000032 l       *ABS*	00000000 OSTCBPrio_OFFSET
00000000 l       *ABS*	00000000 OSTCBStkPtr_OFFSET
00000000 l    df *ABS*	00000000 alt_find_dev.c
00000000 l    df *ABS*	00000000 alt_find_file.c
00000000 l    df *ABS*	00000000 alt_get_fd.c
00000000 l    df *ABS*	00000000 alt_icache_flush.c
00000000 l    df *ABS*	00000000 atexit.c
00000000 l    df *ABS*	00000000 exit.c
00000000 l    df *ABS*	00000000 memcmp.c
00000000 l    df *ABS*	00000000 __atexit.c
00000000 l    df *ABS*	00000000 __call_atexit.c
02020498 l     O .bss	00000004 __atexit_lock
00000000 l    df *ABS*	00000000 alt_exit.c
02020494 g     O .bss	00000004 alt_instruction_exception_handler
0200d2cc g     F .text	000000b0 _mprec_log10
0201e826 g     O .rwdata	00000002 OSTaskNameSize
0200d44c g     F .text	00000134 __any_on
020101a8 g     F .text	00000060 _isatty_r
0201cae4 g     O .rodata	00000028 __mprec_tinytens
02011770 g     F .text	000000bc alt_main
0200402c g     F .text	00000118 _puts_r
020276e8 g     O .bss	00000100 alt_irq
02010208 g     F .text	00000070 _lseek_r
020168c4 g     F .text	000000cc OS_MemInit
02000ea4 g     F .text	00000174 sqrt
0201e85c g       *ABS*	00000000 __flash_rwdata_start
0201a0e8 g     F .text	00000060 OSTimeSet
02002960 g     F .text	00000088 .hidden __eqdf2
0201211c g     F .text	00000610 OSEventPendMulti
020277e8 g       *ABS*	00000000 __alt_heap_start
0201bda4 g     F .text	00000024 OSTaskCreateHook
020204c4 g     O .bss	00002000 task1_stk
02003fc4 g     F .text	00000068 printf
0201e7fe g     O .rwdata	00000002 OSMboxEn
02012784 g     F .text	0000004c OSIntEnter
02010490 g     F .text	000000d4 _wcrtomb_r
0200e350 g     F .text	000000a0 __sseek
0200901c g     F .text	000000d8 __sinit
020102e8 g     F .text	00000168 __swbuf_r
0201e80e g     O .rwdata	00000002 OSQEn
0200a0f8 g     F .text	00000084 _setlocale_r
02008d6c g     F .text	000000a4 __sfmoreglue
02011df0 g     F .text	000000cc __malloc_unlock
0201be0c g     F .text	00000020 OSTaskStatHook
02020438 g     O .bss	00000001 OSLockNesting
0201e84c g     O .rwdata	00000002 OSDataSize
02020439 g     O .bss	00000001 OSRunning
0200b73c g     F .text	00000208 memmove
0201be4c g     F .text	00000020 OSInitHookBegin
0201e844 g     O .rwdata	00000002 OSTmrSize
02008fe8 g     F .text	00000034 _cleanup
0200bb08 g     F .text	00000130 _Balloc
0202043c g     O .bss	00000004 OSIdleCtr
020029e8 g     F .text	000000dc .hidden __gtdf2
0201bb54 g     F .text	00000024 altera_nios2_gen2_irq_init
0201bc24 g       .text	00000000 OSStartTsk
02003f40 g     F .text	00000020 __errno
02013bfc g     F .text	000002d4 OS_TCBInit
02000000 g     F .entry	0000001c __reset
00200000 g       *ABS*	00000000 __alt_mem_mem_Nios_PI
0201e84a g     O .rwdata	00000002 OSTmrWheelTblSize
02000020 g       *ABS*	00000000 __flash_exceptions_start
0201e7ea g     O .rwdata	00000002 OSEventSize
02020440 g     O .bss	00000001 OSPrioHighRdy
02010140 g     F .text	00000068 _fstat_r
0201bdc8 g     F .text	00000024 OSTaskDelHook
02020414 g     O .bss	00000004 errno
0200e26c g     F .text	00000030 __seofread
0201bc04 g       .text	00000000 OSStartHighRdy
02018b90 g     F .text	000001e4 OSTaskCreateExt
02000000 g       *ABS*	00000000 __alt_mem_sdram_controller
02014ee4 g     F .text	00000060 OSFlagPendGetFlagsRdy
0201e82a g     O .rwdata	00000002 OSTaskStatStkSize
02014060 g     F .text	00000308 OSFlagAccept
02016efc g     F .text	000000b8 OSQFlush
02016990 g     F .text	00000140 OSQAccept
02020420 g     O .bss	00000004 alt_argv
0202678c g       *ABS*	00000000 _gp
020189e4 g     F .text	000001ac OSTaskCreate
020184f4 g     F .text	000004f0 OSTaskChangePrio
02020434 g     O .bss	00000004 alt_heapsem
02013ed0 g     F .text	00000190 OSDebugInit
02018d74 g     F .text	00000344 OSTaskDel
0201d5a0 g     O .rwdata	00000180 alt_fd_list
020244c4 g     O .bss	00000370 OSFlagTbl
020131a8 g     F .text	000000b8 OS_EventTaskRemove
0201bed0 g     F .text	00000090 alt_find_dev
0200b5b4 g     F .text	00000188 memcpy
0201e814 g     O .rwdata	00000002 OSRdyTblSize
020203e4 g     O .bss	00000004 MailBox3
02008fa4 g     F .text	00000044 _cleanup_r
02003c4c g     F .text	000000dc .hidden __floatsidf
0201b6e0 g     F .text	0000007c alt_io_redirect
02002ac4 g     F .text	000000f4 .hidden __ltdf2
0201c7b8 g       *ABS*	00000000 __DTOR_END__
02004144 g     F .text	00000038 puts
0201c1d4 g     F .text	0000009c alt_exception_cause_generated_bad_addr
02011ebc g     F .text	00000120 OSEventNameGet
0201e7f8 g     O .rwdata	00000002 OSFlagMax
02001660 g     F .text	00000104 __fpclassifyd
0200d1b0 g     F .text	0000011c __ratio
020127d0 g     F .text	000000f8 OSIntExit
0200e7b0 g     F .text	00000050 __vfiprintf_internal
0201e832 g     O .rwdata	00000002 OSTCBSize
02020441 g     O .bss	00000001 OSPrioCur
0201a9c0 g     F .text	000002bc altera_avalon_jtag_uart_read
02003f60 g     F .text	00000064 _printf_r
02003e84 g     F .text	00000064 .hidden __udivsi3
020114d0 g     F .text	000000a4 isatty
0201e818 g     O .rwdata	00000002 OSStkWidth
0201c9f4 g     O .rodata	000000c8 __mprec_tens
0201e80c g     O .rwdata	00000002 OSPtrSize
0200a17c g     F .text	00000024 __locale_charset
0201e7ec g     O .rwdata	00000002 OSEventTblSize
0201bb78 g       .text	00000000 OSCtxSw
0201c144 g     F .text	00000090 alt_icache_flush
02020408 g     O .bss	00000004 __malloc_top_pad
02020444 g     O .bss	00000004 OSTCBList
02020418 g     O .bss	00000004 alt_fd_list_lock
0201e7a8 g     O .rwdata	00000004 __mb_cur_max
0200a204 g     F .text	00000028 _localeconv_r
0200c150 g     F .text	00000058 __i2b
02009968 g     F .text	000005dc __sfvwrite_r
02024834 g     O .bss	00000c30 OSMemTbl
02020448 g     O .bss	00000001 OSTickStepState
0200e170 g     F .text	00000060 _sbrk_r
0201e810 g     O .rwdata	00000002 OSQMax
02025464 g     O .bss	00000800 OSTaskStatStk
02016500 g     F .text	000000f0 OSMemNameGet
0201e7f0 g     O .rwdata	00000002 OSFlagEn
02010278 g     F .text	00000070 _read_r
0201e836 g     O .rwdata	00000002 OSTimeTickHookEn
020173ac g     F .text	00000168 OSQPost
020156d0 g     F .text	000000a4 OS_FlagUnlink
0201e7c8 g     O .rwdata	00000004 alt_max_fd
02013794 g     F .text	00000068 OS_MemCopy
020137fc g     F .text	000000d0 OS_Sched
0200fcf8 g     F .text	0000012c _fclose_r
02016410 g     F .text	000000f0 OSMemGet
0201612c g     F .text	00000110 OSMboxQuery
020193a0 g     F .text	000001b4 OSTaskNameSet
02008c24 g     F .text	00000054 fflush
0202040c g     O .bss	00000004 __malloc_max_sbrked_mem
0202044c g     O .bss	00000004 OSCtxSwCtr
0201be2c g     F .text	00000020 OSTimeTickHook
0201e7fa g     O .rwdata	00000002 OSFlagNameSize
02013260 g     F .text	00000100 OS_EventTaskRemoveMulti
020017cc g     F .text	000008ac .hidden __adddf3
02013058 g     F .text	00000150 OS_EventTaskWaitMulti
0200cd6c g     F .text	00000204 __b2d
0201e812 g     O .rwdata	00000002 OSQSize
02010c90 g     F .text	00000538 .hidden __umoddi3
0201169c g     F .text	000000d4 lseek
02017e5c g     F .text	0000020c OSSemPend
0201e79c g     O .rwdata	00000004 __fdlib_version
0201e7a4 g     O .rwdata	00000004 _global_impure_ptr
0200d580 g     F .text	00000bf0 _realloc_r
0201e7fc g     O .rwdata	00000002 OSLowestPrio
020277e8 g       *ABS*	00000000 __bss_end
0201b52c g     F .text	000000f0 alt_iic_isr_register
0201beac g     F .text	00000024 OSTCBInitHook
0201e842 g     O .rwdata	00000002 OSTmrCfgTicksPerSec
0201ba4c g     F .text	00000108 alt_tick
02015ec0 g     F .text	00000110 OSMboxPost
02010718 g     F .text	00000578 .hidden __udivdi3
02010050 g     F .text	00000088 _fputwc_r
0201e7e4 g     O .rwdata	00000002 OSEventEn
0201cabc g     O .rodata	00000028 __mprec_bigtens
0200be48 g     F .text	0000018c __s2b
0201e83e g     O .rwdata	00000002 OSTmrCfgNameSize
020111c8 g     F .text	000000a8 .hidden __floatunsidf
0200c8e8 g     F .text	00000114 __mcmp
020091bc g     F .text	00000040 __fp_lock_all
0201b4e0 g     F .text	0000004c alt_ic_irq_enabled
020154fc g     F .text	000000e0 OS_FlagInit
0201b9b0 g     F .text	0000009c alt_alarm_stop
0201e820 g     O .rwdata	00000002 OSTaskIdleStkSize
02020488 g     O .bss	00000004 alt_irq_active
02017a94 g     F .text	000000b0 OSSemAccept
02016704 g     F .text	000000d8 OSMemPut
0201623c g     F .text	000001d4 OSMemCreate
02020450 g     O .bss	00000004 OSIdleCtrMax
020000fc g     F .exceptions	000000d4 alt_irq_handler
0201d578 g     O .rwdata	00000028 alt_dev_null
0201e834 g     O .rwdata	00000002 OSTicksPerSec
0201bb78 g       .text	00000000 OSIntCtxSw
0201b160 g     F .text	00000048 alt_dcache_flush_all
0200bfd4 g     F .text	00000090 __hi0bits
02003bcc g     F .text	00000080 .hidden __fixdfsi
02020454 g     O .bss	00000004 OSTCBFreeList
0201e85c g       *ABS*	00000000 __ram_rwdata_end
02018068 g     F .text	0000016c OSSemPendAbort
0201e7c0 g     O .rwdata	00000008 alt_dev_list
02011ab4 g     F .text	000000f8 write
0201e838 g     O .rwdata	00000002 OSVersionNbr
0201ccd4 g       *ABS*	00000000 __ram_rodata_end
020113e4 g     F .text	000000b0 fstat
02002ac4 g     F .text	000000f4 .hidden __ledf2
0201e7e0 g     O .rwdata	00000004 OSEndiannessTest
0200c578 g     F .text	00000178 __pow5mult
0200e800 g     F .text	000012c4 ___vfiprintf_internal_r
020203f8 g     O .bss	00000004 __nlocale_changed
02003ee8 g     F .text	00000058 .hidden __umodsi3
0201e7f2 g     O .rwdata	00000002 OSFlagGrpSize
020277e8 g       *ABS*	00000000 end
0201a378 g     F .text	00000148 altera_avalon_jtag_uart_init
02013a64 g     F .text	000000cc OS_TaskStat
020001d0 g     F .exceptions	00000074 alt_instruction_exception_entry
0201c7b8 g       *ABS*	00000000 __CTOR_LIST__
04000000 g       *ABS*	00000000 __alt_stack_pointer
0201afb8 g     F .text	0000007c alt_avalon_timer_sc_init
02003d28 g     F .text	00000064 .hidden __clzsi2
0201ac7c g     F .text	000002c4 altera_avalon_jtag_uart_write
020090f4 g     F .text	00000020 __sfp_lock_acquire
0200b3f8 g     F .text	000001bc memchr
02013740 g     F .text	00000054 OS_MemClr
020043b0 g     F .text	000020d0 ___vfprintf_internal_r
0201bc48 g     F .text	0000015c OSTaskStkInit
02000290 g     F .text	00000310 task1
0200923c g     F .text	00000560 _free_r
0200a1a0 g     F .text	00000020 __locale_mb_cur_max
02012db0 g     F .text	00000198 OS_EventTaskRdy
0201c598 g     F .text	000001ec __call_exitprocs
02020458 g     O .bss	00000001 OSCPUUsage
020203fc g     O .bss	00000004 __mlocale_changed
0201e7b0 g     O .rwdata	00000004 __malloc_sbrk_base
02000244 g     F .text	0000004c _start
020005a0 g     F .text	000006f8 task2
0202048c g     O .bss	00000004 _alt_tick_rate
02016fb4 g     F .text	0000028c OSQPend
02019c60 g     F .text	00000104 OSTimeDly
0200c6f0 g     F .text	000001f8 __lshift
02020490 g     O .bss	00000004 _alt_nticks
02011868 g     F .text	000000fc read
0201a1b4 g     F .text	00000060 alt_sys_init
0201c428 g     F .text	00000170 __register_exitproc
02020459 g     O .bss	00000001 OSTaskCtr
020203e8 g     O .bss	00000004 MailBox2
02019d64 g     F .text	00000154 OSTimeDlyHMSM
0200c1a8 g     F .text	000003d0 __multiply
0201a868 g     F .text	00000068 altera_avalon_jtag_uart_close
0201ccd4 g       *ABS*	00000000 __ram_rwdata_start
0201c7b8 g       *ABS*	00000000 __ram_rodata_start
0202049c g     O .bss	00000028 __malloc_current_mallinfo
0201e7e6 g     O .rwdata	00000002 OSEventMax
0200cf70 g     F .text	00000240 __d2b
020181d4 g     F .text	00000110 OSSemPost
02012954 g     F .text	000000dc OSSchedUnlock
0201a214 g     F .text	00000060 altera_avalon_jtag_uart_read_fd
0201c068 g     F .text	000000dc alt_get_fd
0202045c g     O .bss	00000004 OSMemFreeList
02012aa0 g     F .text	000000b0 OSStatInit
020152d8 g     F .text	000000c4 OSFlagQuery
0201e81c g     O .rwdata	00000002 OSTaskCreateExtEn
0200fb34 g     F .text	00000060 _close_r
0201c2f4 g     F .text	00000134 memcmp
02012d90 g     F .text	00000020 OS_Dummy
0201a2d4 g     F .text	00000050 altera_avalon_jtag_uart_close_fd
020277e8 g       *ABS*	00000000 __alt_stack_base
0201a324 g     F .text	00000054 altera_avalon_jtag_uart_ioctl_fd
020067cc g     F .text	000001a0 __swsetup_r
02025c64 g     O .bss	000001e0 OSQTbl
02002078 g     F .text	000008e8 .hidden __divdf3
02008e10 g     F .text	00000194 __sfp
0200d37c g     F .text	000000d0 __copybits
0201d170 g     O .rwdata	00000408 __malloc_av_
02009154 g     F .text	00000020 __sinit_lock_release
02020460 g     O .bss	00000004 OSTCBHighRdy
02002bb8 g     F .text	00000718 .hidden __muldf3
0200e1d0 g     F .text	0000009c __sread
02020464 g     O .bss	00000004 OSQFreeList
0201bf60 g     F .text	00000108 alt_find_file
0201b1e4 g     F .text	000000a4 alt_dev_llist_insert
02011cd0 g     F .text	00000120 __malloc_lock
020119c8 g     F .text	000000b0 sbrk
02011fdc g     F .text	00000140 OSEventNameSet
02008b9c g     F .text	00000088 _fflush_r
0200fb94 g     F .text	00000164 _calloc_r
02020468 g     O .bss	00000001 OSRdyGrp
020203e4 g       *ABS*	00000000 __bss_start
0200b944 g     F .text	000001c4 memset
02000dd0 g     F .text	000000d4 main
02020424 g     O .bss	00000004 alt_envp
02020410 g     O .bss	00000004 __malloc_max_total_mem
0201a274 g     F .text	00000060 altera_avalon_jtag_uart_write_fd
02010450 g     F .text	00000040 __swbuf
0201cba0 g     O .rodata	00000100 OSUnMapTbl
0201e816 g     O .rwdata	00000002 OSSemEn
02014f44 g     F .text	00000394 OSFlagPost
0200e3f0 g     F .text	00000054 __sclose
02001764 g     F .text	00000068 matherr
04000000 g       *ABS*	00000000 __alt_heap_limit
0200fe24 g     F .text	00000038 fclose
02012f48 g     F .text	00000110 OS_EventTaskWait
020224c4 g     O .bss	00002000 task2_stk
02013b30 g     F .text	000000cc OS_TaskStatStkChk
020190b8 g     F .text	00000150 OSTaskDelReq
02006d20 g     F .text	00001b78 _dtoa_r
0200a87c g     F .text	00000b7c _malloc_r
020106a0 g     F .text	00000078 __ascii_wctomb
0201e7cc g     O .rwdata	00000004 alt_errno
02012a30 g     F .text	00000070 OSStart
02011c70 g     F .text	00000060 __env_unlock
02009f44 g     F .text	000000d8 _fwalk
02019554 g     F .text	000001d4 OSTaskResume
020167dc g     F .text	000000e8 OSMemQuery
0201e828 g     O .rwdata	00000002 OSTaskStatEn
0201e802 g     O .rwdata	00000002 OSMemMax
02017514 g     F .text	00000170 OSQPostFront
02003d8c g     F .text	00000084 .hidden __divsi3
02020469 g     O .bss	00000003 OSRdyTbl
0201e7dc g     O .rwdata	00000002 OSDebugEn
0200979c g     F .text	000001cc _malloc_trim_r
0201c7b8 g       *ABS*	00000000 __CTOR_END__
0201e7f4 g     O .rwdata	00000002 OSFlagNodeSize
0201e83c g     O .rwdata	00000002 OSTmrCfgMax
0200e444 g     F .text	00000140 strcmp
02016ad0 g     F .text	000001ac OSQCreate
02019208 g     F .text	00000198 OSTaskNameGet
0201c7b8 g       *ABS*	00000000 __flash_rodata_start
02017684 g     F .text	0000020c OSQPostOpt
02012b50 g     F .text	00000220 OSTimeTick
0201e824 g     O .rwdata	00000002 OSTaskMax
0201c7b8 g       *ABS*	00000000 __DTOR_LIST__
02017b44 g     F .text	000000d8 OSSemCreate
0201e848 g     O .rwdata	00000002 OSTmrWheelSize
02002960 g     F .text	00000088 .hidden __nedf2
0201e81e g     O .rwdata	00000002 OSTaskDelEn
020182e4 g     F .text	00000110 OSSemQuery
02016c7c g     F .text	00000280 OSQDel
02017240 g     F .text	0000016c OSQPendAbort
0201a17c g     F .text	00000038 alt_irq_init
02011964 g     F .text	00000064 alt_release_fd
0201c841 g     O .rodata	00000100 .hidden __clz_tab
02020400 g     O .bss	00000004 _PathLocale
0201c270 g     F .text	0000003c atexit
0200fac4 g     F .text	00000070 _write_r
020128c8 g     F .text	0000008c OSSchedLock
0200a22c g     F .text	00000040 setlocale
02014368 g     F .text	00000108 OSFlagCreate
0201e7a0 g     O .rwdata	00000004 _impure_ptr
0202041c g     O .bss	00000004 alt_argc
02008898 g     F .text	00000304 __sflush_r
0201b2e8 g     F .text	00000060 _do_dtors
0200a1e4 g     F .text	00000020 __locale_cjk_lang
0201e7ee g     O .rwdata	00000002 OSEventMultiEn
02014470 g     F .text	00000248 OSFlagDel
0202046c g     O .bss	00000004 OSEventFreeList
02000020 g       .exceptions	00000000 alt_irq_entry
02015d54 g     F .text	0000016c OSMboxPendAbort
0200cca0 g     F .text	000000cc __ulp
0201492c g     F .text	000005b8 OSFlagPend
0201e83a g     O .rwdata	00000002 OSTmrEn
020091fc g     F .text	00000040 __fp_unlock_all
0201e7b8 g     O .rwdata	00000008 alt_fs_list
02013940 g     F .text	00000074 OS_StrCopy
0201e804 g     O .rwdata	00000002 OSMemNameSize
0201be6c g     F .text	00000020 OSInitHookEnd
02000020 g       *ABS*	00000000 __ram_exceptions_start
0201e830 g     O .rwdata	00000002 OSTCBPrioTblMax
0200a26c g     F .text	00000030 localeconv
02001018 g     F .text	00000648 __ieee754_sqrt
0201e82c g     O .rwdata	00000002 OSTaskStatStkChkEn
0201580c g     F .text	000000d4 OSMboxCreate
0201b37c g     F .text	00000050 alt_ic_isr_register
0201e800 g     O .rwdata	00000002 OSMemEn
0201e80a g     O .rwdata	00000002 OSMutexEn
0201e85c g       *ABS*	00000000 _edata
020277e8 g       *ABS*	00000000 _end
02020470 g     O .bss	00000001 OSIntNesting
0200fe5c g     F .text	000001f4 __fputwc
02000244 g       *ABS*	00000000 __ram_exceptions_end
0201a8d0 g     F .text	000000f0 altera_avalon_jtag_uart_ioctl
02019eb8 g     F .text	000001d4 OSTimeDlyResume
020147e0 g     F .text	0000014c OSFlagNameSet
02015b20 g     F .text	00000234 OSMboxPend
02019728 g     F .text	000001c0 OSTaskStkChk
0201b454 g     F .text	0000008c alt_ic_irq_disable
0201e806 g     O .rwdata	00000002 OSMemSize
0200e29c g     F .text	000000b4 __swrite
0201e7ac g     O .rwdata	00000004 __malloc_trim_threshold
0200a1c0 g     F .text	00000024 __locale_msgcharset
02020474 g     O .bss	00000004 OSTCBCur
0201c2ac g     F .text	00000048 exit
0201e808 g     O .rwdata	00000002 OSMemTblSize
0200a01c g     F .text	000000dc _fwalk_reent
020203ec g     O .bss	00000004 MailBox1
0200c9fc g     F .text	000002a4 __mdiff
02003e10 g     F .text	00000074 .hidden __modsi3
02015774 g     F .text	00000098 OSMboxAccept
04000000 g       *ABS*	00000000 __alt_data_end
02000020 g     F .exceptions	00000000 alt_exception
02009114 g     F .text	00000020 __sfp_lock_release
0201272c g     F .text	00000058 OSInit
02019acc g     F .text	00000124 OSTaskQuery
020179ec g     F .text	000000a8 OS_QInit
020139b4 g     F .text	00000054 OS_StrLen
020165f0 g     F .text	00000114 OSMemNameSet
0201e822 g     O .rwdata	00000002 OSTaskProfileEn
02020478 g     O .bss	00000004 OSTime
02025e44 g     O .bss	00000800 OSTaskIdleStk
0201c784 g     F .text	00000034 _exit
02015fd0 g     F .text	0000015c OSMboxPostOpt
0201b034 g     F .text	0000012c alt_alarm_start
020146b8 g     F .text	00000128 OSFlagNameGet
02000c98 g     F .text	00000138 detect_collide
0201a08c g     F .text	0000005c OSTimeGet
0200a29c g     F .text	0000022c __smakebuf_r
0200417c g     F .text	000000f4 strlen
0201bdec g     F .text	00000020 OSTaskSwHook
0201b85c g     F .text	00000154 open
02026644 g     O .bss	00000b40 OSEventTbl
020029e8 g     F .text	000000dc .hidden __gedf2
02027184 g     O .bss	00000510 OSTCBTbl
020183f4 g     F .text	00000100 OSSemSet
0201e7b4 g     O .rwdata	00000004 __wctomb
0200e584 g     F .text	0000013c __sprint_r
0201b348 g     F .text	00000034 alt_icache_flush_all
0201e850 g     O .rwdata	00000004 alt_priority_mask
02017c1c g     F .text	00000240 OSSemDel
0202047c g     O .bss	00000004 OSFlagFreeList
0201b3cc g     F .text	00000088 alt_ic_irq_enable
0201e7e8 g     O .rwdata	00000002 OSEventNameSize
020158e0 g     F .text	00000240 OSMboxDel
02004360 g     F .text	00000050 __vfprintf_internal
02020480 g     O .bss	00000001 OSStatRdy
02027694 g     O .bss	00000054 OSTCBPrioTbl
0201063c g     F .text	00000064 _wctomb_r
02011bac g     F .text	000000c4 __env_lock
0201e82e g     O .rwdata	00000002 OSTaskSwHookEn
020032d0 g     F .text	000008fc .hidden __subdf3
0200c064 g     F .text	000000ec __lo0bits
0201e854 g     O .rwdata	00000008 alt_alarm_list
0201e7f6 g     O .rwdata	00000002 OSFlagWidth
0201b288 g     F .text	00000060 _do_ctors
02010564 g     F .text	000000d8 wcrtomb
020112ac g     F .text	000000d0 close
0202042c g     O .bss	00000004 alt_envsem
02020484 g     O .bss	00000004 OSIdleCtrRun
02012d70 g     F .text	00000020 OSVersion
0201e840 g     O .rwdata	00000002 OSTmrCfgWheelSize
020115dc g     F .text	00000084 alt_load
02019bf0 g     F .text	00000070 OS_TaskStkClr
0201e81a g     O .rwdata	00000002 OSTaskCreateEn
02013360 g     F .text	00000068 OS_EventWaitListInit
020100d8 g     F .text	00000068 fputwc
0201be8c g     F .text	00000020 OSTaskIdleHook
02009134 g     F .text	00000020 __sinit_lock_acquire
0200bcb4 g     F .text	00000194 __multadd
020198e8 g     F .text	000001e4 OSTaskSuspend
0200bc38 g     F .text	0000007c _Bfree
02013a08 g     F .text	0000005c OS_TaskIdle
0201e846 g     O .rwdata	00000002 OSTmrTblSize
02017890 g     F .text	0000015c OSQQuery



Disassembly of section .entry:

02000000 <__reset>:
#if NIOS2_ICACHE_SIZE > 0 && defined(ALT_ALLOW_CODE_AT_RESET) && (!defined(ALT_SIM_OPTIMIZE) || defined(NIOS2_ECC_PRESENT))
    /* Assume the instruction cache size is always a power of two. */
#if NIOS2_ICACHE_SIZE > 0x8000
    movhi r2, %hi(NIOS2_ICACHE_SIZE)
#else
    movui r2, NIOS2_ICACHE_SIZE
 2000000:	00840014 	movui	r2,4096
#endif

0:
    initi r2
 2000004:	1001483a 	initi	r2
    addi r2, r2, -NIOS2_ICACHE_LINE_SIZE
 2000008:	10bff804 	addi	r2,r2,-32
    bgt r2, zero, 0b
 200000c:	00bffd16 	blt	zero,r2,2000004 <__reset+0x4>
 * Jump to the _start entry point in the .text section if reset code
 * is allowed or if optimizing for RTL simulation.
 */
#if defined(ALT_ALLOW_CODE_AT_RESET) || defined(ALT_SIM_OPTIMIZE)
    /* Jump to the _start entry point in the .text section. */
    movhi r1, %hi(_start)
 2000010:	00408034 	movhi	at,512
    ori r1, r1, %lo(_start)
 2000014:	08409114 	ori	at,at,580
    jmp r1
 2000018:	0800683a 	jmp	at
 200001c:	00000000 	call	0 <OSTCBStkPtr_OFFSET>

Disassembly of section .exceptions:

02000020 <alt_exception>:

#else /* ALT_EXCEPTION_STACK disabled */
        /* 
         * Reserve space on normal stack for registers about to be pushed.
         */
        addi  sp, sp, -76
 2000020:	deffed04 	addi	sp,sp,-76
         * documentation for details).
         *
         * Leave a gap in the stack frame at 4(sp) for the muldiv handler to
         * store zero into.
         */
        stw   ra,  0(sp)
 2000024:	dfc00015 	stw	ra,0(sp)
        stw   r1,   8(sp)
 2000028:	d8400215 	stw	at,8(sp)
        stw   r2,  12(sp)
 200002c:	d8800315 	stw	r2,12(sp)
        stw   r3,  16(sp)
 2000030:	d8c00415 	stw	r3,16(sp)
        stw   r4,  20(sp)
 2000034:	d9000515 	stw	r4,20(sp)
        stw   r5,  24(sp)
 2000038:	d9400615 	stw	r5,24(sp)
        stw   r6,  28(sp)
 200003c:	d9800715 	stw	r6,28(sp)
        stw   r7,  32(sp)
 2000040:	d9c00815 	stw	r7,32(sp)
        rdctl r5, estatus   /* Read early to avoid usage stall */
 2000044:	000b307a 	rdctl	r5,estatus
        stw   r8,  36(sp)
 2000048:	da000915 	stw	r8,36(sp)
        stw   r9,  40(sp)
 200004c:	da400a15 	stw	r9,40(sp)
        stw   r10, 44(sp)
 2000050:	da800b15 	stw	r10,44(sp)
        stw   r11, 48(sp)
 2000054:	dac00c15 	stw	r11,48(sp)
        stw   r12, 52(sp)
 2000058:	db000d15 	stw	r12,52(sp)
        stw   r13, 56(sp)
 200005c:	db400e15 	stw	r13,56(sp)
        stw   r14, 60(sp)
 2000060:	db800f15 	stw	r14,60(sp)
        stw   r15, 64(sp)
 2000064:	dbc01015 	stw	r15,64(sp)
        /*
         * ea-4 contains the address of the instruction being executed
         * when the exception occured. For interrupt exceptions, we will
         * will be re-issue the isntruction. Store it in 72(sp)
         */
        stw   r5,  68(sp)  /* estatus */
 2000068:	d9401115 	stw	r5,68(sp)
        addi  r15, ea, -4  /* instruction that caused exception */
 200006c:	ebffff04 	addi	r15,ea,-4
        stw   r15,  72(sp)
 2000070:	dbc01215 	stw	r15,72(sp)
#else
        /*
         * Test to see if the exception was a software exception or caused 
         * by an external interrupt, and vector accordingly.
         */
        rdctl r4, ipending
 2000074:	0009313a 	rdctl	r4,ipending
        andi  r2, r5, 1
 2000078:	2880004c 	andi	r2,r5,1
        beq   r2, zero, .Lnot_irq
 200007c:	10000326 	beq	r2,zero,200008c <alt_exception+0x6c>
        beq   r4, zero, .Lnot_irq
 2000080:	20000226 	beq	r4,zero,200008c <alt_exception+0x6c>
        /*
         * Now that all necessary registers have been preserved, call 
         * alt_irq_handler() to process the interrupts.
         */

        call alt_irq_handler
 2000084:	20000fc0 	call	20000fc <alt_irq_handler>

        .section .exceptions.irqreturn, "xa"

        br    .Lexception_exit
 2000088:	00000706 	br	20000a8 <alt_exception+0x88>
         * upon completion, so we write ea (address of instruction *after*
         * the one where the exception occured) into 72(sp). The actual
         * instruction that caused the exception is written in r2, which these
         * handlers will utilize.
         */
        stw ea, 72(sp) /* EA is PC+4 so will skip over instruction causing exception */
 200008c:	df401215 	stw	ea,72(sp)
.Lunknown_16bit:
        addi.n r4, r4, 2 /* Need PC+2 to skip over instruction causing exception */
        stw r4, 72(sp)

#else /* CDX is not Enabled and all instructions are 32bits */
        ldw r2, -4(ea) /* Instruction value that caused exception */
 2000090:	e8bfff17 	ldw	r2,-4(ea)
         * debugger is present) or go into an infinite loop since the
         * handling behavior is undefined; in that case we will not return here.
         */

        /* Load exception-causing address as first argument (r4) */
        addi   r4, ea, -4
 2000094:	e93fff04 	addi	r4,ea,-4

        /* Call the instruction-exception entry */
        call   alt_instruction_exception_entry
 2000098:	20001d00 	call	20001d0 <alt_instruction_exception_entry>
         * instruction
         *
         * Return code was 0: Skip. The instruction after the exception is
         * already stored in 72(sp).
         */
        bne   r2, r0, .Lexception_exit
 200009c:	1000021e 	bne	r2,zero,20000a8 <alt_exception+0x88>

        /*
         * Otherwise, modify 72(sp) to re-issue the instruction that caused the
         * exception.
         */
        addi  r15, ea, -4  /* instruction that caused exception */
 20000a0:	ebffff04 	addi	r15,ea,-4
        stw   r15,  72(sp)
 20000a4:	dbc01215 	stw	r15,72(sp)
        /* 
         * Restore the saved registers, so that all general purpose registers 
         * have been restored to their state at the time the interrupt occured.
         */

        ldw   r5,  68(sp)
 20000a8:	d9401117 	ldw	r5,68(sp)
        ldw   ea,  72(sp)  /* This becomes the PC once eret is executed */
 20000ac:	df401217 	ldw	ea,72(sp)
        ldw   ra,   0(sp)
 20000b0:	dfc00017 	ldw	ra,0(sp)

        wrctl estatus, r5
 20000b4:	2801707a 	wrctl	estatus,r5

        ldw   r1,   8(sp)
 20000b8:	d8400217 	ldw	at,8(sp)
        ldw   r2,  12(sp)
 20000bc:	d8800317 	ldw	r2,12(sp)
        ldw   r3,  16(sp)
 20000c0:	d8c00417 	ldw	r3,16(sp)
        ldw   r4,  20(sp)
 20000c4:	d9000517 	ldw	r4,20(sp)
        ldw   r5,  24(sp)
 20000c8:	d9400617 	ldw	r5,24(sp)
        ldw   r6,  28(sp)
 20000cc:	d9800717 	ldw	r6,28(sp)
        ldw   r7,  32(sp)
 20000d0:	d9c00817 	ldw	r7,32(sp)

#if defined(ALT_EXCEPTION_STACK) && defined(ALT_STACK_CHECK)
        ldw   et, %gprel(alt_exception_old_stack_limit)(gp)
#endif

        ldw   r8,  36(sp)
 20000d4:	da000917 	ldw	r8,36(sp)
        ldw   r9,  40(sp)
 20000d8:	da400a17 	ldw	r9,40(sp)
        ldw   r10, 44(sp)
 20000dc:	da800b17 	ldw	r10,44(sp)
        ldw   r11, 48(sp)
 20000e0:	dac00c17 	ldw	r11,48(sp)
        ldw   r12, 52(sp)
 20000e4:	db000d17 	ldw	r12,52(sp)
        ldw   r13, 56(sp)
 20000e8:	db400e17 	ldw	r13,56(sp)
        ldw   r14, 60(sp)
 20000ec:	db800f17 	ldw	r14,60(sp)
        ldw   r15, 64(sp)
 20000f0:	dbc01017 	ldw	r15,64(sp)
        stw   et, %gprel(alt_stack_limit_value)(gp)
        stw   zero, %gprel(alt_exception_old_stack_limit)(gp)
#endif /* ALT_STACK_CHECK */
        ldw   sp,  76(sp)
#else /* ALT_EXCEPTION_STACK disabled */
        addi  sp, sp, 76
 20000f4:	dec01304 	addi	sp,sp,76

        /*
         * Return to the interrupted instruction.
         */

        eret
 20000f8:	ef80083a 	eret

020000fc <alt_irq_handler>:
 * instruction is present if the macro ALT_CI_INTERRUPT_VECTOR defined.
 */

void alt_irq_handler (void) __attribute__ ((section (".exceptions")));
void alt_irq_handler (void)
{
 20000fc:	defff904 	addi	sp,sp,-28
 2000100:	dfc00615 	stw	ra,24(sp)
 2000104:	df000515 	stw	fp,20(sp)
 2000108:	df000504 	addi	fp,sp,20
  
  /*
   * Notify the operating system that we are at interrupt level.
   */ 
  
  ALT_OS_INT_ENTER();
 200010c:	20127840 	call	2012784 <OSIntEnter>
#ifndef NIOS2_EIC_PRESENT
static ALT_INLINE alt_u32 ALT_ALWAYS_INLINE alt_irq_pending (void)
{
  alt_u32 active;

  NIOS2_READ_IPENDING (active);
 2000110:	0005313a 	rdctl	r2,ipending
 2000114:	e0bffe15 	stw	r2,-8(fp)

  return active;
 2000118:	e0bffe17 	ldw	r2,-8(fp)
   * Consider the case where the high priority interupt is asserted during
   * the interrupt entry sequence for a lower priority interrupt to see why
   * this is the case.
   */

  active = alt_irq_pending ();
 200011c:	e0bffb15 	stw	r2,-20(fp)

  do
  {
    i = 0;
 2000120:	e03ffd15 	stw	zero,-12(fp)
    mask = 1;
 2000124:	00800044 	movi	r2,1
 2000128:	e0bffc15 	stw	r2,-16(fp)
     * called to clear the interrupt condition.
     */

    do
    {
      if (active & mask)
 200012c:	e0fffb17 	ldw	r3,-20(fp)
 2000130:	e0bffc17 	ldw	r2,-16(fp)
 2000134:	1884703a 	and	r2,r3,r2
 2000138:	10001426 	beq	r2,zero,200018c <alt_irq_handler+0x90>
      { 
#ifdef ALT_ENHANCED_INTERRUPT_API_PRESENT
        alt_irq[i].handler(alt_irq[i].context); 
 200013c:	008080b4 	movhi	r2,514
 2000140:	109dba04 	addi	r2,r2,30440
 2000144:	e0fffd17 	ldw	r3,-12(fp)
 2000148:	180690fa 	slli	r3,r3,3
 200014c:	10c5883a 	add	r2,r2,r3
 2000150:	10c00017 	ldw	r3,0(r2)
 2000154:	008080b4 	movhi	r2,514
 2000158:	109dba04 	addi	r2,r2,30440
 200015c:	e13ffd17 	ldw	r4,-12(fp)
 2000160:	200890fa 	slli	r4,r4,3
 2000164:	1105883a 	add	r2,r2,r4
 2000168:	10800104 	addi	r2,r2,4
 200016c:	10800017 	ldw	r2,0(r2)
 2000170:	1009883a 	mov	r4,r2
 2000174:	183ee83a 	callr	r3
#else
        alt_irq[i].handler(alt_irq[i].context, i); 
#endif
        break;
 2000178:	0001883a 	nop
#ifndef NIOS2_EIC_PRESENT
static ALT_INLINE alt_u32 ALT_ALWAYS_INLINE alt_irq_pending (void)
{
  alt_u32 active;

  NIOS2_READ_IPENDING (active);
 200017c:	0005313a 	rdctl	r2,ipending
 2000180:	e0bfff15 	stw	r2,-4(fp)

  return active;
 2000184:	e0bfff17 	ldw	r2,-4(fp)
 2000188:	00000706 	br	20001a8 <alt_irq_handler+0xac>
      }
      mask <<= 1;
 200018c:	e0bffc17 	ldw	r2,-16(fp)
 2000190:	1085883a 	add	r2,r2,r2
 2000194:	e0bffc15 	stw	r2,-16(fp)
      i++;
 2000198:	e0bffd17 	ldw	r2,-12(fp)
 200019c:	10800044 	addi	r2,r2,1
 20001a0:	e0bffd15 	stw	r2,-12(fp)

    } while (1);
 20001a4:	003fe106 	br	200012c <alt_irq_handler+0x30>

    active = alt_irq_pending ();
 20001a8:	e0bffb15 	stw	r2,-20(fp)
    
  } while (active);
 20001ac:	e0bffb17 	ldw	r2,-20(fp)
 20001b0:	103fdb1e 	bne	r2,zero,2000120 <alt_irq_handler+0x24>

  /*
   * Notify the operating system that interrupt processing is complete.
   */ 

  ALT_OS_INT_EXIT();
 20001b4:	20127d00 	call	20127d0 <OSIntExit>
}
 20001b8:	0001883a 	nop
 20001bc:	e037883a 	mov	sp,fp
 20001c0:	dfc00117 	ldw	ra,4(sp)
 20001c4:	df000017 	ldw	fp,0(sp)
 20001c8:	dec00204 	addi	sp,sp,8
 20001cc:	f800283a 	ret

020001d0 <alt_instruction_exception_entry>:
 * that handler if it has been registered. Absent a handler, it will
 * break break or hang as discussed below.
 */
int 
alt_instruction_exception_entry (alt_u32 exception_pc)
{
 20001d0:	defffb04 	addi	sp,sp,-20
 20001d4:	dfc00415 	stw	ra,16(sp)
 20001d8:	df000315 	stw	fp,12(sp)
 20001dc:	df000304 	addi	fp,sp,12
 20001e0:	e13fff15 	stw	r4,-4(fp)
 * NIOS2_EXCEPTION_CAUSE_NOT_PRESENT. Your handling routine should
 * check the validity of the cause argument before proceeding.
 */
#ifdef NIOS2_HAS_EXTRA_EXCEPTION_INFO
  /* Get exception cause & "badaddr" */
  NIOS2_READ_EXCEPTION(cause);
 20001e4:	000531fa 	rdctl	r2,exception
 20001e8:	e0bffd15 	stw	r2,-12(fp)
  cause = ( (cause & NIOS2_EXCEPTION_REG_CAUSE_MASK) >>
 20001ec:	e0bffd17 	ldw	r2,-12(fp)
 20001f0:	10801f0c 	andi	r2,r2,124
 20001f4:	1004d0ba 	srli	r2,r2,2
 20001f8:	e0bffd15 	stw	r2,-12(fp)
              NIOS2_EXCEPTION_REG_CAUSE_OFST );

  NIOS2_READ_BADADDR(badaddr);
 20001fc:	0005333a 	rdctl	r2,badaddr
 2000200:	e0bffe15 	stw	r2,-8(fp)
#else
  cause = NIOS2_EXCEPTION_CAUSE_NOT_PRESENT;
  badaddr = 0;
#endif /* NIOS2_HAS_EXTRA_EXCEPTION_INFO */

  if(alt_instruction_exception_handler) {
 2000204:	d0a74217 	ldw	r2,-25336(gp)
 2000208:	10000726 	beq	r2,zero,2000228 <alt_instruction_exception_entry+0x58>
     * Call handler. Its return value indicates whether the exception-causing
     * instruction should be re-issued. The code that called us,
     * alt_eceptions_entry.S, will look at this value and adjust the ea
     * register as necessary
     */
    return alt_instruction_exception_handler(cause, exception_pc, badaddr);
 200020c:	d0a74217 	ldw	r2,-25336(gp)
 2000210:	e0fffd17 	ldw	r3,-12(fp)
 2000214:	e1bffe17 	ldw	r6,-8(fp)
 2000218:	e17fff17 	ldw	r5,-4(fp)
 200021c:	1809883a 	mov	r4,r3
 2000220:	103ee83a 	callr	r2
 2000224:	00000206 	br	2000230 <alt_instruction_exception_entry+0x60>
   *    (a peripheral which negates its interrupt output before its
   *    interrupt handler has been executed will cause spurious interrupts)
   */
  else {
#ifdef NIOS2_HAS_DEBUG_STUB
    NIOS2_BREAK();
 2000228:	003da03a 	break	0
      ;
#endif /* NIOS2_HAS_DEBUG_STUB */
  }

  /* We should not get here. Remove compiler warning. */
  return NIOS2_EXCEPTION_RETURN_REISSUE_INST;
 200022c:	0005883a 	mov	r2,zero
}
 2000230:	e037883a 	mov	sp,fp
 2000234:	dfc00117 	ldw	ra,4(sp)
 2000238:	df000017 	ldw	fp,0(sp)
 200023c:	dec00204 	addi	sp,sp,8
 2000240:	f800283a 	ret

Disassembly of section .text:

02000244 <_start>:

    /* Assume the data cache size is always a power of two. */
#if NIOS2_DCACHE_SIZE > 0x8000
    movhi r2, %hi(NIOS2_DCACHE_SIZE)
#else
    movui r2, NIOS2_DCACHE_SIZE
 2000244:	00820014 	movui	r2,2048
#endif

0:
    initd 0(r2)
 2000248:	10000033 	initd	0(r2)
#ifdef NIOS2_ECC_PRESENT
    addi r2, r2, -4
#else
    addi r2, r2, -NIOS2_DCACHE_LINE_SIZE
 200024c:	10bff804 	addi	r2,r2,-32
#endif
    bgt r2, zero, 0b
 2000250:	00bffd16 	blt	zero,r2,2000248 <_start+0x4>

    /*
     * Now that the caches are initialized, set up the stack pointer and global pointer.
     * The values provided by the linker are assumed to be correctly aligned.
     */
    movhi sp, %hi(__alt_stack_pointer)
 2000254:	06c10034 	movhi	sp,1024
    ori sp, sp, %lo(__alt_stack_pointer)
 2000258:	dec00014 	ori	sp,sp,0
    movhi gp, %hi(_gp)
 200025c:	068080b4 	movhi	gp,514
    ori gp, gp, %lo(_gp)
 2000260:	d699e314 	ori	gp,gp,26508
 */
#ifndef ALT_SIM_OPTIMIZE
    /* Log that the BSS is about to be cleared. */
    ALT_LOG_PUTS(alt_log_msg_bss)

    movhi r2, %hi(__bss_start)
 2000264:	008080b4 	movhi	r2,514
    ori r2, r2, %lo(__bss_start)
 2000268:	1080f914 	ori	r2,r2,996

    movhi r3, %hi(__bss_end)
 200026c:	00c080b4 	movhi	r3,514
    ori r3, r3, %lo(__bss_end)
 2000270:	18ddfa14 	ori	r3,r3,30696

    beq r2, r3, 1f
 2000274:	10c00326 	beq	r2,r3,2000284 <_start+0x40>

0:
    stw zero, (r2)
 2000278:	10000015 	stw	zero,0(r2)
    addi r2, r2, 4
 200027c:	10800104 	addi	r2,r2,4
    bltu r2, r3, 0b
 2000280:	10fffd36 	bltu	r2,r3,2000278 <_start+0x34>
     * section aren't defined until alt_load() has been called).
     */
    mov   et, zero
#endif

    call alt_load
 2000284:	20115dc0 	call	20115dc <alt_load>

    /* Log that alt_main is about to be called. */
    ALT_LOG_PUTS(alt_log_msg_alt_main)

    /* Call the C entry point. It should never return. */
    call alt_main
 2000288:	20117700 	call	2011770 <alt_main>

0200028c <alt_after_alt_main>:

    /* Wait in infinite loop in case alt_main does return. */
alt_after_alt_main:
    br alt_after_alt_main
 200028c:	003fff06 	br	200028c <alt_after_alt_main>

02000290 <task1>:
OS_EVENT *MailBox2;
OS_EVENT *MailBox3;

/* Prints "Hello World" and sleeps for three seconds */
void task1(void* pdata)
{
 2000290:	deffe404 	addi	sp,sp,-112
 2000294:	dfc01b15 	stw	ra,108(sp)
 2000298:	df001a15 	stw	fp,104(sp)
 200029c:	df001a04 	addi	fp,sp,104
 20002a0:	e13fff15 	stw	r4,-4(fp)
	volatile int * MTL_controller = (int *) MTL_IP_BASE;
 20002a4:	008000b4 	movhi	r2,2
 20002a8:	e0bfef15 	stw	r2,-68(fp)
	int count_old = 0;
 20002ac:	e03ff015 	stw	zero,-64(fp)
	int count = 0;
 20002b0:	e03fe715 	stw	zero,-100(fp)

	int x1_gesture_start, x1_gesture_stop, x2_gesture_start, x2_gesture_stop ;
	int y1_gesture_start, y1_gesture_stop, y2_gesture_start, y2_gesture_stop;

	int gesture_detected = 0;
 20002b4:	e03fee15 	stw	zero,-72(fp)

	while (1){
			count_old = count;
 20002b8:	e0bfe717 	ldw	r2,-100(fp)
 20002bc:	e0bff015 	stw	r2,-64(fp)
			count = *(MTL_controller + 10); // récupère le nombre de doigts présent sur l'écran
 20002c0:	e0bfef17 	ldw	r2,-68(fp)
 20002c4:	10800a17 	ldw	r2,40(r2)
 20002c8:	e0bfe715 	stw	r2,-100(fp)
			//printf("count : %d\n", count);
			//OSTimeDlyHMSM(0,0,0,75);
			int pos1 = *(MTL_controller + 11);
 20002cc:	e0bfef17 	ldw	r2,-68(fp)
 20002d0:	10800b17 	ldw	r2,44(r2)
 20002d4:	e0bff115 	stw	r2,-60(fp)
			//printf("pos1 : (%d, %d)\n", pos1 & 0x0003FF, pos1 >> 10);
			//OSTimeDlyHMSM(0,0,0,100);
			int pos2 = *(MTL_controller + 12);
 20002d8:	e0bfef17 	ldw	r2,-68(fp)
 20002dc:	10800c17 	ldw	r2,48(r2)
 20002e0:	e0bff215 	stw	r2,-56(fp)
			if(count_old == 1 && count == 2) // si on passe de 1 à deux doigts
 20002e4:	e0bff017 	ldw	r2,-64(fp)
 20002e8:	10800058 	cmpnei	r2,r2,1
 20002ec:	1000121e 	bne	r2,zero,2000338 <task1+0xa8>
 20002f0:	e0bfe717 	ldw	r2,-100(fp)
 20002f4:	10800098 	cmpnei	r2,r2,2
 20002f8:	10000f1e 	bne	r2,zero,2000338 <task1+0xa8>
			{
				printf("start gesture\n");
 20002fc:	010080b4 	movhi	r4,514
 2000300:	2131ee04 	addi	r4,r4,-14408
 2000304:	20041440 	call	2004144 <puts>
				x1_gesture_start = pos1 & 0x0003FF;
 2000308:	e0bff117 	ldw	r2,-60(fp)
 200030c:	1080ffcc 	andi	r2,r2,1023
 2000310:	e0bfe815 	stw	r2,-96(fp)
				y1_gesture_start = pos1 >> 10;
 2000314:	e0bff117 	ldw	r2,-60(fp)
 2000318:	1005d2ba 	srai	r2,r2,10
 200031c:	e0bfeb15 	stw	r2,-84(fp)

				x2_gesture_start = pos2 & 0x0003FF;
 2000320:	e0bff217 	ldw	r2,-56(fp)
 2000324:	1080ffcc 	andi	r2,r2,1023
 2000328:	e0bfe915 	stw	r2,-92(fp)
				y2_gesture_start = pos2 >> 10;
 200032c:	e0bff217 	ldw	r2,-56(fp)
 2000330:	1005d2ba 	srai	r2,r2,10
 2000334:	e0bfec15 	stw	r2,-80(fp)
			}
			if(count_old == 2 && count == 1) // si on pass de 2 à 1 doigt
 2000338:	e0bff017 	ldw	r2,-64(fp)
 200033c:	10800098 	cmpnei	r2,r2,2
 2000340:	1000261e 	bne	r2,zero,20003dc <task1+0x14c>
 2000344:	e0bfe717 	ldw	r2,-100(fp)
 2000348:	10800058 	cmpnei	r2,r2,1
 200034c:	1000231e 	bne	r2,zero,20003dc <task1+0x14c>
			{
				printf("stop gesture\n");
 2000350:	010080b4 	movhi	r4,514
 2000354:	2131f204 	addi	r4,r4,-14392
 2000358:	20041440 	call	2004144 <puts>
				x1_gesture_stop = pos1 & 0x0003FF;
 200035c:	e0bff117 	ldw	r2,-60(fp)
 2000360:	1080ffcc 	andi	r2,r2,1023
 2000364:	e0bff315 	stw	r2,-52(fp)
				y1_gesture_stop = pos1 >> 10;
 2000368:	e0bff117 	ldw	r2,-60(fp)
 200036c:	1005d2ba 	srai	r2,r2,10
 2000370:	e0bff415 	stw	r2,-48(fp)

				x2_gesture_stop = pos2 & 0x0003FF;
 2000374:	e0bff217 	ldw	r2,-56(fp)
 2000378:	1080ffcc 	andi	r2,r2,1023
 200037c:	e0bfea15 	stw	r2,-88(fp)
				y2_gesture_stop = pos2 >> 10;
 2000380:	e0bff217 	ldw	r2,-56(fp)
 2000384:	1005d2ba 	srai	r2,r2,10
 2000388:	e0bfed15 	stw	r2,-76(fp)
				gesture_detected =     (x1_gesture_start -30 <= x1_gesture_stop && x1_gesture_stop <= x1_gesture_start + 30)
 200038c:	e0bfe817 	ldw	r2,-96(fp)
 2000390:	10bff884 	addi	r2,r2,-30
									&& (y1_gesture_start -30 <= y1_gesture_stop && y1_gesture_stop <= y1_gesture_start + 30);
 2000394:	e0fff317 	ldw	r3,-52(fp)
 2000398:	18800e16 	blt	r3,r2,20003d4 <task1+0x144>
				x1_gesture_stop = pos1 & 0x0003FF;
				y1_gesture_stop = pos1 >> 10;

				x2_gesture_stop = pos2 & 0x0003FF;
				y2_gesture_stop = pos2 >> 10;
				gesture_detected =     (x1_gesture_start -30 <= x1_gesture_stop && x1_gesture_stop <= x1_gesture_start + 30)
 200039c:	e0bfe817 	ldw	r2,-96(fp)
 20003a0:	10c00784 	addi	r3,r2,30
 20003a4:	e0bff317 	ldw	r2,-52(fp)
 20003a8:	18800a16 	blt	r3,r2,20003d4 <task1+0x144>
									&& (y1_gesture_start -30 <= y1_gesture_stop && y1_gesture_stop <= y1_gesture_start + 30);
 20003ac:	e0bfeb17 	ldw	r2,-84(fp)
 20003b0:	10bff884 	addi	r2,r2,-30
 20003b4:	e0fff417 	ldw	r3,-48(fp)
 20003b8:	18800616 	blt	r3,r2,20003d4 <task1+0x144>
 20003bc:	e0bfeb17 	ldw	r2,-84(fp)
 20003c0:	10c00784 	addi	r3,r2,30
 20003c4:	e0bff417 	ldw	r2,-48(fp)
 20003c8:	18800216 	blt	r3,r2,20003d4 <task1+0x144>
 20003cc:	00800044 	movi	r2,1
 20003d0:	00000106 	br	20003d8 <task1+0x148>
 20003d4:	0005883a 	mov	r2,zero
				x1_gesture_stop = pos1 & 0x0003FF;
				y1_gesture_stop = pos1 >> 10;

				x2_gesture_stop = pos2 & 0x0003FF;
				y2_gesture_stop = pos2 >> 10;
				gesture_detected =     (x1_gesture_start -30 <= x1_gesture_stop && x1_gesture_stop <= x1_gesture_start + 30)
 20003d8:	e0bfee15 	stw	r2,-72(fp)
									&& (y1_gesture_start -30 <= y1_gesture_stop && y1_gesture_stop <= y1_gesture_start + 30);
			}

			//m =(y2_gesture_stop-y1_geture_start)/(x2_gesture_stop-x1_gesture_start);
	        //p = (y1_geture_start-(m*x1_gesture_start));
			*(MTL_controller + 1) = (y1_gesture_start << 10) + x1_gesture_start;
 20003dc:	e0bfef17 	ldw	r2,-68(fp)
 20003e0:	10800104 	addi	r2,r2,4
 20003e4:	e0ffeb17 	ldw	r3,-84(fp)
 20003e8:	180892ba 	slli	r4,r3,10
 20003ec:	e0ffe817 	ldw	r3,-96(fp)
 20003f0:	20c7883a 	add	r3,r4,r3
 20003f4:	10c00015 	stw	r3,0(r2)
			*(MTL_controller + 2) = (y2_gesture_start << 10) + x2_gesture_start;
 20003f8:	e0bfef17 	ldw	r2,-68(fp)
 20003fc:	10800204 	addi	r2,r2,8
 2000400:	e0ffec17 	ldw	r3,-80(fp)
 2000404:	180892ba 	slli	r4,r3,10
 2000408:	e0ffe917 	ldw	r3,-92(fp)
 200040c:	20c7883a 	add	r3,r4,r3
 2000410:	10c00015 	stw	r3,0(r2)
			*(MTL_controller + 3) = (y2_gesture_stop << 10) + x2_gesture_stop;
 2000414:	e0bfef17 	ldw	r2,-68(fp)
 2000418:	10800304 	addi	r2,r2,12
 200041c:	e0ffed17 	ldw	r3,-76(fp)
 2000420:	180892ba 	slli	r4,r3,10
 2000424:	e0ffea17 	ldw	r3,-88(fp)
 2000428:	20c7883a 	add	r3,r4,r3
 200042c:	10c00015 	stw	r3,0(r2)

			if(gesture_detected){
 2000430:	e0bfee17 	ldw	r2,-72(fp)
 2000434:	10005426 	beq	r2,zero,2000588 <task1+0x2f8>
				int x_dir = (x2_gesture_stop - x1_gesture_start);
 2000438:	e0ffea17 	ldw	r3,-88(fp)
 200043c:	e0bfe817 	ldw	r2,-96(fp)
 2000440:	1885c83a 	sub	r2,r3,r2
 2000444:	e0bff515 	stw	r2,-44(fp)
				int y_dir = (y2_gesture_stop - y1_gesture_start);
 2000448:	e0ffed17 	ldw	r3,-76(fp)
 200044c:	e0bfeb17 	ldw	r2,-84(fp)
 2000450:	1885c83a 	sub	r2,r3,r2
 2000454:	e0bff615 	stw	r2,-40(fp)

				double l = sqrt(x_dir*x_dir + y_dir*y_dir);
 2000458:	e0fff517 	ldw	r3,-44(fp)
 200045c:	e0bff517 	ldw	r2,-44(fp)
 2000460:	1887383a 	mul	r3,r3,r2
 2000464:	e13ff617 	ldw	r4,-40(fp)
 2000468:	e0bff617 	ldw	r2,-40(fp)
 200046c:	2085383a 	mul	r2,r4,r2
 2000470:	1885883a 	add	r2,r3,r2
 2000474:	1009883a 	mov	r4,r2
 2000478:	2003c4c0 	call	2003c4c <__floatsidf>
 200047c:	100b883a 	mov	r5,r2
 2000480:	180d883a 	mov	r6,r3
 2000484:	2809883a 	mov	r4,r5
 2000488:	300b883a 	mov	r5,r6
 200048c:	2000ea40 	call	2000ea4 <sqrt>
 2000490:	e0bff715 	stw	r2,-36(fp)
 2000494:	e0fff815 	stw	r3,-32(fp)

				double vector_x = x_dir/l;
 2000498:	e13ff517 	ldw	r4,-44(fp)
 200049c:	2003c4c0 	call	2003c4c <__floatsidf>
 20004a0:	1011883a 	mov	r8,r2
 20004a4:	1813883a 	mov	r9,r3
 20004a8:	e1bff717 	ldw	r6,-36(fp)
 20004ac:	e1fff817 	ldw	r7,-32(fp)
 20004b0:	4009883a 	mov	r4,r8
 20004b4:	480b883a 	mov	r5,r9
 20004b8:	20020780 	call	2002078 <__divdf3>
 20004bc:	1009883a 	mov	r4,r2
 20004c0:	180b883a 	mov	r5,r3
 20004c4:	2005883a 	mov	r2,r4
 20004c8:	2807883a 	mov	r3,r5
 20004cc:	e0bff915 	stw	r2,-28(fp)
 20004d0:	e0fffa15 	stw	r3,-24(fp)
				double vector_y = y_dir/l;
 20004d4:	e13ff617 	ldw	r4,-40(fp)
 20004d8:	2003c4c0 	call	2003c4c <__floatsidf>
 20004dc:	1011883a 	mov	r8,r2
 20004e0:	1813883a 	mov	r9,r3
 20004e4:	e1bff717 	ldw	r6,-36(fp)
 20004e8:	e1fff817 	ldw	r7,-32(fp)
 20004ec:	4009883a 	mov	r4,r8
 20004f0:	480b883a 	mov	r5,r9
 20004f4:	20020780 	call	2002078 <__divdf3>
 20004f8:	1009883a 	mov	r4,r2
 20004fc:	180b883a 	mov	r5,r3
 2000500:	2005883a 	mov	r2,r4
 2000504:	2807883a 	mov	r3,r5
 2000508:	e0bffb15 	stw	r2,-20(fp)
 200050c:	e0fffc15 	stw	r3,-16(fp)

				double speed = 200;
 2000510:	e03ffd15 	stw	zero,-12(fp)
 2000514:	00901a74 	movhi	r2,16489
 2000518:	e0bffe15 	stw	r2,-8(fp)

				printf("tir : (%.2f, %.2f)\n", vector_x, vector_y);
 200051c:	e23ff917 	ldw	r8,-28(fp)
 2000520:	e27ffa17 	ldw	r9,-24(fp)
 2000524:	e0bffb17 	ldw	r2,-20(fp)
 2000528:	e0fffc17 	ldw	r3,-16(fp)
 200052c:	d8c00015 	stw	r3,0(sp)
 2000530:	100f883a 	mov	r7,r2
 2000534:	400b883a 	mov	r5,r8
 2000538:	480d883a 	mov	r6,r9
 200053c:	010080b4 	movhi	r4,514
 2000540:	2131f604 	addi	r4,r4,-14376
 2000544:	2003fc40 	call	2003fc4 <printf>

				OSMboxPost(MailBox1, &vector_x);
 2000548:	d0a71817 	ldw	r2,-25504(gp)
 200054c:	e0fff904 	addi	r3,fp,-28
 2000550:	180b883a 	mov	r5,r3
 2000554:	1009883a 	mov	r4,r2
 2000558:	2015ec00 	call	2015ec0 <OSMboxPost>
				OSMboxPost(MailBox2, &vector_y);
 200055c:	d0a71717 	ldw	r2,-25508(gp)
 2000560:	e0fffb04 	addi	r3,fp,-20
 2000564:	180b883a 	mov	r5,r3
 2000568:	1009883a 	mov	r4,r2
 200056c:	2015ec00 	call	2015ec0 <OSMboxPost>
				OSMboxPost(MailBox3, &speed);
 2000570:	d0a71617 	ldw	r2,-25512(gp)
 2000574:	e0fffd04 	addi	r3,fp,-12
 2000578:	180b883a 	mov	r5,r3
 200057c:	1009883a 	mov	r4,r2
 2000580:	2015ec00 	call	2015ec0 <OSMboxPost>
				gesture_detected = 0;
 2000584:	e03fee15 	stw	zero,-72(fp)
			}

		OSTimeDlyHMSM(0,0,0,10);
 2000588:	01c00284 	movi	r7,10
 200058c:	000d883a 	mov	r6,zero
 2000590:	000b883a 	mov	r5,zero
 2000594:	0009883a 	mov	r4,zero
 2000598:	2019d640 	call	2019d64 <OSTimeDlyHMSM>
	}
 200059c:	003f4606 	br	20002b8 <task1+0x28>

020005a0 <task2>:
}

void task2 (void *pdata)
{
 20005a0:	deffc604 	addi	sp,sp,-232
 20005a4:	dfc03915 	stw	ra,228(sp)
 20005a8:	df003815 	stw	fp,224(sp)
 20005ac:	dd403715 	stw	r21,220(sp)
 20005b0:	dd003615 	stw	r20,216(sp)
 20005b4:	dcc03515 	stw	r19,212(sp)
 20005b8:	dc803415 	stw	r18,208(sp)
 20005bc:	dc403315 	stw	r17,204(sp)
 20005c0:	dc003215 	stw	r16,200(sp)
 20005c4:	df003804 	addi	fp,sp,224
 20005c8:	e13ff915 	stw	r4,-28(fp)
	volatile int * MTL_controller = (int *) MTL_IP_BASE;
 20005cc:	008000b4 	movhi	r2,2
 20005d0:	e0bfd315 	stw	r2,-180(fp)
	int ball1 [2];
	int ball2 [2];

	int x4 = 250;
 20005d4:	00803e84 	movi	r2,250
 20005d8:	e0bfd415 	stw	r2,-176(fp)
	int y4 = 250;
 20005dc:	00803e84 	movi	r2,250
 20005e0:	e0bfd515 	stw	r2,-172(fp)
	int x5 = 600;//128;
 20005e4:	00809604 	movi	r2,600
 20005e8:	e0bfd615 	stw	r2,-168(fp)
	int y5 = 250;//64;
 20005ec:	00803e84 	movi	r2,250
 20005f0:	e0bfd715 	stw	r2,-164(fp)
	ball1[0]=x4;
 20005f4:	e0bfd417 	ldw	r2,-176(fp)
 20005f8:	e0bfee15 	stw	r2,-72(fp)
	ball1[1]=y4;
 20005fc:	e0bfd517 	ldw	r2,-172(fp)
 2000600:	e0bfef15 	stw	r2,-68(fp)
	ball2[0]=x5;
 2000604:	e0bfd617 	ldw	r2,-168(fp)
 2000608:	e0bff015 	stw	r2,-64(fp)
	ball2[1]=y5;
 200060c:	e0bfd717 	ldw	r2,-164(fp)
 2000610:	e0bff115 	stw	r2,-60(fp)

	int x6 = 0;//196;
 2000614:	e03fd815 	stw	zero,-160(fp)
	int y6 = 0;//64;
 2000618:	e03fd915 	stw	zero,-156(fp)
	int x7 = 0;//256;
 200061c:	e03fda15 	stw	zero,-152(fp)
	int y7 = 0;//64;
 2000620:	e03fdb15 	stw	zero,-148(fp)
	int x8 = 0;//320;
 2000624:	e03fdc15 	stw	zero,-144(fp)
	int y8 = 0;//64;
 2000628:	e03fdd15 	stw	zero,-140(fp)
	int x9 = 0;//384;
 200062c:	e03fde15 	stw	zero,-136(fp)
	int y9 = 0;//64;
 2000630:	e03fdf15 	stw	zero,-132(fp)
	int x10 = 0;//64;
 2000634:	e03fe015 	stw	zero,-128(fp)
	int y10 = 0;//128;
 2000638:	e03fe115 	stw	zero,-124(fp)

	*(MTL_controller + 4) = (y4 << 10) + x4;
 200063c:	e0bfd317 	ldw	r2,-180(fp)
 2000640:	10800404 	addi	r2,r2,16
 2000644:	e0ffd517 	ldw	r3,-172(fp)
 2000648:	180892ba 	slli	r4,r3,10
 200064c:	e0ffd417 	ldw	r3,-176(fp)
 2000650:	20c7883a 	add	r3,r4,r3
 2000654:	10c00015 	stw	r3,0(r2)
	*(MTL_controller + 5) = (y5 << 10) + x5;
 2000658:	e0bfd317 	ldw	r2,-180(fp)
 200065c:	10800504 	addi	r2,r2,20
 2000660:	e0ffd717 	ldw	r3,-164(fp)
 2000664:	180892ba 	slli	r4,r3,10
 2000668:	e0ffd617 	ldw	r3,-168(fp)
 200066c:	20c7883a 	add	r3,r4,r3
 2000670:	10c00015 	stw	r3,0(r2)
	*(MTL_controller + 6) = (y6 << 10) + x6;
 2000674:	e0bfd317 	ldw	r2,-180(fp)
 2000678:	10800604 	addi	r2,r2,24
 200067c:	e0ffd917 	ldw	r3,-156(fp)
 2000680:	180892ba 	slli	r4,r3,10
 2000684:	e0ffd817 	ldw	r3,-160(fp)
 2000688:	20c7883a 	add	r3,r4,r3
 200068c:	10c00015 	stw	r3,0(r2)
	*(MTL_controller + 7) = (y7 << 10) + x7;
 2000690:	e0bfd317 	ldw	r2,-180(fp)
 2000694:	10800704 	addi	r2,r2,28
 2000698:	e0ffdb17 	ldw	r3,-148(fp)
 200069c:	180892ba 	slli	r4,r3,10
 20006a0:	e0ffda17 	ldw	r3,-152(fp)
 20006a4:	20c7883a 	add	r3,r4,r3
 20006a8:	10c00015 	stw	r3,0(r2)
	*(MTL_controller + 8) = (y8 << 10) + x8;
 20006ac:	e0bfd317 	ldw	r2,-180(fp)
 20006b0:	10800804 	addi	r2,r2,32
 20006b4:	e0ffdd17 	ldw	r3,-140(fp)
 20006b8:	180892ba 	slli	r4,r3,10
 20006bc:	e0ffdc17 	ldw	r3,-144(fp)
 20006c0:	20c7883a 	add	r3,r4,r3
 20006c4:	10c00015 	stw	r3,0(r2)
	*(MTL_controller + 9) = (y9 << 10) + x9;
 20006c8:	e0bfd317 	ldw	r2,-180(fp)
 20006cc:	10800904 	addi	r2,r2,36
 20006d0:	e0ffdf17 	ldw	r3,-132(fp)
 20006d4:	180892ba 	slli	r4,r3,10
 20006d8:	e0ffde17 	ldw	r3,-136(fp)
 20006dc:	20c7883a 	add	r3,r4,r3
 20006e0:	10c00015 	stw	r3,0(r2)
	*(MTL_controller + 10) = (y10 << 10) + x10;
 20006e4:	e0bfd317 	ldw	r2,-180(fp)
 20006e8:	10800a04 	addi	r2,r2,40
 20006ec:	e0ffe117 	ldw	r3,-124(fp)
 20006f0:	180892ba 	slli	r4,r3,10
 20006f4:	e0ffe017 	ldw	r3,-128(fp)
 20006f8:	20c7883a 	add	r3,r4,r3
 20006fc:	10c00015 	stw	r3,0(r2)

	INT8U err;

	int hBorder = 0;
 2000700:	e03fe215 	stw	zero,-120(fp)
	int vBorder = 0;
 2000704:	e03fe315 	stw	zero,-116(fp)

	int backX = 0;
 2000708:	e03fe415 	stw	zero,-112(fp)
	int backY = 0;
 200070c:	e03fe515 	stw	zero,-108(fp)

	int maxX = 800;
 2000710:	0080c804 	movi	r2,800
 2000714:	e0bfe615 	stw	r2,-104(fp)
	int maxY = 480;
 2000718:	00807804 	movi	r2,480
 200071c:	e0bfe715 	stw	r2,-100(fp)

	int size = 32;
 2000720:	00800804 	movi	r2,32
 2000724:	e0bfe815 	stw	r2,-96(fp)
	int border = 0;
 2000728:	e03fe915 	stw	zero,-92(fp)

	double vector [2];
	int velocity2 [2];
	velocity2[0]=0;
 200072c:	e03ff715 	stw	zero,-36(fp)
	velocity2[1]=0;
 2000730:	e03ff815 	stw	zero,-32(fp)
	double speed;

	double ball_x = 64, ball_y = 64;
 2000734:	e03fcd15 	stw	zero,-204(fp)
 2000738:	00901434 	movhi	r2,16464
 200073c:	e0bfce15 	stw	r2,-200(fp)
 2000740:	e03fcf15 	stw	zero,-196(fp)
 2000744:	00901434 	movhi	r2,16464
 2000748:	e0bfd015 	stw	r2,-192(fp)

	while(1){

		double *vector_x = OSMboxPend(MailBox1,0,&err);
 200074c:	d0a71817 	ldw	r2,-25504(gp)
 2000750:	e0fff204 	addi	r3,fp,-56
 2000754:	180d883a 	mov	r6,r3
 2000758:	000b883a 	mov	r5,zero
 200075c:	1009883a 	mov	r4,r2
 2000760:	2015b200 	call	2015b20 <OSMboxPend>
 2000764:	e0bfea15 	stw	r2,-88(fp)
		double *vector_y = OSMboxPend(MailBox2,0,&err);
 2000768:	d0a71717 	ldw	r2,-25508(gp)
 200076c:	e0fff204 	addi	r3,fp,-56
 2000770:	180d883a 	mov	r6,r3
 2000774:	000b883a 	mov	r5,zero
 2000778:	1009883a 	mov	r4,r2
 200077c:	2015b200 	call	2015b20 <OSMboxPend>
 2000780:	e0bfeb15 	stw	r2,-84(fp)
		double *speed_msg = OSMboxPend(MailBox3,0,&err);
 2000784:	d0a71617 	ldw	r2,-25512(gp)
 2000788:	e0fff204 	addi	r3,fp,-56
 200078c:	180d883a 	mov	r6,r3
 2000790:	000b883a 	mov	r5,zero
 2000794:	1009883a 	mov	r4,r2
 2000798:	2015b200 	call	2015b20 <OSMboxPend>
 200079c:	e0bfec15 	stw	r2,-80(fp)
		vector[0] = *vector_x;
 20007a0:	e13fea17 	ldw	r4,-88(fp)
 20007a4:	20800017 	ldw	r2,0(r4)
 20007a8:	20c00117 	ldw	r3,4(r4)
 20007ac:	e0bff315 	stw	r2,-52(fp)
 20007b0:	e0fff415 	stw	r3,-48(fp)
		vector[1] = *vector_y;
 20007b4:	e13feb17 	ldw	r4,-84(fp)
 20007b8:	20800017 	ldw	r2,0(r4)
 20007bc:	20c00117 	ldw	r3,4(r4)
 20007c0:	e0bff515 	stw	r2,-44(fp)
 20007c4:	e0fff615 	stw	r3,-40(fp)
		speed = *speed_msg;
 20007c8:	e0bfec17 	ldw	r2,-80(fp)
 20007cc:	10c00017 	ldw	r3,0(r2)
 20007d0:	e0ffcb15 	stw	r3,-212(fp)
 20007d4:	10800117 	ldw	r2,4(r2)
 20007d8:	e0bfcc15 	stw	r2,-208(fp)
		int backX = vector[0] <0;
 20007dc:	e0bff317 	ldw	r2,-52(fp)
 20007e0:	e0fff417 	ldw	r3,-48(fp)
 20007e4:	05000044 	movi	r20,1
 20007e8:	000d883a 	mov	r6,zero
 20007ec:	000f883a 	mov	r7,zero
 20007f0:	1009883a 	mov	r4,r2
 20007f4:	180b883a 	mov	r5,r3
 20007f8:	2002ac40 	call	2002ac4 <__ledf2>
 20007fc:	10000116 	blt	r2,zero,2000804 <task2+0x264>
 2000800:	0029883a 	mov	r20,zero
 2000804:	a0803fcc 	andi	r2,r20,255
 2000808:	e0bfd115 	stw	r2,-188(fp)
		int backY = vector[1] <0;
 200080c:	e0bff517 	ldw	r2,-44(fp)
 2000810:	e0fff617 	ldw	r3,-40(fp)
 2000814:	05000044 	movi	r20,1
 2000818:	000d883a 	mov	r6,zero
 200081c:	000f883a 	mov	r7,zero
 2000820:	1009883a 	mov	r4,r2
 2000824:	180b883a 	mov	r5,r3
 2000828:	2002ac40 	call	2002ac4 <__ledf2>
 200082c:	10000116 	blt	r2,zero,2000834 <task2+0x294>
 2000830:	0029883a 	mov	r20,zero
 2000834:	a0803fcc 	andi	r2,r20,255
 2000838:	e0bfd215 	stw	r2,-184(fp)
		int collision;
		vector[0] = fabs(vector[0]);
 200083c:	e0bff317 	ldw	r2,-52(fp)
 2000840:	e0fff417 	ldw	r3,-48(fp)
 2000844:	1021883a 	mov	r16,r2
 2000848:	01200034 	movhi	r4,32768
 200084c:	213fffc4 	addi	r4,r4,-1
 2000850:	1922703a 	and	r17,r3,r4
 2000854:	e43ff315 	stw	r16,-52(fp)
 2000858:	e47ff415 	stw	r17,-48(fp)
		vector[1] = fabs(vector[1]);
 200085c:	e0bff517 	ldw	r2,-44(fp)
 2000860:	e0fff617 	ldw	r3,-40(fp)
 2000864:	1025883a 	mov	r18,r2
 2000868:	01200034 	movhi	r4,32768
 200086c:	213fffc4 	addi	r4,r4,-1
 2000870:	1926703a 	and	r19,r3,r4
 2000874:	e4bff515 	stw	r18,-44(fp)
 2000878:	e4fff615 	stw	r19,-40(fp)

		printf("task 3 -> shoot ball 4 (%.2f, %.2f) %.2f\n", vector[0], vector[1], speed);
 200087c:	e23ff317 	ldw	r8,-52(fp)
 2000880:	e27ff417 	ldw	r9,-48(fp)
 2000884:	e0bff517 	ldw	r2,-44(fp)
 2000888:	e0fff617 	ldw	r3,-40(fp)
 200088c:	e13fcb17 	ldw	r4,-212(fp)
 2000890:	d9000115 	stw	r4,4(sp)
 2000894:	e13fcc17 	ldw	r4,-208(fp)
 2000898:	d9000215 	stw	r4,8(sp)
 200089c:	d8c00015 	stw	r3,0(sp)
 20008a0:	100f883a 	mov	r7,r2
 20008a4:	400b883a 	mov	r5,r8
 20008a8:	480d883a 	mov	r6,r9
 20008ac:	010080b4 	movhi	r4,514
 20008b0:	2131fb04 	addi	r4,r4,-14356
 20008b4:	2003fc40 	call	2003fc4 <printf>

		while (speed >= 0){
 20008b8:	0000f006 	br	2000c7c <task2+0x6dc>
			//printf("task 3 -> shoot ball 4 (%.2f, %.2f) %.2f\n", vector[0], vector[1], speed);

			if(ball_x < border+size+hBorder + 1)
 20008bc:	e0ffe917 	ldw	r3,-92(fp)
 20008c0:	e0bfe817 	ldw	r2,-96(fp)
 20008c4:	1887883a 	add	r3,r3,r2
 20008c8:	e0bfe217 	ldw	r2,-120(fp)
 20008cc:	1885883a 	add	r2,r3,r2
 20008d0:	10800044 	addi	r2,r2,1
 20008d4:	1009883a 	mov	r4,r2
 20008d8:	2003c4c0 	call	2003c4c <__floatsidf>
 20008dc:	1011883a 	mov	r8,r2
 20008e0:	1813883a 	mov	r9,r3
 20008e4:	e1bfcd17 	ldw	r6,-204(fp)
 20008e8:	e1ffce17 	ldw	r7,-200(fp)
 20008ec:	4009883a 	mov	r4,r8
 20008f0:	480b883a 	mov	r5,r9
 20008f4:	20029e80 	call	20029e8 <__gedf2>
 20008f8:	0080010e 	bge	zero,r2,2000900 <task2+0x360>
				backX = 0; // avance
 20008fc:	e03fd115 	stw	zero,-188(fp)
			if(ball_x > (maxX+hBorder)-(border+size))
 2000900:	e0ffe617 	ldw	r3,-104(fp)
 2000904:	e0bfe217 	ldw	r2,-120(fp)
 2000908:	1887883a 	add	r3,r3,r2
 200090c:	e13fe917 	ldw	r4,-92(fp)
 2000910:	e0bfe817 	ldw	r2,-96(fp)
 2000914:	2085883a 	add	r2,r4,r2
 2000918:	1885c83a 	sub	r2,r3,r2
 200091c:	1009883a 	mov	r4,r2
 2000920:	2003c4c0 	call	2003c4c <__floatsidf>
 2000924:	1011883a 	mov	r8,r2
 2000928:	1813883a 	mov	r9,r3
 200092c:	e1bfcd17 	ldw	r6,-204(fp)
 2000930:	e1ffce17 	ldw	r7,-200(fp)
 2000934:	4009883a 	mov	r4,r8
 2000938:	480b883a 	mov	r5,r9
 200093c:	2002ac40 	call	2002ac4 <__ledf2>
 2000940:	1000020e 	bge	r2,zero,200094c <task2+0x3ac>
				backX = 1; // recule
 2000944:	00800044 	movi	r2,1
 2000948:	e0bfd115 	stw	r2,-188(fp)
			if(ball_y < border + size+vBorder+1)
 200094c:	e0ffe917 	ldw	r3,-92(fp)
 2000950:	e0bfe817 	ldw	r2,-96(fp)
 2000954:	1887883a 	add	r3,r3,r2
 2000958:	e0bfe317 	ldw	r2,-116(fp)
 200095c:	1885883a 	add	r2,r3,r2
 2000960:	10800044 	addi	r2,r2,1
 2000964:	1009883a 	mov	r4,r2
 2000968:	2003c4c0 	call	2003c4c <__floatsidf>
 200096c:	1011883a 	mov	r8,r2
 2000970:	1813883a 	mov	r9,r3
 2000974:	e1bfcf17 	ldw	r6,-196(fp)
 2000978:	e1ffd017 	ldw	r7,-192(fp)
 200097c:	4009883a 	mov	r4,r8
 2000980:	480b883a 	mov	r5,r9
 2000984:	20029e80 	call	20029e8 <__gedf2>
 2000988:	0080010e 	bge	zero,r2,2000990 <task2+0x3f0>
				backY = 0;
 200098c:	e03fd215 	stw	zero,-184(fp)
			if(ball_y>(maxY+vBorder)-(border+size))
 2000990:	e0ffe717 	ldw	r3,-100(fp)
 2000994:	e0bfe317 	ldw	r2,-116(fp)
 2000998:	1887883a 	add	r3,r3,r2
 200099c:	e13fe917 	ldw	r4,-92(fp)
 20009a0:	e0bfe817 	ldw	r2,-96(fp)
 20009a4:	2085883a 	add	r2,r4,r2
 20009a8:	1885c83a 	sub	r2,r3,r2
 20009ac:	1009883a 	mov	r4,r2
 20009b0:	2003c4c0 	call	2003c4c <__floatsidf>
 20009b4:	1011883a 	mov	r8,r2
 20009b8:	1813883a 	mov	r9,r3
 20009bc:	e1bfcf17 	ldw	r6,-196(fp)
 20009c0:	e1ffd017 	ldw	r7,-192(fp)
 20009c4:	4009883a 	mov	r4,r8
 20009c8:	480b883a 	mov	r5,r9
 20009cc:	2002ac40 	call	2002ac4 <__ledf2>
 20009d0:	1000020e 	bge	r2,zero,20009dc <task2+0x43c>
				backY = 1;
 20009d4:	00800044 	movi	r2,1
 20009d8:	e0bfd215 	stw	r2,-184(fp)

			OSTimeDlyHMSM(0,0,0,40);
 20009dc:	01c00a04 	movi	r7,40
 20009e0:	000d883a 	mov	r6,zero
 20009e4:	000b883a 	mov	r5,zero
 20009e8:	0009883a 	mov	r4,zero
 20009ec:	2019d640 	call	2019d64 <OSTimeDlyHMSM>

			if(!backX) ball_x+=vector[0]*(speed/10.0);
 20009f0:	e0bfd117 	ldw	r2,-188(fp)
 20009f4:	10001e1e 	bne	r2,zero,2000a70 <task2+0x4d0>
 20009f8:	e53ff317 	ldw	r20,-52(fp)
 20009fc:	e57ff417 	ldw	r21,-48(fp)
 2000a00:	000d883a 	mov	r6,zero
 2000a04:	01d00934 	movhi	r7,16420
 2000a08:	e13fcb17 	ldw	r4,-212(fp)
 2000a0c:	e17fcc17 	ldw	r5,-208(fp)
 2000a10:	20020780 	call	2002078 <__divdf3>
 2000a14:	1009883a 	mov	r4,r2
 2000a18:	180b883a 	mov	r5,r3
 2000a1c:	2005883a 	mov	r2,r4
 2000a20:	2807883a 	mov	r3,r5
 2000a24:	100d883a 	mov	r6,r2
 2000a28:	180f883a 	mov	r7,r3
 2000a2c:	a009883a 	mov	r4,r20
 2000a30:	a80b883a 	mov	r5,r21
 2000a34:	2002bb80 	call	2002bb8 <__muldf3>
 2000a38:	1009883a 	mov	r4,r2
 2000a3c:	180b883a 	mov	r5,r3
 2000a40:	2005883a 	mov	r2,r4
 2000a44:	2807883a 	mov	r3,r5
 2000a48:	100d883a 	mov	r6,r2
 2000a4c:	180f883a 	mov	r7,r3
 2000a50:	e13fcd17 	ldw	r4,-204(fp)
 2000a54:	e17fce17 	ldw	r5,-200(fp)
 2000a58:	20017cc0 	call	20017cc <__adddf3>
 2000a5c:	1009883a 	mov	r4,r2
 2000a60:	180b883a 	mov	r5,r3
 2000a64:	e13fcd15 	stw	r4,-204(fp)
 2000a68:	e17fce15 	stw	r5,-200(fp)
 2000a6c:	00001d06 	br	2000ae4 <task2+0x544>
			else ball_x-=vector[0]*(speed/10.0);
 2000a70:	e53ff317 	ldw	r20,-52(fp)
 2000a74:	e57ff417 	ldw	r21,-48(fp)
 2000a78:	000d883a 	mov	r6,zero
 2000a7c:	01d00934 	movhi	r7,16420
 2000a80:	e13fcb17 	ldw	r4,-212(fp)
 2000a84:	e17fcc17 	ldw	r5,-208(fp)
 2000a88:	20020780 	call	2002078 <__divdf3>
 2000a8c:	1009883a 	mov	r4,r2
 2000a90:	180b883a 	mov	r5,r3
 2000a94:	2005883a 	mov	r2,r4
 2000a98:	2807883a 	mov	r3,r5
 2000a9c:	100d883a 	mov	r6,r2
 2000aa0:	180f883a 	mov	r7,r3
 2000aa4:	a009883a 	mov	r4,r20
 2000aa8:	a80b883a 	mov	r5,r21
 2000aac:	2002bb80 	call	2002bb8 <__muldf3>
 2000ab0:	1009883a 	mov	r4,r2
 2000ab4:	180b883a 	mov	r5,r3
 2000ab8:	2005883a 	mov	r2,r4
 2000abc:	2807883a 	mov	r3,r5
 2000ac0:	100d883a 	mov	r6,r2
 2000ac4:	180f883a 	mov	r7,r3
 2000ac8:	e13fcd17 	ldw	r4,-204(fp)
 2000acc:	e17fce17 	ldw	r5,-200(fp)
 2000ad0:	20032d00 	call	20032d0 <__subdf3>
 2000ad4:	1009883a 	mov	r4,r2
 2000ad8:	180b883a 	mov	r5,r3
 2000adc:	e13fcd15 	stw	r4,-204(fp)
 2000ae0:	e17fce15 	stw	r5,-200(fp)

			if(!backY) ball_y+=vector[1]*(speed/10.0);
 2000ae4:	e0bfd217 	ldw	r2,-184(fp)
 2000ae8:	10001e1e 	bne	r2,zero,2000b64 <task2+0x5c4>
 2000aec:	e53ff517 	ldw	r20,-44(fp)
 2000af0:	e57ff617 	ldw	r21,-40(fp)
 2000af4:	000d883a 	mov	r6,zero
 2000af8:	01d00934 	movhi	r7,16420
 2000afc:	e13fcb17 	ldw	r4,-212(fp)
 2000b00:	e17fcc17 	ldw	r5,-208(fp)
 2000b04:	20020780 	call	2002078 <__divdf3>
 2000b08:	1009883a 	mov	r4,r2
 2000b0c:	180b883a 	mov	r5,r3
 2000b10:	2005883a 	mov	r2,r4
 2000b14:	2807883a 	mov	r3,r5
 2000b18:	100d883a 	mov	r6,r2
 2000b1c:	180f883a 	mov	r7,r3
 2000b20:	a009883a 	mov	r4,r20
 2000b24:	a80b883a 	mov	r5,r21
 2000b28:	2002bb80 	call	2002bb8 <__muldf3>
 2000b2c:	1009883a 	mov	r4,r2
 2000b30:	180b883a 	mov	r5,r3
 2000b34:	2005883a 	mov	r2,r4
 2000b38:	2807883a 	mov	r3,r5
 2000b3c:	100d883a 	mov	r6,r2
 2000b40:	180f883a 	mov	r7,r3
 2000b44:	e13fcf17 	ldw	r4,-196(fp)
 2000b48:	e17fd017 	ldw	r5,-192(fp)
 2000b4c:	20017cc0 	call	20017cc <__adddf3>
 2000b50:	1009883a 	mov	r4,r2
 2000b54:	180b883a 	mov	r5,r3
 2000b58:	e13fcf15 	stw	r4,-196(fp)
 2000b5c:	e17fd015 	stw	r5,-192(fp)
 2000b60:	00001d06 	br	2000bd8 <task2+0x638>
			else ball_y-=vector[1]*(speed/10.0);
 2000b64:	e53ff517 	ldw	r20,-44(fp)
 2000b68:	e57ff617 	ldw	r21,-40(fp)
 2000b6c:	000d883a 	mov	r6,zero
 2000b70:	01d00934 	movhi	r7,16420
 2000b74:	e13fcb17 	ldw	r4,-212(fp)
 2000b78:	e17fcc17 	ldw	r5,-208(fp)
 2000b7c:	20020780 	call	2002078 <__divdf3>
 2000b80:	1009883a 	mov	r4,r2
 2000b84:	180b883a 	mov	r5,r3
 2000b88:	2005883a 	mov	r2,r4
 2000b8c:	2807883a 	mov	r3,r5
 2000b90:	100d883a 	mov	r6,r2
 2000b94:	180f883a 	mov	r7,r3
 2000b98:	a009883a 	mov	r4,r20
 2000b9c:	a80b883a 	mov	r5,r21
 2000ba0:	2002bb80 	call	2002bb8 <__muldf3>
 2000ba4:	1009883a 	mov	r4,r2
 2000ba8:	180b883a 	mov	r5,r3
 2000bac:	2005883a 	mov	r2,r4
 2000bb0:	2807883a 	mov	r3,r5
 2000bb4:	100d883a 	mov	r6,r2
 2000bb8:	180f883a 	mov	r7,r3
 2000bbc:	e13fcf17 	ldw	r4,-196(fp)
 2000bc0:	e17fd017 	ldw	r5,-192(fp)
 2000bc4:	20032d00 	call	20032d0 <__subdf3>
 2000bc8:	1009883a 	mov	r4,r2
 2000bcc:	180b883a 	mov	r5,r3
 2000bd0:	e13fcf15 	stw	r4,-196(fp)
 2000bd4:	e17fd015 	stw	r5,-192(fp)

			//ball_x += vector[0] * (speed/10.0);
			//ball_y += vector[1] * (speed/10.0);

			*(MTL_controller + 4) = ((int)(ball_y) << 10) + (int)(ball_x);
 2000bd8:	e0bfd317 	ldw	r2,-180(fp)
 2000bdc:	15000404 	addi	r20,r2,16
 2000be0:	e13fcf17 	ldw	r4,-196(fp)
 2000be4:	e17fd017 	ldw	r5,-192(fp)
 2000be8:	2003bcc0 	call	2003bcc <__fixdfsi>
 2000bec:	102a92ba 	slli	r21,r2,10
 2000bf0:	e13fcd17 	ldw	r4,-204(fp)
 2000bf4:	e17fce17 	ldw	r5,-200(fp)
 2000bf8:	2003bcc0 	call	2003bcc <__fixdfsi>
 2000bfc:	a885883a 	add	r2,r21,r2
 2000c00:	a0800015 	stw	r2,0(r20)

			speed = speed - 1;
 2000c04:	000d883a 	mov	r6,zero
 2000c08:	01cffc34 	movhi	r7,16368
 2000c0c:	e13fcb17 	ldw	r4,-212(fp)
 2000c10:	e17fcc17 	ldw	r5,-208(fp)
 2000c14:	20032d00 	call	20032d0 <__subdf3>
 2000c18:	1009883a 	mov	r4,r2
 2000c1c:	180b883a 	mov	r5,r3
 2000c20:	e13fcb15 	stw	r4,-212(fp)
 2000c24:	e17fcc15 	stw	r5,-208(fp)

			collision=detect_collide(ball1,ball2,vector,velocity2,size);
 2000c28:	e1bff704 	addi	r6,fp,-36
 2000c2c:	e17ff304 	addi	r5,fp,-52
 2000c30:	e13ff004 	addi	r4,fp,-64
 2000c34:	e0ffee04 	addi	r3,fp,-72
 2000c38:	e0bfe817 	ldw	r2,-96(fp)
 2000c3c:	d8800015 	stw	r2,0(sp)
 2000c40:	300f883a 	mov	r7,r6
 2000c44:	280d883a 	mov	r6,r5
 2000c48:	200b883a 	mov	r5,r4
 2000c4c:	1809883a 	mov	r4,r3
 2000c50:	2000c980 	call	2000c98 <detect_collide>
 2000c54:	e0bfed15 	stw	r2,-76(fp)
			printf("collision value: %d\n",collision);
 2000c58:	e17fed17 	ldw	r5,-76(fp)
 2000c5c:	010080b4 	movhi	r4,514
 2000c60:	21320604 	addi	r4,r4,-14312
 2000c64:	2003fc40 	call	2003fc4 <printf>
			if (collision) printf("collision");
 2000c68:	e0bfed17 	ldw	r2,-76(fp)
 2000c6c:	10000326 	beq	r2,zero,2000c7c <task2+0x6dc>
 2000c70:	010080b4 	movhi	r4,514
 2000c74:	21320c04 	addi	r4,r4,-14288
 2000c78:	2003fc40 	call	2003fc4 <printf>
		vector[0] = fabs(vector[0]);
		vector[1] = fabs(vector[1]);

		printf("task 3 -> shoot ball 4 (%.2f, %.2f) %.2f\n", vector[0], vector[1], speed);

		while (speed >= 0){
 2000c7c:	000d883a 	mov	r6,zero
 2000c80:	000f883a 	mov	r7,zero
 2000c84:	e13fcb17 	ldw	r4,-212(fp)
 2000c88:	e17fcc17 	ldw	r5,-208(fp)
 2000c8c:	20029e80 	call	20029e8 <__gedf2>
 2000c90:	103f0a0e 	bge	r2,zero,20008bc <task2+0x31c>
			collision=detect_collide(ball1,ball2,vector,velocity2,size);
			printf("collision value: %d\n",collision);
			if (collision) printf("collision");

		}
	}
 2000c94:	003ead06 	br	200074c <task2+0x1ac>

02000c98 <detect_collide>:
}

int detect_collide(int ball1 [2], int ball2 [2], double velocity1 [2], int velocity2 [2], int size){
 2000c98:	defff204 	addi	sp,sp,-56
 2000c9c:	dfc00d15 	stw	ra,52(sp)
 2000ca0:	df000c15 	stw	fp,48(sp)
 2000ca4:	dc000b15 	stw	r16,44(sp)
 2000ca8:	df000c04 	addi	fp,sp,48
 2000cac:	e13ffb15 	stw	r4,-20(fp)
 2000cb0:	e17ffc15 	stw	r5,-16(fp)
 2000cb4:	e1bffd15 	stw	r6,-12(fp)
 2000cb8:	e1fffe15 	stw	r7,-8(fp)
	int x1,x2,y1,y2,dx,dy;
	int collision;
	x1=ball1[0]+(int) velocity1[0];
 2000cbc:	e0bffb17 	ldw	r2,-20(fp)
 2000cc0:	14000017 	ldw	r16,0(r2)
 2000cc4:	e13ffd17 	ldw	r4,-12(fp)
 2000cc8:	20800017 	ldw	r2,0(r4)
 2000ccc:	20c00117 	ldw	r3,4(r4)
 2000cd0:	1009883a 	mov	r4,r2
 2000cd4:	180b883a 	mov	r5,r3
 2000cd8:	2003bcc0 	call	2003bcc <__fixdfsi>
 2000cdc:	8085883a 	add	r2,r16,r2
 2000ce0:	e0bff515 	stw	r2,-44(fp)
	x2=ball2[0]+(int) velocity2[0];
 2000ce4:	e0bffc17 	ldw	r2,-16(fp)
 2000ce8:	10c00017 	ldw	r3,0(r2)
 2000cec:	e0bffe17 	ldw	r2,-8(fp)
 2000cf0:	10800017 	ldw	r2,0(r2)
 2000cf4:	1885883a 	add	r2,r3,r2
 2000cf8:	e0bff615 	stw	r2,-40(fp)

	y1=ball1[1]+(int) velocity1[1];
 2000cfc:	e0bffb17 	ldw	r2,-20(fp)
 2000d00:	10800104 	addi	r2,r2,4
 2000d04:	14000017 	ldw	r16,0(r2)
 2000d08:	e0bffd17 	ldw	r2,-12(fp)
 2000d0c:	11000204 	addi	r4,r2,8
 2000d10:	20800017 	ldw	r2,0(r4)
 2000d14:	20c00117 	ldw	r3,4(r4)
 2000d18:	1009883a 	mov	r4,r2
 2000d1c:	180b883a 	mov	r5,r3
 2000d20:	2003bcc0 	call	2003bcc <__fixdfsi>
 2000d24:	8085883a 	add	r2,r16,r2
 2000d28:	e0bff715 	stw	r2,-36(fp)
	y2=ball2[1]+(int) velocity2[1];
 2000d2c:	e0bffc17 	ldw	r2,-16(fp)
 2000d30:	10800104 	addi	r2,r2,4
 2000d34:	10c00017 	ldw	r3,0(r2)
 2000d38:	e0bffe17 	ldw	r2,-8(fp)
 2000d3c:	10800104 	addi	r2,r2,4
 2000d40:	10800017 	ldw	r2,0(r2)
 2000d44:	1885883a 	add	r2,r3,r2
 2000d48:	e0bff815 	stw	r2,-32(fp)

	dx=x2-x1;
 2000d4c:	e0fff617 	ldw	r3,-40(fp)
 2000d50:	e0bff517 	ldw	r2,-44(fp)
 2000d54:	1885c83a 	sub	r2,r3,r2
 2000d58:	e0bff915 	stw	r2,-28(fp)
	dy=y2-y1;
 2000d5c:	e0fff817 	ldw	r3,-32(fp)
 2000d60:	e0bff717 	ldw	r2,-36(fp)
 2000d64:	1885c83a 	sub	r2,r3,r2
 2000d68:	e0bffa15 	stw	r2,-24(fp)
	if(dx*dx + dy*dy <= 4*size*size) collision=1;
 2000d6c:	e0fff917 	ldw	r3,-28(fp)
 2000d70:	e0bff917 	ldw	r2,-28(fp)
 2000d74:	1887383a 	mul	r3,r3,r2
 2000d78:	e13ffa17 	ldw	r4,-24(fp)
 2000d7c:	e0bffa17 	ldw	r2,-24(fp)
 2000d80:	2085383a 	mul	r2,r4,r2
 2000d84:	1887883a 	add	r3,r3,r2
 2000d88:	e0800217 	ldw	r2,8(fp)
 2000d8c:	1085883a 	add	r2,r2,r2
 2000d90:	1085883a 	add	r2,r2,r2
 2000d94:	1009883a 	mov	r4,r2
 2000d98:	e0800217 	ldw	r2,8(fp)
 2000d9c:	2085383a 	mul	r2,r4,r2
 2000da0:	10c00316 	blt	r2,r3,2000db0 <detect_collide+0x118>
 2000da4:	00800044 	movi	r2,1
 2000da8:	e0bff415 	stw	r2,-48(fp)
 2000dac:	00000106 	br	2000db4 <detect_collide+0x11c>
	else collision=0;
 2000db0:	e03ff415 	stw	zero,-48(fp)

	return collision;
 2000db4:	e0bff417 	ldw	r2,-48(fp)

}
 2000db8:	e6ffff04 	addi	sp,fp,-4
 2000dbc:	dfc00217 	ldw	ra,8(sp)
 2000dc0:	df000117 	ldw	fp,4(sp)
 2000dc4:	dc000017 	ldw	r16,0(sp)
 2000dc8:	dec00304 	addi	sp,sp,12
 2000dcc:	f800283a 	ret

02000dd0 <main>:



/* The main function creates two task and starts multi-tasking */
int main(void)
{
 2000dd0:	defff904 	addi	sp,sp,-28
 2000dd4:	dfc00615 	stw	ra,24(sp)
 2000dd8:	df000515 	stw	fp,20(sp)
 2000ddc:	df000504 	addi	fp,sp,20
  OSInit();
 2000de0:	201272c0 	call	201272c <OSInit>


	MailBox1 = OSMboxCreate(NULL);
 2000de4:	0009883a 	mov	r4,zero
 2000de8:	201580c0 	call	201580c <OSMboxCreate>
 2000dec:	d0a71815 	stw	r2,-25504(gp)
	MailBox2 = OSMboxCreate(NULL);
 2000df0:	0009883a 	mov	r4,zero
 2000df4:	201580c0 	call	201580c <OSMboxCreate>
 2000df8:	d0a71715 	stw	r2,-25508(gp)
	MailBox3 = OSMboxCreate(NULL);
 2000dfc:	0009883a 	mov	r4,zero
 2000e00:	201580c0 	call	201580c <OSMboxCreate>
 2000e04:	d0a71615 	stw	r2,-25512(gp)

  OSTaskCreateExt(task1,
 2000e08:	d8000415 	stw	zero,16(sp)
 2000e0c:	d8000315 	stw	zero,12(sp)
 2000e10:	00820004 	movi	r2,2048
 2000e14:	d8800215 	stw	r2,8(sp)
 2000e18:	008080b4 	movhi	r2,514
 2000e1c:	10813104 	addi	r2,r2,1220
 2000e20:	d8800115 	stw	r2,4(sp)
 2000e24:	00800044 	movi	r2,1
 2000e28:	d8800015 	stw	r2,0(sp)
 2000e2c:	01c00044 	movi	r7,1
 2000e30:	018080b4 	movhi	r6,514
 2000e34:	31893004 	addi	r6,r6,9408
 2000e38:	000b883a 	mov	r5,zero
 2000e3c:	01008034 	movhi	r4,512
 2000e40:	2100a404 	addi	r4,r4,656
 2000e44:	2018b900 	call	2018b90 <OSTaskCreateExt>
                  task1_stk,
                  TASK_STACKSIZE,
                  NULL,
                  0);

  OSTaskCreateExt(task2,
 2000e48:	d8000415 	stw	zero,16(sp)
 2000e4c:	d8000315 	stw	zero,12(sp)
 2000e50:	00820004 	movi	r2,2048
 2000e54:	d8800215 	stw	r2,8(sp)
 2000e58:	008080b4 	movhi	r2,514
 2000e5c:	10893104 	addi	r2,r2,9412
 2000e60:	d8800115 	stw	r2,4(sp)
 2000e64:	00800084 	movi	r2,2
 2000e68:	d8800015 	stw	r2,0(sp)
 2000e6c:	01c00084 	movi	r7,2
 2000e70:	018080b4 	movhi	r6,514
 2000e74:	31913004 	addi	r6,r6,17600
 2000e78:	000b883a 	mov	r5,zero
 2000e7c:	01008034 	movhi	r4,512
 2000e80:	21016804 	addi	r4,r4,1440
 2000e84:	2018b900 	call	2018b90 <OSTaskCreateExt>
                    task2_stk,
                    TASK_STACKSIZE,
                    NULL,
                    0);

	OSStart();
 2000e88:	2012a300 	call	2012a30 <OSStart>
  return 0;
 2000e8c:	0005883a 	mov	r2,zero
}
 2000e90:	e037883a 	mov	sp,fp
 2000e94:	dfc00117 	ldw	ra,4(sp)
 2000e98:	df000017 	ldw	fp,0(sp)
 2000e9c:	dec00204 	addi	sp,sp,8
 2000ea0:	f800283a 	ret

02000ea4 <sqrt>:
	double sqrt(double x)		/* wrapper sqrt */
#else
	double sqrt(x)			/* wrapper sqrt */
	double x;
#endif
{
 2000ea4:	defff104 	addi	sp,sp,-60
 2000ea8:	dfc00e15 	stw	ra,56(sp)
 2000eac:	df000d15 	stw	fp,52(sp)
 2000eb0:	df000d04 	addi	fp,sp,52
 2000eb4:	e13ffe15 	stw	r4,-8(fp)
 2000eb8:	e17fff15 	stw	r5,-4(fp)
#ifdef _IEEE_LIBM
	return __ieee754_sqrt(x);
#else
	struct exception exc;
	double z;
	z = __ieee754_sqrt(x);
 2000ebc:	e13ffe17 	ldw	r4,-8(fp)
 2000ec0:	e17fff17 	ldw	r5,-4(fp)
 2000ec4:	20010180 	call	2001018 <__ieee754_sqrt>
 2000ec8:	e0bff315 	stw	r2,-52(fp)
 2000ecc:	e0fff415 	stw	r3,-48(fp)
	if(_LIB_VERSION == _IEEE_ || isnan(x)) return z;
 2000ed0:	d0a00417 	ldw	r2,-32752(gp)
 2000ed4:	10bfffe0 	cmpeqi	r2,r2,-1
 2000ed8:	1000041e 	bne	r2,zero,2000eec <sqrt+0x48>
 2000edc:	e13ffe17 	ldw	r4,-8(fp)
 2000ee0:	e17fff17 	ldw	r5,-4(fp)
 2000ee4:	20016600 	call	2001660 <__fpclassifyd>
 2000ee8:	1000031e 	bne	r2,zero,2000ef8 <sqrt+0x54>
 2000eec:	e0bff317 	ldw	r2,-52(fp)
 2000ef0:	e0fff417 	ldw	r3,-48(fp)
 2000ef4:	00003f06 	br	2000ff4 <sqrt+0x150>
	if(x<0.0) {
 2000ef8:	000d883a 	mov	r6,zero
 2000efc:	000f883a 	mov	r7,zero
 2000f00:	e13ffe17 	ldw	r4,-8(fp)
 2000f04:	e17fff17 	ldw	r5,-4(fp)
 2000f08:	2002ac40 	call	2002ac4 <__ledf2>
 2000f0c:	1000370e 	bge	r2,zero,2000fec <sqrt+0x148>
	  exc.type = DOMAIN;
 2000f10:	00800044 	movi	r2,1
 2000f14:	e0bff515 	stw	r2,-44(fp)
	  exc.name = "sqrt";
 2000f18:	008080b4 	movhi	r2,514
 2000f1c:	10b20f04 	addi	r2,r2,-14276
 2000f20:	e0bff615 	stw	r2,-40(fp)
	  exc.err = 0;
 2000f24:	e03ffd15 	stw	zero,-12(fp)
	  exc.arg1 = exc.arg2 = x;
 2000f28:	e0bffe17 	ldw	r2,-8(fp)
 2000f2c:	e0bff915 	stw	r2,-28(fp)
 2000f30:	e0bfff17 	ldw	r2,-4(fp)
 2000f34:	e0bffa15 	stw	r2,-24(fp)
 2000f38:	e0bff917 	ldw	r2,-28(fp)
 2000f3c:	e0fffa17 	ldw	r3,-24(fp)
 2000f40:	e0bff715 	stw	r2,-36(fp)
 2000f44:	e0fff815 	stw	r3,-32(fp)
	  if (_LIB_VERSION == _SVID_)
 2000f48:	d0a00417 	ldw	r2,-32752(gp)
 2000f4c:	1000031e 	bne	r2,zero,2000f5c <sqrt+0xb8>
	    exc.retval = 0.0;
 2000f50:	e03ffb15 	stw	zero,-20(fp)
 2000f54:	e03ffc15 	stw	zero,-16(fp)
 2000f58:	00000b06 	br	2000f88 <sqrt+0xe4>
          else
            exc.retval = 0.0/0.0;
 2000f5c:	000d883a 	mov	r6,zero
 2000f60:	000f883a 	mov	r7,zero
 2000f64:	0009883a 	mov	r4,zero
 2000f68:	000b883a 	mov	r5,zero
 2000f6c:	20020780 	call	2002078 <__divdf3>
 2000f70:	1009883a 	mov	r4,r2
 2000f74:	180b883a 	mov	r5,r3
 2000f78:	2005883a 	mov	r2,r4
 2000f7c:	2807883a 	mov	r3,r5
 2000f80:	e0bffb15 	stw	r2,-20(fp)
 2000f84:	e0fffc15 	stw	r3,-16(fp)
          if (_LIB_VERSION == _POSIX_)
 2000f88:	d0a00417 	ldw	r2,-32752(gp)
 2000f8c:	10800098 	cmpnei	r2,r2,2
 2000f90:	1000051e 	bne	r2,zero,2000fa8 <sqrt+0x104>
            errno = EDOM;
 2000f94:	2003f400 	call	2003f40 <__errno>
 2000f98:	1007883a 	mov	r3,r2
 2000f9c:	00800844 	movi	r2,33
 2000fa0:	18800015 	stw	r2,0(r3)
 2000fa4:	00000806 	br	2000fc8 <sqrt+0x124>
          else if (!matherr(&exc)) {
 2000fa8:	e0bff504 	addi	r2,fp,-44
 2000fac:	1009883a 	mov	r4,r2
 2000fb0:	20017640 	call	2001764 <matherr>
 2000fb4:	1000041e 	bne	r2,zero,2000fc8 <sqrt+0x124>
            errno = EDOM;
 2000fb8:	2003f400 	call	2003f40 <__errno>
 2000fbc:	1007883a 	mov	r3,r2
 2000fc0:	00800844 	movi	r2,33
 2000fc4:	18800015 	stw	r2,0(r3)
          }
          if (exc.err != 0)
 2000fc8:	e0bffd17 	ldw	r2,-12(fp)
 2000fcc:	10000426 	beq	r2,zero,2000fe0 <sqrt+0x13c>
	    errno = exc.err;
 2000fd0:	2003f400 	call	2003f40 <__errno>
 2000fd4:	1007883a 	mov	r3,r2
 2000fd8:	e0bffd17 	ldw	r2,-12(fp)
 2000fdc:	18800015 	stw	r2,0(r3)
	  return exc.retval; 
 2000fe0:	e0bffb17 	ldw	r2,-20(fp)
 2000fe4:	e0fffc17 	ldw	r3,-16(fp)
 2000fe8:	00000206 	br	2000ff4 <sqrt+0x150>
	} else
	    return z;
 2000fec:	e0bff317 	ldw	r2,-52(fp)
 2000ff0:	e0fff417 	ldw	r3,-48(fp)
 2000ff4:	1009883a 	mov	r4,r2
 2000ff8:	180b883a 	mov	r5,r3
#endif
}
 2000ffc:	2005883a 	mov	r2,r4
 2001000:	2807883a 	mov	r3,r5
 2001004:	e037883a 	mov	sp,fp
 2001008:	dfc00117 	ldw	ra,4(sp)
 200100c:	df000017 	ldw	fp,0(sp)
 2001010:	dec00204 	addi	sp,sp,8
 2001014:	f800283a 	ret

02001018 <__ieee754_sqrt>:
	double __ieee754_sqrt(double x)
#else
	double __ieee754_sqrt(x)
	double x;
#endif
{
 2001018:	deffe804 	addi	sp,sp,-96
 200101c:	dfc01715 	stw	ra,92(sp)
 2001020:	df001615 	stw	fp,88(sp)
 2001024:	dc401515 	stw	r17,84(sp)
 2001028:	dc001415 	stw	r16,80(sp)
 200102c:	df001604 	addi	fp,sp,88
 2001030:	e13ffc15 	stw	r4,-16(fp)
 2001034:	e17ffd15 	stw	r5,-12(fp)
	double z;
	__int32_t sign = (int)0x80000000; 
 2001038:	00a00034 	movhi	r2,32768
 200103c:	e0bff315 	stw	r2,-52(fp)
	__uint32_t r,t1,s1,ix1,q1;
	__int32_t ix0,s0,q,m,t,i;

	EXTRACT_WORDS(ix0,ix1,x);
 2001040:	e0bffc17 	ldw	r2,-16(fp)
 2001044:	e0bff815 	stw	r2,-32(fp)
 2001048:	e0bffd17 	ldw	r2,-12(fp)
 200104c:	e0bff915 	stw	r2,-28(fp)
 2001050:	e0bff917 	ldw	r2,-28(fp)
 2001054:	e0bfee15 	stw	r2,-72(fp)
 2001058:	e0bff817 	ldw	r2,-32(fp)
 200105c:	e0bfec15 	stw	r2,-80(fp)

    /* take care of Inf and NaN */
	if((ix0&0x7ff00000)==0x7ff00000) {			
 2001060:	e0bfee17 	ldw	r2,-72(fp)
 2001064:	10dffc2c 	andhi	r3,r2,32752
 2001068:	009ffc34 	movhi	r2,32752
 200106c:	1880131e 	bne	r3,r2,20010bc <__ieee754_sqrt+0xa4>
	    return x*x+x;		/* sqrt(NaN)=NaN, sqrt(+inf)=+inf
 2001070:	e1bffc17 	ldw	r6,-16(fp)
 2001074:	e1fffd17 	ldw	r7,-12(fp)
 2001078:	e13ffc17 	ldw	r4,-16(fp)
 200107c:	e17ffd17 	ldw	r5,-12(fp)
 2001080:	2002bb80 	call	2002bb8 <__muldf3>
 2001084:	1009883a 	mov	r4,r2
 2001088:	180b883a 	mov	r5,r3
 200108c:	2005883a 	mov	r2,r4
 2001090:	2807883a 	mov	r3,r5
 2001094:	e1bffc17 	ldw	r6,-16(fp)
 2001098:	e1fffd17 	ldw	r7,-12(fp)
 200109c:	1009883a 	mov	r4,r2
 20010a0:	180b883a 	mov	r5,r3
 20010a4:	20017cc0 	call	20017cc <__adddf3>
 20010a8:	1009883a 	mov	r4,r2
 20010ac:	180b883a 	mov	r5,r3
 20010b0:	2005883a 	mov	r2,r4
 20010b4:	2807883a 	mov	r3,r5
 20010b8:	00015e06 	br	2001634 <__ieee754_sqrt+0x61c>
					   sqrt(-inf)=sNaN */
	} 
    /* take care of zero */
	if(ix0<=0) {
 20010bc:	e0bfee17 	ldw	r2,-72(fp)
 20010c0:	00802916 	blt	zero,r2,2001168 <__ieee754_sqrt+0x150>
	    if(((ix0&(~sign))|ix1)==0) return x;/* sqrt(+-0) = +-0 */
 20010c4:	e0bff317 	ldw	r2,-52(fp)
 20010c8:	0086303a 	nor	r3,zero,r2
 20010cc:	e0bfee17 	ldw	r2,-72(fp)
 20010d0:	1884703a 	and	r2,r3,r2
 20010d4:	1007883a 	mov	r3,r2
 20010d8:	e0bfec17 	ldw	r2,-80(fp)
 20010dc:	1884b03a 	or	r2,r3,r2
 20010e0:	1000031e 	bne	r2,zero,20010f0 <__ieee754_sqrt+0xd8>
 20010e4:	e0bffc17 	ldw	r2,-16(fp)
 20010e8:	e0fffd17 	ldw	r3,-12(fp)
 20010ec:	00015106 	br	2001634 <__ieee754_sqrt+0x61c>
	    else if(ix0<0)
 20010f0:	e0bfee17 	ldw	r2,-72(fp)
 20010f4:	10001c0e 	bge	r2,zero,2001168 <__ieee754_sqrt+0x150>
		return (x-x)/(x-x);		/* sqrt(-ve) = sNaN */
 20010f8:	e1bffc17 	ldw	r6,-16(fp)
 20010fc:	e1fffd17 	ldw	r7,-12(fp)
 2001100:	e13ffc17 	ldw	r4,-16(fp)
 2001104:	e17ffd17 	ldw	r5,-12(fp)
 2001108:	20032d00 	call	20032d0 <__subdf3>
 200110c:	1009883a 	mov	r4,r2
 2001110:	180b883a 	mov	r5,r3
 2001114:	2021883a 	mov	r16,r4
 2001118:	2823883a 	mov	r17,r5
 200111c:	e1bffc17 	ldw	r6,-16(fp)
 2001120:	e1fffd17 	ldw	r7,-12(fp)
 2001124:	e13ffc17 	ldw	r4,-16(fp)
 2001128:	e17ffd17 	ldw	r5,-12(fp)
 200112c:	20032d00 	call	20032d0 <__subdf3>
 2001130:	1009883a 	mov	r4,r2
 2001134:	180b883a 	mov	r5,r3
 2001138:	2005883a 	mov	r2,r4
 200113c:	2807883a 	mov	r3,r5
 2001140:	100d883a 	mov	r6,r2
 2001144:	180f883a 	mov	r7,r3
 2001148:	8009883a 	mov	r4,r16
 200114c:	880b883a 	mov	r5,r17
 2001150:	20020780 	call	2002078 <__divdf3>
 2001154:	1009883a 	mov	r4,r2
 2001158:	180b883a 	mov	r5,r3
 200115c:	2005883a 	mov	r2,r4
 2001160:	2807883a 	mov	r3,r5
 2001164:	00013306 	br	2001634 <__ieee754_sqrt+0x61c>
	}
    /* normalize x */
	m = (ix0>>20);
 2001168:	e0bfee17 	ldw	r2,-72(fp)
 200116c:	1005d53a 	srai	r2,r2,20
 2001170:	e0bff115 	stw	r2,-60(fp)
	if(m==0) {				/* subnormal x */
 2001174:	e0bff117 	ldw	r2,-60(fp)
 2001178:	10002a1e 	bne	r2,zero,2001224 <__ieee754_sqrt+0x20c>
	    while(ix0==0) {
 200117c:	00000b06 	br	20011ac <__ieee754_sqrt+0x194>
		m -= 21;
 2001180:	e0bff117 	ldw	r2,-60(fp)
 2001184:	10bffac4 	addi	r2,r2,-21
 2001188:	e0bff115 	stw	r2,-60(fp)
		ix0 |= (ix1>>11); ix1 <<= 21;
 200118c:	e0bfec17 	ldw	r2,-80(fp)
 2001190:	1006d2fa 	srli	r3,r2,11
 2001194:	e0bfee17 	ldw	r2,-72(fp)
 2001198:	1884b03a 	or	r2,r3,r2
 200119c:	e0bfee15 	stw	r2,-72(fp)
 20011a0:	e0bfec17 	ldw	r2,-80(fp)
 20011a4:	1004957a 	slli	r2,r2,21
 20011a8:	e0bfec15 	stw	r2,-80(fp)
		return (x-x)/(x-x);		/* sqrt(-ve) = sNaN */
	}
    /* normalize x */
	m = (ix0>>20);
	if(m==0) {				/* subnormal x */
	    while(ix0==0) {
 20011ac:	e0bfee17 	ldw	r2,-72(fp)
 20011b0:	103ff326 	beq	r2,zero,2001180 <__ieee754_sqrt+0x168>
		m -= 21;
		ix0 |= (ix1>>11); ix1 <<= 21;
	    }
	    for(i=0;(ix0&0x00100000)==0;i++) ix0<<=1;
 20011b4:	e03ff215 	stw	zero,-56(fp)
 20011b8:	00000606 	br	20011d4 <__ieee754_sqrt+0x1bc>
 20011bc:	e0bfee17 	ldw	r2,-72(fp)
 20011c0:	1085883a 	add	r2,r2,r2
 20011c4:	e0bfee15 	stw	r2,-72(fp)
 20011c8:	e0bff217 	ldw	r2,-56(fp)
 20011cc:	10800044 	addi	r2,r2,1
 20011d0:	e0bff215 	stw	r2,-56(fp)
 20011d4:	e0bfee17 	ldw	r2,-72(fp)
 20011d8:	1080042c 	andhi	r2,r2,16
 20011dc:	103ff726 	beq	r2,zero,20011bc <__ieee754_sqrt+0x1a4>
	    m -= i-1;
 20011e0:	e0bff217 	ldw	r2,-56(fp)
 20011e4:	10bfffc4 	addi	r2,r2,-1
 20011e8:	e0fff117 	ldw	r3,-60(fp)
 20011ec:	1885c83a 	sub	r2,r3,r2
 20011f0:	e0bff115 	stw	r2,-60(fp)
	    ix0 |= (ix1>>(32-i));
 20011f4:	00c00804 	movi	r3,32
 20011f8:	e0bff217 	ldw	r2,-56(fp)
 20011fc:	1885c83a 	sub	r2,r3,r2
 2001200:	e0ffec17 	ldw	r3,-80(fp)
 2001204:	1886d83a 	srl	r3,r3,r2
 2001208:	e0bfee17 	ldw	r2,-72(fp)
 200120c:	1884b03a 	or	r2,r3,r2
 2001210:	e0bfee15 	stw	r2,-72(fp)
	    ix1 <<= i;
 2001214:	e0ffec17 	ldw	r3,-80(fp)
 2001218:	e0bff217 	ldw	r2,-56(fp)
 200121c:	1884983a 	sll	r2,r3,r2
 2001220:	e0bfec15 	stw	r2,-80(fp)
	}
	m -= 1023;	/* unbias exponent */
 2001224:	e0bff117 	ldw	r2,-60(fp)
 2001228:	10bf0044 	addi	r2,r2,-1023
 200122c:	e0bff115 	stw	r2,-60(fp)
	ix0 = (ix0&0x000fffff)|0x00100000;
 2001230:	e0ffee17 	ldw	r3,-72(fp)
 2001234:	00800434 	movhi	r2,16
 2001238:	10bfffc4 	addi	r2,r2,-1
 200123c:	1884703a 	and	r2,r3,r2
 2001240:	10800434 	orhi	r2,r2,16
 2001244:	e0bfee15 	stw	r2,-72(fp)
	if(m&1){	/* odd m, double x to make it even */
 2001248:	e0bff117 	ldw	r2,-60(fp)
 200124c:	1080004c 	andi	r2,r2,1
 2001250:	10000d26 	beq	r2,zero,2001288 <__ieee754_sqrt+0x270>
	    ix0 += ix0 + ((ix1&sign)>>31);
 2001254:	e0fff317 	ldw	r3,-52(fp)
 2001258:	e0bfec17 	ldw	r2,-80(fp)
 200125c:	1884703a 	and	r2,r3,r2
 2001260:	1006d7fa 	srli	r3,r2,31
 2001264:	e0bfee17 	ldw	r2,-72(fp)
 2001268:	1887883a 	add	r3,r3,r2
 200126c:	e0bfee17 	ldw	r2,-72(fp)
 2001270:	1885883a 	add	r2,r3,r2
 2001274:	e0bfee15 	stw	r2,-72(fp)
	    ix1 += ix1;
 2001278:	e0ffec17 	ldw	r3,-80(fp)
 200127c:	e0bfec17 	ldw	r2,-80(fp)
 2001280:	1885883a 	add	r2,r3,r2
 2001284:	e0bfec15 	stw	r2,-80(fp)
	}
	m >>= 1;	/* m = [m/2] */
 2001288:	e0bff117 	ldw	r2,-60(fp)
 200128c:	1005d07a 	srai	r2,r2,1
 2001290:	e0bff115 	stw	r2,-60(fp)

    /* generate sqrt(x) bit by bit */
	ix0 += ix0 + ((ix1&sign)>>31);
 2001294:	e0fff317 	ldw	r3,-52(fp)
 2001298:	e0bfec17 	ldw	r2,-80(fp)
 200129c:	1884703a 	and	r2,r3,r2
 20012a0:	1006d7fa 	srli	r3,r2,31
 20012a4:	e0bfee17 	ldw	r2,-72(fp)
 20012a8:	1887883a 	add	r3,r3,r2
 20012ac:	e0bfee17 	ldw	r2,-72(fp)
 20012b0:	1885883a 	add	r2,r3,r2
 20012b4:	e0bfee15 	stw	r2,-72(fp)
	ix1 += ix1;
 20012b8:	e0ffec17 	ldw	r3,-80(fp)
 20012bc:	e0bfec17 	ldw	r2,-80(fp)
 20012c0:	1885883a 	add	r2,r3,r2
 20012c4:	e0bfec15 	stw	r2,-80(fp)
	q = q1 = s0 = s1 = 0;	/* [q,q1] = sqrt(x) */
 20012c8:	e03feb15 	stw	zero,-84(fp)
 20012cc:	e03fef15 	stw	zero,-68(fp)
 20012d0:	e0bfef17 	ldw	r2,-68(fp)
 20012d4:	e0bfed15 	stw	r2,-76(fp)
 20012d8:	e0bfed17 	ldw	r2,-76(fp)
 20012dc:	e0bff015 	stw	r2,-64(fp)
	r = 0x00200000;		/* r = moving bit from right to left */
 20012e0:	00800834 	movhi	r2,32
 20012e4:	e0bfea15 	stw	r2,-88(fp)

	while(r!=0) {
 20012e8:	00002306 	br	2001378 <__ieee754_sqrt+0x360>
	    t = s0+r; 
 20012ec:	e0ffef17 	ldw	r3,-68(fp)
 20012f0:	e0bfea17 	ldw	r2,-88(fp)
 20012f4:	1885883a 	add	r2,r3,r2
 20012f8:	e0bff415 	stw	r2,-48(fp)
	    if(t<=ix0) { 
 20012fc:	e0bff417 	ldw	r2,-48(fp)
 2001300:	e0ffee17 	ldw	r3,-72(fp)
 2001304:	18800c16 	blt	r3,r2,2001338 <__ieee754_sqrt+0x320>
		s0   = t+r; 
 2001308:	e0fff417 	ldw	r3,-48(fp)
 200130c:	e0bfea17 	ldw	r2,-88(fp)
 2001310:	1885883a 	add	r2,r3,r2
 2001314:	e0bfef15 	stw	r2,-68(fp)
		ix0 -= t; 
 2001318:	e0ffee17 	ldw	r3,-72(fp)
 200131c:	e0bff417 	ldw	r2,-48(fp)
 2001320:	1885c83a 	sub	r2,r3,r2
 2001324:	e0bfee15 	stw	r2,-72(fp)
		q   += r; 
 2001328:	e0fff017 	ldw	r3,-64(fp)
 200132c:	e0bfea17 	ldw	r2,-88(fp)
 2001330:	1885883a 	add	r2,r3,r2
 2001334:	e0bff015 	stw	r2,-64(fp)
	    } 
	    ix0 += ix0 + ((ix1&sign)>>31);
 2001338:	e0fff317 	ldw	r3,-52(fp)
 200133c:	e0bfec17 	ldw	r2,-80(fp)
 2001340:	1884703a 	and	r2,r3,r2
 2001344:	1006d7fa 	srli	r3,r2,31
 2001348:	e0bfee17 	ldw	r2,-72(fp)
 200134c:	1887883a 	add	r3,r3,r2
 2001350:	e0bfee17 	ldw	r2,-72(fp)
 2001354:	1885883a 	add	r2,r3,r2
 2001358:	e0bfee15 	stw	r2,-72(fp)
	    ix1 += ix1;
 200135c:	e0ffec17 	ldw	r3,-80(fp)
 2001360:	e0bfec17 	ldw	r2,-80(fp)
 2001364:	1885883a 	add	r2,r3,r2
 2001368:	e0bfec15 	stw	r2,-80(fp)
	    r>>=1;
 200136c:	e0bfea17 	ldw	r2,-88(fp)
 2001370:	1004d07a 	srli	r2,r2,1
 2001374:	e0bfea15 	stw	r2,-88(fp)
	ix0 += ix0 + ((ix1&sign)>>31);
	ix1 += ix1;
	q = q1 = s0 = s1 = 0;	/* [q,q1] = sqrt(x) */
	r = 0x00200000;		/* r = moving bit from right to left */

	while(r!=0) {
 2001378:	e0bfea17 	ldw	r2,-88(fp)
 200137c:	103fdb1e 	bne	r2,zero,20012ec <__ieee754_sqrt+0x2d4>
	    ix0 += ix0 + ((ix1&sign)>>31);
	    ix1 += ix1;
	    r>>=1;
	}

	r = sign;
 2001380:	e0bff317 	ldw	r2,-52(fp)
 2001384:	e0bfea15 	stw	r2,-88(fp)
	while(r!=0) {
 2001388:	00004106 	br	2001490 <__ieee754_sqrt+0x478>
	    t1 = s1+r; 
 200138c:	e0ffeb17 	ldw	r3,-84(fp)
 2001390:	e0bfea17 	ldw	r2,-88(fp)
 2001394:	1885883a 	add	r2,r3,r2
 2001398:	e0bff515 	stw	r2,-44(fp)
	    t  = s0;
 200139c:	e0bfef17 	ldw	r2,-68(fp)
 20013a0:	e0bff415 	stw	r2,-48(fp)
	    if((t<ix0)||((t==ix0)&&(t1<=ix1))) { 
 20013a4:	e0fff417 	ldw	r3,-48(fp)
 20013a8:	e0bfee17 	ldw	r2,-72(fp)
 20013ac:	18800616 	blt	r3,r2,20013c8 <__ieee754_sqrt+0x3b0>
 20013b0:	e0fff417 	ldw	r3,-48(fp)
 20013b4:	e0bfee17 	ldw	r2,-72(fp)
 20013b8:	1880251e 	bne	r3,r2,2001450 <__ieee754_sqrt+0x438>
 20013bc:	e0bff517 	ldw	r2,-44(fp)
 20013c0:	e0ffec17 	ldw	r3,-80(fp)
 20013c4:	18802236 	bltu	r3,r2,2001450 <__ieee754_sqrt+0x438>
		s1  = t1+r;
 20013c8:	e0fff517 	ldw	r3,-44(fp)
 20013cc:	e0bfea17 	ldw	r2,-88(fp)
 20013d0:	1885883a 	add	r2,r3,r2
 20013d4:	e0bfeb15 	stw	r2,-84(fp)
		if(((t1&sign)==sign)&&(s1&sign)==0) s0 += 1;
 20013d8:	e0fff317 	ldw	r3,-52(fp)
 20013dc:	e0bff517 	ldw	r2,-44(fp)
 20013e0:	1886703a 	and	r3,r3,r2
 20013e4:	e0bff317 	ldw	r2,-52(fp)
 20013e8:	1880071e 	bne	r3,r2,2001408 <__ieee754_sqrt+0x3f0>
 20013ec:	e0fff317 	ldw	r3,-52(fp)
 20013f0:	e0bfeb17 	ldw	r2,-84(fp)
 20013f4:	1884703a 	and	r2,r3,r2
 20013f8:	1000031e 	bne	r2,zero,2001408 <__ieee754_sqrt+0x3f0>
 20013fc:	e0bfef17 	ldw	r2,-68(fp)
 2001400:	10800044 	addi	r2,r2,1
 2001404:	e0bfef15 	stw	r2,-68(fp)
		ix0 -= t;
 2001408:	e0ffee17 	ldw	r3,-72(fp)
 200140c:	e0bff417 	ldw	r2,-48(fp)
 2001410:	1885c83a 	sub	r2,r3,r2
 2001414:	e0bfee15 	stw	r2,-72(fp)
		if (ix1 < t1) ix0 -= 1;
 2001418:	e0ffec17 	ldw	r3,-80(fp)
 200141c:	e0bff517 	ldw	r2,-44(fp)
 2001420:	1880032e 	bgeu	r3,r2,2001430 <__ieee754_sqrt+0x418>
 2001424:	e0bfee17 	ldw	r2,-72(fp)
 2001428:	10bfffc4 	addi	r2,r2,-1
 200142c:	e0bfee15 	stw	r2,-72(fp)
		ix1 -= t1;
 2001430:	e0ffec17 	ldw	r3,-80(fp)
 2001434:	e0bff517 	ldw	r2,-44(fp)
 2001438:	1885c83a 	sub	r2,r3,r2
 200143c:	e0bfec15 	stw	r2,-80(fp)
		q1  += r;
 2001440:	e0ffed17 	ldw	r3,-76(fp)
 2001444:	e0bfea17 	ldw	r2,-88(fp)
 2001448:	1885883a 	add	r2,r3,r2
 200144c:	e0bfed15 	stw	r2,-76(fp)
	    }
	    ix0 += ix0 + ((ix1&sign)>>31);
 2001450:	e0fff317 	ldw	r3,-52(fp)
 2001454:	e0bfec17 	ldw	r2,-80(fp)
 2001458:	1884703a 	and	r2,r3,r2
 200145c:	1006d7fa 	srli	r3,r2,31
 2001460:	e0bfee17 	ldw	r2,-72(fp)
 2001464:	1887883a 	add	r3,r3,r2
 2001468:	e0bfee17 	ldw	r2,-72(fp)
 200146c:	1885883a 	add	r2,r3,r2
 2001470:	e0bfee15 	stw	r2,-72(fp)
	    ix1 += ix1;
 2001474:	e0ffec17 	ldw	r3,-80(fp)
 2001478:	e0bfec17 	ldw	r2,-80(fp)
 200147c:	1885883a 	add	r2,r3,r2
 2001480:	e0bfec15 	stw	r2,-80(fp)
	    r>>=1;
 2001484:	e0bfea17 	ldw	r2,-88(fp)
 2001488:	1004d07a 	srli	r2,r2,1
 200148c:	e0bfea15 	stw	r2,-88(fp)
	    ix1 += ix1;
	    r>>=1;
	}

	r = sign;
	while(r!=0) {
 2001490:	e0bfea17 	ldw	r2,-88(fp)
 2001494:	103fbd1e 	bne	r2,zero,200138c <__ieee754_sqrt+0x374>
	    ix1 += ix1;
	    r>>=1;
	}

    /* use floating add to find out rounding direction */
	if((ix0|ix1)!=0) {
 2001498:	e0ffee17 	ldw	r3,-72(fp)
 200149c:	e0bfec17 	ldw	r2,-80(fp)
 20014a0:	1884b03a 	or	r2,r3,r2
 20014a4:	10004526 	beq	r2,zero,20015bc <__ieee754_sqrt+0x5a4>
	    z = one-tiny; /* trigger inexact flag */
 20014a8:	0011883a 	mov	r8,zero
 20014ac:	024ffc34 	movhi	r9,16368
 20014b0:	00b0be74 	movhi	r2,49913
 20014b4:	10bcd644 	addi	r2,r2,-3239
 20014b8:	00c06974 	movhi	r3,421
 20014bc:	18db87c4 	addi	r3,r3,28191
 20014c0:	100d883a 	mov	r6,r2
 20014c4:	180f883a 	mov	r7,r3
 20014c8:	4009883a 	mov	r4,r8
 20014cc:	480b883a 	mov	r5,r9
 20014d0:	20032d00 	call	20032d0 <__subdf3>
 20014d4:	1009883a 	mov	r4,r2
 20014d8:	180b883a 	mov	r5,r3
 20014dc:	e13ff615 	stw	r4,-40(fp)
 20014e0:	e17ff715 	stw	r5,-36(fp)
	    if (z>=one) {
 20014e4:	0005883a 	mov	r2,zero
 20014e8:	00cffc34 	movhi	r3,16368
 20014ec:	100d883a 	mov	r6,r2
 20014f0:	180f883a 	mov	r7,r3
 20014f4:	e13ff617 	ldw	r4,-40(fp)
 20014f8:	e17ff717 	ldw	r5,-36(fp)
 20014fc:	20029e80 	call	20029e8 <__gedf2>
 2001500:	10002e16 	blt	r2,zero,20015bc <__ieee754_sqrt+0x5a4>
	        z = one+tiny;
 2001504:	0011883a 	mov	r8,zero
 2001508:	024ffc34 	movhi	r9,16368
 200150c:	00b0be74 	movhi	r2,49913
 2001510:	10bcd644 	addi	r2,r2,-3239
 2001514:	00c06974 	movhi	r3,421
 2001518:	18db87c4 	addi	r3,r3,28191
 200151c:	100d883a 	mov	r6,r2
 2001520:	180f883a 	mov	r7,r3
 2001524:	4009883a 	mov	r4,r8
 2001528:	480b883a 	mov	r5,r9
 200152c:	20017cc0 	call	20017cc <__adddf3>
 2001530:	1009883a 	mov	r4,r2
 2001534:	180b883a 	mov	r5,r3
 2001538:	e13ff615 	stw	r4,-40(fp)
 200153c:	e17ff715 	stw	r5,-36(fp)
	        if (q1==(__uint32_t)0xffffffff) { q1=0; q += 1;}
 2001540:	e0bfed17 	ldw	r2,-76(fp)
 2001544:	10bfffd8 	cmpnei	r2,r2,-1
 2001548:	1000051e 	bne	r2,zero,2001560 <__ieee754_sqrt+0x548>
 200154c:	e03fed15 	stw	zero,-76(fp)
 2001550:	e0bff017 	ldw	r2,-64(fp)
 2001554:	10800044 	addi	r2,r2,1
 2001558:	e0bff015 	stw	r2,-64(fp)
 200155c:	00001706 	br	20015bc <__ieee754_sqrt+0x5a4>
		else if (z>one) {
 2001560:	0005883a 	mov	r2,zero
 2001564:	00cffc34 	movhi	r3,16368
 2001568:	100d883a 	mov	r6,r2
 200156c:	180f883a 	mov	r7,r3
 2001570:	e13ff617 	ldw	r4,-40(fp)
 2001574:	e17ff717 	ldw	r5,-36(fp)
 2001578:	20029e80 	call	20029e8 <__gedf2>
 200157c:	00800a0e 	bge	zero,r2,20015a8 <__ieee754_sqrt+0x590>
		    if (q1==(__uint32_t)0xfffffffe) q+=1;
 2001580:	e0bfed17 	ldw	r2,-76(fp)
 2001584:	10bfff98 	cmpnei	r2,r2,-2
 2001588:	1000031e 	bne	r2,zero,2001598 <__ieee754_sqrt+0x580>
 200158c:	e0bff017 	ldw	r2,-64(fp)
 2001590:	10800044 	addi	r2,r2,1
 2001594:	e0bff015 	stw	r2,-64(fp)
		    q1+=2; 
 2001598:	e0bfed17 	ldw	r2,-76(fp)
 200159c:	10800084 	addi	r2,r2,2
 20015a0:	e0bfed15 	stw	r2,-76(fp)
 20015a4:	00000506 	br	20015bc <__ieee754_sqrt+0x5a4>
		} else
	            q1 += (q1&1);
 20015a8:	e0bfed17 	ldw	r2,-76(fp)
 20015ac:	1080004c 	andi	r2,r2,1
 20015b0:	e0ffed17 	ldw	r3,-76(fp)
 20015b4:	1885883a 	add	r2,r3,r2
 20015b8:	e0bfed15 	stw	r2,-76(fp)
	    }
	}
	ix0 = (q>>1)+0x3fe00000;
 20015bc:	e0bff017 	ldw	r2,-64(fp)
 20015c0:	1007d07a 	srai	r3,r2,1
 20015c4:	008ff834 	movhi	r2,16352
 20015c8:	1885883a 	add	r2,r3,r2
 20015cc:	e0bfee15 	stw	r2,-72(fp)
	ix1 =  q1>>1;
 20015d0:	e0bfed17 	ldw	r2,-76(fp)
 20015d4:	1004d07a 	srli	r2,r2,1
 20015d8:	e0bfec15 	stw	r2,-80(fp)
	if ((q&1)==1) ix1 |= sign;
 20015dc:	e0bff017 	ldw	r2,-64(fp)
 20015e0:	1080004c 	andi	r2,r2,1
 20015e4:	10000426 	beq	r2,zero,20015f8 <__ieee754_sqrt+0x5e0>
 20015e8:	e0bff317 	ldw	r2,-52(fp)
 20015ec:	e0ffec17 	ldw	r3,-80(fp)
 20015f0:	1884b03a 	or	r2,r3,r2
 20015f4:	e0bfec15 	stw	r2,-80(fp)
	ix0 += (m <<20);
 20015f8:	e0bff117 	ldw	r2,-60(fp)
 20015fc:	1004953a 	slli	r2,r2,20
 2001600:	e0ffee17 	ldw	r3,-72(fp)
 2001604:	1885883a 	add	r2,r3,r2
 2001608:	e0bfee15 	stw	r2,-72(fp)
	INSERT_WORDS(z,ix0,ix1);
 200160c:	e0bfee17 	ldw	r2,-72(fp)
 2001610:	e0bffb15 	stw	r2,-20(fp)
 2001614:	e0bfec17 	ldw	r2,-80(fp)
 2001618:	e0bffa15 	stw	r2,-24(fp)
 200161c:	e0bffa17 	ldw	r2,-24(fp)
 2001620:	e0bff615 	stw	r2,-40(fp)
 2001624:	e0bffb17 	ldw	r2,-20(fp)
 2001628:	e0bff715 	stw	r2,-36(fp)
	return z;
 200162c:	e0bff617 	ldw	r2,-40(fp)
 2001630:	e0fff717 	ldw	r3,-36(fp)
 2001634:	1009883a 	mov	r4,r2
 2001638:	180b883a 	mov	r5,r3
}
 200163c:	2005883a 	mov	r2,r4
 2001640:	2807883a 	mov	r3,r5
 2001644:	e6fffe04 	addi	sp,fp,-8
 2001648:	dfc00317 	ldw	ra,12(sp)
 200164c:	df000217 	ldw	fp,8(sp)
 2001650:	dc400117 	ldw	r17,4(sp)
 2001654:	dc000017 	ldw	r16,0(sp)
 2001658:	dec00404 	addi	sp,sp,16
 200165c:	f800283a 	ret

02001660 <__fpclassifyd>:

#include "fdlibm.h"

int
__fpclassifyd (double x)
{
 2001660:	defff904 	addi	sp,sp,-28
 2001664:	df000615 	stw	fp,24(sp)
 2001668:	df000604 	addi	fp,sp,24
 200166c:	e13ffe15 	stw	r4,-8(fp)
 2001670:	e17fff15 	stw	r5,-4(fp)
  __uint32_t msw, lsw;

  EXTRACT_WORDS(msw,lsw,x);
 2001674:	e0bffe17 	ldw	r2,-8(fp)
 2001678:	e0bffc15 	stw	r2,-16(fp)
 200167c:	e0bfff17 	ldw	r2,-4(fp)
 2001680:	e0bffd15 	stw	r2,-12(fp)
 2001684:	e0bffd17 	ldw	r2,-12(fp)
 2001688:	e0bffa15 	stw	r2,-24(fp)
 200168c:	e0bffc17 	ldw	r2,-16(fp)
 2001690:	e0bffb15 	stw	r2,-20(fp)

  if ((msw == 0x00000000 && lsw == 0x00000000) ||
 2001694:	e0bffa17 	ldw	r2,-24(fp)
 2001698:	1000021e 	bne	r2,zero,20016a4 <__fpclassifyd+0x44>
 200169c:	e0bffb17 	ldw	r2,-20(fp)
 20016a0:	10000526 	beq	r2,zero,20016b8 <__fpclassifyd+0x58>
 20016a4:	e0fffa17 	ldw	r3,-24(fp)
 20016a8:	00a00034 	movhi	r2,32768
 20016ac:	1880041e 	bne	r3,r2,20016c0 <__fpclassifyd+0x60>
      (msw == 0x80000000 && lsw == 0x00000000))
 20016b0:	e0bffb17 	ldw	r2,-20(fp)
 20016b4:	1000021e 	bne	r2,zero,20016c0 <__fpclassifyd+0x60>
    return FP_ZERO;
 20016b8:	00800084 	movi	r2,2
 20016bc:	00002506 	br	2001754 <__fpclassifyd+0xf4>
  else if ((msw >= 0x00100000 && msw <= 0x7fefffff) ||
 20016c0:	e0fffa17 	ldw	r3,-24(fp)
 20016c4:	00800434 	movhi	r2,16
 20016c8:	18800336 	bltu	r3,r2,20016d8 <__fpclassifyd+0x78>
 20016cc:	e0fffa17 	ldw	r3,-24(fp)
 20016d0:	009ffc34 	movhi	r2,32752
 20016d4:	18800636 	bltu	r3,r2,20016f0 <__fpclassifyd+0x90>
 20016d8:	e0fffa17 	ldw	r3,-24(fp)
 20016dc:	00a00434 	movhi	r2,32784
 20016e0:	18800536 	bltu	r3,r2,20016f8 <__fpclassifyd+0x98>
           (msw >= 0x80100000 && msw <= 0xffefffff))
 20016e4:	e0fffa17 	ldw	r3,-24(fp)
 20016e8:	00bffc34 	movhi	r2,65520
 20016ec:	1880022e 	bgeu	r3,r2,20016f8 <__fpclassifyd+0x98>
    return FP_NORMAL;
 20016f0:	00800104 	movi	r2,4
 20016f4:	00001706 	br	2001754 <__fpclassifyd+0xf4>
  else if ((msw >= 0x00000000 && msw <= 0x000fffff) ||
 20016f8:	e0fffa17 	ldw	r3,-24(fp)
 20016fc:	00800434 	movhi	r2,16
 2001700:	18800536 	bltu	r3,r2,2001718 <__fpclassifyd+0xb8>
           (msw >= 0x80000000 && msw <= 0x800fffff))
 2001704:	e0bffa17 	ldw	r2,-24(fp)
      (msw == 0x80000000 && lsw == 0x00000000))
    return FP_ZERO;
  else if ((msw >= 0x00100000 && msw <= 0x7fefffff) ||
           (msw >= 0x80100000 && msw <= 0xffefffff))
    return FP_NORMAL;
  else if ((msw >= 0x00000000 && msw <= 0x000fffff) ||
 2001708:	1000050e 	bge	r2,zero,2001720 <__fpclassifyd+0xc0>
           (msw >= 0x80000000 && msw <= 0x800fffff))
 200170c:	e0fffa17 	ldw	r3,-24(fp)
 2001710:	00a00434 	movhi	r2,32784
 2001714:	1880022e 	bgeu	r3,r2,2001720 <__fpclassifyd+0xc0>
    /* zero is already handled above */
    return FP_SUBNORMAL;
 2001718:	008000c4 	movi	r2,3
 200171c:	00000d06 	br	2001754 <__fpclassifyd+0xf4>
  else if ((msw == 0x7ff00000 && lsw == 0x00000000) ||
 2001720:	e0fffa17 	ldw	r3,-24(fp)
 2001724:	009ffc34 	movhi	r2,32752
 2001728:	1880021e 	bne	r3,r2,2001734 <__fpclassifyd+0xd4>
 200172c:	e0bffb17 	ldw	r2,-20(fp)
 2001730:	10000526 	beq	r2,zero,2001748 <__fpclassifyd+0xe8>
 2001734:	e0fffa17 	ldw	r3,-24(fp)
 2001738:	00bffc34 	movhi	r2,65520
 200173c:	1880041e 	bne	r3,r2,2001750 <__fpclassifyd+0xf0>
           (msw == 0xfff00000 && lsw == 0x00000000))
 2001740:	e0bffb17 	ldw	r2,-20(fp)
 2001744:	1000021e 	bne	r2,zero,2001750 <__fpclassifyd+0xf0>
    return FP_INFINITE;
 2001748:	00800044 	movi	r2,1
 200174c:	00000106 	br	2001754 <__fpclassifyd+0xf4>
  else
    return FP_NAN;
 2001750:	0005883a 	mov	r2,zero
}
 2001754:	e037883a 	mov	sp,fp
 2001758:	df000017 	ldw	fp,0(sp)
 200175c:	dec00104 	addi	sp,sp,4
 2001760:	f800283a 	ret

02001764 <matherr>:
	int matherr(struct exception *x)
#else
	int matherr(x)
	struct exception *x;
#endif
{
 2001764:	defffc04 	addi	sp,sp,-16
 2001768:	dfc00315 	stw	ra,12(sp)
 200176c:	df000215 	stw	fp,8(sp)
 2001770:	df000204 	addi	fp,sp,8
 2001774:	e13fff15 	stw	r4,-4(fp)
	int n=0;
 2001778:	e03ffe15 	stw	zero,-8(fp)
	if(x->arg1!=x->arg1) return 0;
 200177c:	e13fff17 	ldw	r4,-4(fp)
 2001780:	20800217 	ldw	r2,8(r4)
 2001784:	20c00317 	ldw	r3,12(r4)
 2001788:	e1bfff17 	ldw	r6,-4(fp)
 200178c:	31000217 	ldw	r4,8(r6)
 2001790:	31400317 	ldw	r5,12(r6)
 2001794:	200d883a 	mov	r6,r4
 2001798:	280f883a 	mov	r7,r5
 200179c:	1009883a 	mov	r4,r2
 20017a0:	180b883a 	mov	r5,r3
 20017a4:	20029600 	call	2002960 <__eqdf2>
 20017a8:	10000226 	beq	r2,zero,20017b4 <matherr+0x50>
 20017ac:	0005883a 	mov	r2,zero
 20017b0:	00000106 	br	20017b8 <matherr+0x54>
	return n;
 20017b4:	e0bffe17 	ldw	r2,-8(fp)
}
 20017b8:	e037883a 	mov	sp,fp
 20017bc:	dfc00117 	ldw	ra,4(sp)
 20017c0:	df000017 	ldw	fp,0(sp)
 20017c4:	dec00204 	addi	sp,sp,8
 20017c8:	f800283a 	ret

020017cc <__adddf3>:
 20017cc:	02c00434 	movhi	r11,16
 20017d0:	5affffc4 	addi	r11,r11,-1
 20017d4:	2806d7fa 	srli	r3,r5,31
 20017d8:	2ad4703a 	and	r10,r5,r11
 20017dc:	3ad2703a 	and	r9,r7,r11
 20017e0:	3804d53a 	srli	r2,r7,20
 20017e4:	3018d77a 	srli	r12,r6,29
 20017e8:	280ad53a 	srli	r5,r5,20
 20017ec:	501490fa 	slli	r10,r10,3
 20017f0:	2010d77a 	srli	r8,r4,29
 20017f4:	481290fa 	slli	r9,r9,3
 20017f8:	380ed7fa 	srli	r7,r7,31
 20017fc:	defffb04 	addi	sp,sp,-20
 2001800:	dc800215 	stw	r18,8(sp)
 2001804:	dc400115 	stw	r17,4(sp)
 2001808:	dc000015 	stw	r16,0(sp)
 200180c:	dfc00415 	stw	ra,16(sp)
 2001810:	dcc00315 	stw	r19,12(sp)
 2001814:	1c803fcc 	andi	r18,r3,255
 2001818:	2c01ffcc 	andi	r16,r5,2047
 200181c:	5210b03a 	or	r8,r10,r8
 2001820:	202290fa 	slli	r17,r4,3
 2001824:	1081ffcc 	andi	r2,r2,2047
 2001828:	4b12b03a 	or	r9,r9,r12
 200182c:	300c90fa 	slli	r6,r6,3
 2001830:	91c07526 	beq	r18,r7,2001a08 <__adddf3+0x23c>
 2001834:	8087c83a 	sub	r3,r16,r2
 2001838:	00c0ab0e 	bge	zero,r3,2001ae8 <__adddf3+0x31c>
 200183c:	10002a1e 	bne	r2,zero,20018e8 <__adddf3+0x11c>
 2001840:	4984b03a 	or	r2,r9,r6
 2001844:	1000961e 	bne	r2,zero,2001aa0 <__adddf3+0x2d4>
 2001848:	888001cc 	andi	r2,r17,7
 200184c:	10000726 	beq	r2,zero,200186c <__adddf3+0xa0>
 2001850:	888003cc 	andi	r2,r17,15
 2001854:	00c00104 	movi	r3,4
 2001858:	10c00426 	beq	r2,r3,200186c <__adddf3+0xa0>
 200185c:	88c7883a 	add	r3,r17,r3
 2001860:	1c63803a 	cmpltu	r17,r3,r17
 2001864:	4451883a 	add	r8,r8,r17
 2001868:	1823883a 	mov	r17,r3
 200186c:	4080202c 	andhi	r2,r8,128
 2001870:	10005926 	beq	r2,zero,20019d8 <__adddf3+0x20c>
 2001874:	84000044 	addi	r16,r16,1
 2001878:	0081ffc4 	movi	r2,2047
 200187c:	8080ba26 	beq	r16,r2,2001b68 <__adddf3+0x39c>
 2001880:	00bfe034 	movhi	r2,65408
 2001884:	10bfffc4 	addi	r2,r2,-1
 2001888:	4090703a 	and	r8,r8,r2
 200188c:	4004977a 	slli	r2,r8,29
 2001890:	4010927a 	slli	r8,r8,9
 2001894:	8822d0fa 	srli	r17,r17,3
 2001898:	8401ffcc 	andi	r16,r16,2047
 200189c:	4010d33a 	srli	r8,r8,12
 20018a0:	9007883a 	mov	r3,r18
 20018a4:	1444b03a 	or	r2,r2,r17
 20018a8:	8401ffcc 	andi	r16,r16,2047
 20018ac:	8020953a 	slli	r16,r16,20
 20018b0:	18c03fcc 	andi	r3,r3,255
 20018b4:	01000434 	movhi	r4,16
 20018b8:	213fffc4 	addi	r4,r4,-1
 20018bc:	180697fa 	slli	r3,r3,31
 20018c0:	4110703a 	and	r8,r8,r4
 20018c4:	4410b03a 	or	r8,r8,r16
 20018c8:	40c6b03a 	or	r3,r8,r3
 20018cc:	dfc00417 	ldw	ra,16(sp)
 20018d0:	dcc00317 	ldw	r19,12(sp)
 20018d4:	dc800217 	ldw	r18,8(sp)
 20018d8:	dc400117 	ldw	r17,4(sp)
 20018dc:	dc000017 	ldw	r16,0(sp)
 20018e0:	dec00504 	addi	sp,sp,20
 20018e4:	f800283a 	ret
 20018e8:	0081ffc4 	movi	r2,2047
 20018ec:	80bfd626 	beq	r16,r2,2001848 <__adddf3+0x7c>
 20018f0:	4a402034 	orhi	r9,r9,128
 20018f4:	00800e04 	movi	r2,56
 20018f8:	10c09f16 	blt	r2,r3,2001b78 <__adddf3+0x3ac>
 20018fc:	008007c4 	movi	r2,31
 2001900:	10c0c216 	blt	r2,r3,2001c0c <__adddf3+0x440>
 2001904:	00800804 	movi	r2,32
 2001908:	10c5c83a 	sub	r2,r2,r3
 200190c:	488a983a 	sll	r5,r9,r2
 2001910:	30c8d83a 	srl	r4,r6,r3
 2001914:	3084983a 	sll	r2,r6,r2
 2001918:	48c6d83a 	srl	r3,r9,r3
 200191c:	290cb03a 	or	r6,r5,r4
 2001920:	1004c03a 	cmpne	r2,r2,zero
 2001924:	308cb03a 	or	r6,r6,r2
 2001928:	898dc83a 	sub	r6,r17,r6
 200192c:	89a3803a 	cmpltu	r17,r17,r6
 2001930:	40d1c83a 	sub	r8,r8,r3
 2001934:	4451c83a 	sub	r8,r8,r17
 2001938:	3023883a 	mov	r17,r6
 200193c:	4080202c 	andhi	r2,r8,128
 2001940:	10002326 	beq	r2,zero,20019d0 <__adddf3+0x204>
 2001944:	04c02034 	movhi	r19,128
 2001948:	9cffffc4 	addi	r19,r19,-1
 200194c:	44e6703a 	and	r19,r8,r19
 2001950:	98007626 	beq	r19,zero,2001b2c <__adddf3+0x360>
 2001954:	9809883a 	mov	r4,r19
 2001958:	2003d280 	call	2003d28 <__clzsi2>
 200195c:	10fffe04 	addi	r3,r2,-8
 2001960:	010007c4 	movi	r4,31
 2001964:	20c07716 	blt	r4,r3,2001b44 <__adddf3+0x378>
 2001968:	00800804 	movi	r2,32
 200196c:	10c5c83a 	sub	r2,r2,r3
 2001970:	8884d83a 	srl	r2,r17,r2
 2001974:	98d0983a 	sll	r8,r19,r3
 2001978:	88e2983a 	sll	r17,r17,r3
 200197c:	1204b03a 	or	r2,r2,r8
 2001980:	1c007416 	blt	r3,r16,2001b54 <__adddf3+0x388>
 2001984:	1c21c83a 	sub	r16,r3,r16
 2001988:	82000044 	addi	r8,r16,1
 200198c:	00c007c4 	movi	r3,31
 2001990:	1a009116 	blt	r3,r8,2001bd8 <__adddf3+0x40c>
 2001994:	00c00804 	movi	r3,32
 2001998:	1a07c83a 	sub	r3,r3,r8
 200199c:	8a08d83a 	srl	r4,r17,r8
 20019a0:	88e2983a 	sll	r17,r17,r3
 20019a4:	10c6983a 	sll	r3,r2,r3
 20019a8:	1210d83a 	srl	r8,r2,r8
 20019ac:	8804c03a 	cmpne	r2,r17,zero
 20019b0:	1906b03a 	or	r3,r3,r4
 20019b4:	18a2b03a 	or	r17,r3,r2
 20019b8:	0021883a 	mov	r16,zero
 20019bc:	003fa206 	br	2001848 <__adddf3+0x7c>
 20019c0:	1890b03a 	or	r8,r3,r2
 20019c4:	40017d26 	beq	r8,zero,2001fbc <__adddf3+0x7f0>
 20019c8:	1011883a 	mov	r8,r2
 20019cc:	1823883a 	mov	r17,r3
 20019d0:	888001cc 	andi	r2,r17,7
 20019d4:	103f9e1e 	bne	r2,zero,2001850 <__adddf3+0x84>
 20019d8:	4004977a 	slli	r2,r8,29
 20019dc:	8822d0fa 	srli	r17,r17,3
 20019e0:	4010d0fa 	srli	r8,r8,3
 20019e4:	9007883a 	mov	r3,r18
 20019e8:	1444b03a 	or	r2,r2,r17
 20019ec:	0101ffc4 	movi	r4,2047
 20019f0:	81002426 	beq	r16,r4,2001a84 <__adddf3+0x2b8>
 20019f4:	8120703a 	and	r16,r16,r4
 20019f8:	01000434 	movhi	r4,16
 20019fc:	213fffc4 	addi	r4,r4,-1
 2001a00:	4110703a 	and	r8,r8,r4
 2001a04:	003fa806 	br	20018a8 <__adddf3+0xdc>
 2001a08:	8089c83a 	sub	r4,r16,r2
 2001a0c:	01005e0e 	bge	zero,r4,2001b88 <__adddf3+0x3bc>
 2001a10:	10002b26 	beq	r2,zero,2001ac0 <__adddf3+0x2f4>
 2001a14:	0081ffc4 	movi	r2,2047
 2001a18:	80bf8b26 	beq	r16,r2,2001848 <__adddf3+0x7c>
 2001a1c:	4a402034 	orhi	r9,r9,128
 2001a20:	00800e04 	movi	r2,56
 2001a24:	1100a40e 	bge	r2,r4,2001cb8 <__adddf3+0x4ec>
 2001a28:	498cb03a 	or	r6,r9,r6
 2001a2c:	300ac03a 	cmpne	r5,r6,zero
 2001a30:	0013883a 	mov	r9,zero
 2001a34:	2c4b883a 	add	r5,r5,r17
 2001a38:	2c63803a 	cmpltu	r17,r5,r17
 2001a3c:	4a11883a 	add	r8,r9,r8
 2001a40:	8a11883a 	add	r8,r17,r8
 2001a44:	2823883a 	mov	r17,r5
 2001a48:	4080202c 	andhi	r2,r8,128
 2001a4c:	103fe026 	beq	r2,zero,20019d0 <__adddf3+0x204>
 2001a50:	84000044 	addi	r16,r16,1
 2001a54:	0081ffc4 	movi	r2,2047
 2001a58:	8080d226 	beq	r16,r2,2001da4 <__adddf3+0x5d8>
 2001a5c:	00bfe034 	movhi	r2,65408
 2001a60:	10bfffc4 	addi	r2,r2,-1
 2001a64:	4090703a 	and	r8,r8,r2
 2001a68:	880ad07a 	srli	r5,r17,1
 2001a6c:	400897fa 	slli	r4,r8,31
 2001a70:	88c0004c 	andi	r3,r17,1
 2001a74:	28e2b03a 	or	r17,r5,r3
 2001a78:	4010d07a 	srli	r8,r8,1
 2001a7c:	2462b03a 	or	r17,r4,r17
 2001a80:	003f7106 	br	2001848 <__adddf3+0x7c>
 2001a84:	4088b03a 	or	r4,r8,r2
 2001a88:	20014526 	beq	r4,zero,2001fa0 <__adddf3+0x7d4>
 2001a8c:	01000434 	movhi	r4,16
 2001a90:	42000234 	orhi	r8,r8,8
 2001a94:	213fffc4 	addi	r4,r4,-1
 2001a98:	4110703a 	and	r8,r8,r4
 2001a9c:	003f8206 	br	20018a8 <__adddf3+0xdc>
 2001aa0:	18ffffc4 	addi	r3,r3,-1
 2001aa4:	1800491e 	bne	r3,zero,2001bcc <__adddf3+0x400>
 2001aa8:	898bc83a 	sub	r5,r17,r6
 2001aac:	8963803a 	cmpltu	r17,r17,r5
 2001ab0:	4251c83a 	sub	r8,r8,r9
 2001ab4:	4451c83a 	sub	r8,r8,r17
 2001ab8:	2823883a 	mov	r17,r5
 2001abc:	003f9f06 	br	200193c <__adddf3+0x170>
 2001ac0:	4984b03a 	or	r2,r9,r6
 2001ac4:	103f6026 	beq	r2,zero,2001848 <__adddf3+0x7c>
 2001ac8:	213fffc4 	addi	r4,r4,-1
 2001acc:	2000931e 	bne	r4,zero,2001d1c <__adddf3+0x550>
 2001ad0:	898d883a 	add	r6,r17,r6
 2001ad4:	3463803a 	cmpltu	r17,r6,r17
 2001ad8:	4251883a 	add	r8,r8,r9
 2001adc:	8a11883a 	add	r8,r17,r8
 2001ae0:	3023883a 	mov	r17,r6
 2001ae4:	003fd806 	br	2001a48 <__adddf3+0x27c>
 2001ae8:	1800541e 	bne	r3,zero,2001c3c <__adddf3+0x470>
 2001aec:	80800044 	addi	r2,r16,1
 2001af0:	1081ffcc 	andi	r2,r2,2047
 2001af4:	00c00044 	movi	r3,1
 2001af8:	1880a00e 	bge	r3,r2,2001d7c <__adddf3+0x5b0>
 2001afc:	8989c83a 	sub	r4,r17,r6
 2001b00:	8905803a 	cmpltu	r2,r17,r4
 2001b04:	4267c83a 	sub	r19,r8,r9
 2001b08:	98a7c83a 	sub	r19,r19,r2
 2001b0c:	9880202c 	andhi	r2,r19,128
 2001b10:	10006326 	beq	r2,zero,2001ca0 <__adddf3+0x4d4>
 2001b14:	3463c83a 	sub	r17,r6,r17
 2001b18:	4a07c83a 	sub	r3,r9,r8
 2001b1c:	344d803a 	cmpltu	r6,r6,r17
 2001b20:	19a7c83a 	sub	r19,r3,r6
 2001b24:	3825883a 	mov	r18,r7
 2001b28:	983f8a1e 	bne	r19,zero,2001954 <__adddf3+0x188>
 2001b2c:	8809883a 	mov	r4,r17
 2001b30:	2003d280 	call	2003d28 <__clzsi2>
 2001b34:	10800804 	addi	r2,r2,32
 2001b38:	10fffe04 	addi	r3,r2,-8
 2001b3c:	010007c4 	movi	r4,31
 2001b40:	20ff890e 	bge	r4,r3,2001968 <__adddf3+0x19c>
 2001b44:	10bff604 	addi	r2,r2,-40
 2001b48:	8884983a 	sll	r2,r17,r2
 2001b4c:	0023883a 	mov	r17,zero
 2001b50:	1c3f8c0e 	bge	r3,r16,2001984 <__adddf3+0x1b8>
 2001b54:	023fe034 	movhi	r8,65408
 2001b58:	423fffc4 	addi	r8,r8,-1
 2001b5c:	80e1c83a 	sub	r16,r16,r3
 2001b60:	1210703a 	and	r8,r2,r8
 2001b64:	003f3806 	br	2001848 <__adddf3+0x7c>
 2001b68:	9007883a 	mov	r3,r18
 2001b6c:	0011883a 	mov	r8,zero
 2001b70:	0005883a 	mov	r2,zero
 2001b74:	003f4c06 	br	20018a8 <__adddf3+0xdc>
 2001b78:	498cb03a 	or	r6,r9,r6
 2001b7c:	300cc03a 	cmpne	r6,r6,zero
 2001b80:	0007883a 	mov	r3,zero
 2001b84:	003f6806 	br	2001928 <__adddf3+0x15c>
 2001b88:	20009c1e 	bne	r4,zero,2001dfc <__adddf3+0x630>
 2001b8c:	80800044 	addi	r2,r16,1
 2001b90:	1141ffcc 	andi	r5,r2,2047
 2001b94:	01000044 	movi	r4,1
 2001b98:	2140670e 	bge	r4,r5,2001d38 <__adddf3+0x56c>
 2001b9c:	0101ffc4 	movi	r4,2047
 2001ba0:	11007f26 	beq	r2,r4,2001da0 <__adddf3+0x5d4>
 2001ba4:	898d883a 	add	r6,r17,r6
 2001ba8:	4247883a 	add	r3,r8,r9
 2001bac:	3451803a 	cmpltu	r8,r6,r17
 2001bb0:	40d1883a 	add	r8,r8,r3
 2001bb4:	402297fa 	slli	r17,r8,31
 2001bb8:	300cd07a 	srli	r6,r6,1
 2001bbc:	4010d07a 	srli	r8,r8,1
 2001bc0:	1021883a 	mov	r16,r2
 2001bc4:	89a2b03a 	or	r17,r17,r6
 2001bc8:	003f1f06 	br	2001848 <__adddf3+0x7c>
 2001bcc:	0081ffc4 	movi	r2,2047
 2001bd0:	80bf481e 	bne	r16,r2,20018f4 <__adddf3+0x128>
 2001bd4:	003f1c06 	br	2001848 <__adddf3+0x7c>
 2001bd8:	843ff844 	addi	r16,r16,-31
 2001bdc:	01000804 	movi	r4,32
 2001be0:	1406d83a 	srl	r3,r2,r16
 2001be4:	41005026 	beq	r8,r4,2001d28 <__adddf3+0x55c>
 2001be8:	01001004 	movi	r4,64
 2001bec:	2211c83a 	sub	r8,r4,r8
 2001bf0:	1204983a 	sll	r2,r2,r8
 2001bf4:	88a2b03a 	or	r17,r17,r2
 2001bf8:	8822c03a 	cmpne	r17,r17,zero
 2001bfc:	1c62b03a 	or	r17,r3,r17
 2001c00:	0011883a 	mov	r8,zero
 2001c04:	0021883a 	mov	r16,zero
 2001c08:	003f7106 	br	20019d0 <__adddf3+0x204>
 2001c0c:	193ff804 	addi	r4,r3,-32
 2001c10:	00800804 	movi	r2,32
 2001c14:	4908d83a 	srl	r4,r9,r4
 2001c18:	18804526 	beq	r3,r2,2001d30 <__adddf3+0x564>
 2001c1c:	00801004 	movi	r2,64
 2001c20:	10c5c83a 	sub	r2,r2,r3
 2001c24:	4886983a 	sll	r3,r9,r2
 2001c28:	198cb03a 	or	r6,r3,r6
 2001c2c:	300cc03a 	cmpne	r6,r6,zero
 2001c30:	218cb03a 	or	r6,r4,r6
 2001c34:	0007883a 	mov	r3,zero
 2001c38:	003f3b06 	br	2001928 <__adddf3+0x15c>
 2001c3c:	80002a26 	beq	r16,zero,2001ce8 <__adddf3+0x51c>
 2001c40:	0101ffc4 	movi	r4,2047
 2001c44:	11006826 	beq	r2,r4,2001de8 <__adddf3+0x61c>
 2001c48:	00c7c83a 	sub	r3,zero,r3
 2001c4c:	42002034 	orhi	r8,r8,128
 2001c50:	01000e04 	movi	r4,56
 2001c54:	20c07c16 	blt	r4,r3,2001e48 <__adddf3+0x67c>
 2001c58:	010007c4 	movi	r4,31
 2001c5c:	20c0da16 	blt	r4,r3,2001fc8 <__adddf3+0x7fc>
 2001c60:	01000804 	movi	r4,32
 2001c64:	20c9c83a 	sub	r4,r4,r3
 2001c68:	4114983a 	sll	r10,r8,r4
 2001c6c:	88cad83a 	srl	r5,r17,r3
 2001c70:	8908983a 	sll	r4,r17,r4
 2001c74:	40c6d83a 	srl	r3,r8,r3
 2001c78:	5162b03a 	or	r17,r10,r5
 2001c7c:	2008c03a 	cmpne	r4,r4,zero
 2001c80:	8922b03a 	or	r17,r17,r4
 2001c84:	3463c83a 	sub	r17,r6,r17
 2001c88:	48c7c83a 	sub	r3,r9,r3
 2001c8c:	344d803a 	cmpltu	r6,r6,r17
 2001c90:	1991c83a 	sub	r8,r3,r6
 2001c94:	1021883a 	mov	r16,r2
 2001c98:	3825883a 	mov	r18,r7
 2001c9c:	003f2706 	br	200193c <__adddf3+0x170>
 2001ca0:	24d0b03a 	or	r8,r4,r19
 2001ca4:	40001b1e 	bne	r8,zero,2001d14 <__adddf3+0x548>
 2001ca8:	0005883a 	mov	r2,zero
 2001cac:	0007883a 	mov	r3,zero
 2001cb0:	0021883a 	mov	r16,zero
 2001cb4:	003f4d06 	br	20019ec <__adddf3+0x220>
 2001cb8:	008007c4 	movi	r2,31
 2001cbc:	11003c16 	blt	r2,r4,2001db0 <__adddf3+0x5e4>
 2001cc0:	00800804 	movi	r2,32
 2001cc4:	1105c83a 	sub	r2,r2,r4
 2001cc8:	488e983a 	sll	r7,r9,r2
 2001ccc:	310ad83a 	srl	r5,r6,r4
 2001cd0:	3084983a 	sll	r2,r6,r2
 2001cd4:	4912d83a 	srl	r9,r9,r4
 2001cd8:	394ab03a 	or	r5,r7,r5
 2001cdc:	1004c03a 	cmpne	r2,r2,zero
 2001ce0:	288ab03a 	or	r5,r5,r2
 2001ce4:	003f5306 	br	2001a34 <__adddf3+0x268>
 2001ce8:	4448b03a 	or	r4,r8,r17
 2001cec:	20003e26 	beq	r4,zero,2001de8 <__adddf3+0x61c>
 2001cf0:	00c6303a 	nor	r3,zero,r3
 2001cf4:	18003a1e 	bne	r3,zero,2001de0 <__adddf3+0x614>
 2001cf8:	3463c83a 	sub	r17,r6,r17
 2001cfc:	4a07c83a 	sub	r3,r9,r8
 2001d00:	344d803a 	cmpltu	r6,r6,r17
 2001d04:	1991c83a 	sub	r8,r3,r6
 2001d08:	1021883a 	mov	r16,r2
 2001d0c:	3825883a 	mov	r18,r7
 2001d10:	003f0a06 	br	200193c <__adddf3+0x170>
 2001d14:	2023883a 	mov	r17,r4
 2001d18:	003f0d06 	br	2001950 <__adddf3+0x184>
 2001d1c:	0081ffc4 	movi	r2,2047
 2001d20:	80bf3f1e 	bne	r16,r2,2001a20 <__adddf3+0x254>
 2001d24:	003ec806 	br	2001848 <__adddf3+0x7c>
 2001d28:	0005883a 	mov	r2,zero
 2001d2c:	003fb106 	br	2001bf4 <__adddf3+0x428>
 2001d30:	0007883a 	mov	r3,zero
 2001d34:	003fbc06 	br	2001c28 <__adddf3+0x45c>
 2001d38:	4444b03a 	or	r2,r8,r17
 2001d3c:	8000871e 	bne	r16,zero,2001f5c <__adddf3+0x790>
 2001d40:	1000ba26 	beq	r2,zero,200202c <__adddf3+0x860>
 2001d44:	4984b03a 	or	r2,r9,r6
 2001d48:	103ebf26 	beq	r2,zero,2001848 <__adddf3+0x7c>
 2001d4c:	8985883a 	add	r2,r17,r6
 2001d50:	4247883a 	add	r3,r8,r9
 2001d54:	1451803a 	cmpltu	r8,r2,r17
 2001d58:	40d1883a 	add	r8,r8,r3
 2001d5c:	40c0202c 	andhi	r3,r8,128
 2001d60:	1023883a 	mov	r17,r2
 2001d64:	183f1a26 	beq	r3,zero,20019d0 <__adddf3+0x204>
 2001d68:	00bfe034 	movhi	r2,65408
 2001d6c:	10bfffc4 	addi	r2,r2,-1
 2001d70:	2021883a 	mov	r16,r4
 2001d74:	4090703a 	and	r8,r8,r2
 2001d78:	003eb306 	br	2001848 <__adddf3+0x7c>
 2001d7c:	4444b03a 	or	r2,r8,r17
 2001d80:	8000291e 	bne	r16,zero,2001e28 <__adddf3+0x65c>
 2001d84:	10004b1e 	bne	r2,zero,2001eb4 <__adddf3+0x6e8>
 2001d88:	4990b03a 	or	r8,r9,r6
 2001d8c:	40008b26 	beq	r8,zero,2001fbc <__adddf3+0x7f0>
 2001d90:	4811883a 	mov	r8,r9
 2001d94:	3023883a 	mov	r17,r6
 2001d98:	3825883a 	mov	r18,r7
 2001d9c:	003eaa06 	br	2001848 <__adddf3+0x7c>
 2001da0:	1021883a 	mov	r16,r2
 2001da4:	0011883a 	mov	r8,zero
 2001da8:	0005883a 	mov	r2,zero
 2001dac:	003f0f06 	br	20019ec <__adddf3+0x220>
 2001db0:	217ff804 	addi	r5,r4,-32
 2001db4:	00800804 	movi	r2,32
 2001db8:	494ad83a 	srl	r5,r9,r5
 2001dbc:	20807d26 	beq	r4,r2,2001fb4 <__adddf3+0x7e8>
 2001dc0:	00801004 	movi	r2,64
 2001dc4:	1109c83a 	sub	r4,r2,r4
 2001dc8:	4912983a 	sll	r9,r9,r4
 2001dcc:	498cb03a 	or	r6,r9,r6
 2001dd0:	300cc03a 	cmpne	r6,r6,zero
 2001dd4:	298ab03a 	or	r5,r5,r6
 2001dd8:	0013883a 	mov	r9,zero
 2001ddc:	003f1506 	br	2001a34 <__adddf3+0x268>
 2001de0:	0101ffc4 	movi	r4,2047
 2001de4:	113f9a1e 	bne	r2,r4,2001c50 <__adddf3+0x484>
 2001de8:	4811883a 	mov	r8,r9
 2001dec:	3023883a 	mov	r17,r6
 2001df0:	1021883a 	mov	r16,r2
 2001df4:	3825883a 	mov	r18,r7
 2001df8:	003e9306 	br	2001848 <__adddf3+0x7c>
 2001dfc:	8000161e 	bne	r16,zero,2001e58 <__adddf3+0x68c>
 2001e00:	444ab03a 	or	r5,r8,r17
 2001e04:	28005126 	beq	r5,zero,2001f4c <__adddf3+0x780>
 2001e08:	0108303a 	nor	r4,zero,r4
 2001e0c:	20004d1e 	bne	r4,zero,2001f44 <__adddf3+0x778>
 2001e10:	89a3883a 	add	r17,r17,r6
 2001e14:	4253883a 	add	r9,r8,r9
 2001e18:	898d803a 	cmpltu	r6,r17,r6
 2001e1c:	3251883a 	add	r8,r6,r9
 2001e20:	1021883a 	mov	r16,r2
 2001e24:	003f0806 	br	2001a48 <__adddf3+0x27c>
 2001e28:	1000301e 	bne	r2,zero,2001eec <__adddf3+0x720>
 2001e2c:	4984b03a 	or	r2,r9,r6
 2001e30:	10007126 	beq	r2,zero,2001ff8 <__adddf3+0x82c>
 2001e34:	4811883a 	mov	r8,r9
 2001e38:	3023883a 	mov	r17,r6
 2001e3c:	3825883a 	mov	r18,r7
 2001e40:	0401ffc4 	movi	r16,2047
 2001e44:	003e8006 	br	2001848 <__adddf3+0x7c>
 2001e48:	4462b03a 	or	r17,r8,r17
 2001e4c:	8822c03a 	cmpne	r17,r17,zero
 2001e50:	0007883a 	mov	r3,zero
 2001e54:	003f8b06 	br	2001c84 <__adddf3+0x4b8>
 2001e58:	0141ffc4 	movi	r5,2047
 2001e5c:	11403b26 	beq	r2,r5,2001f4c <__adddf3+0x780>
 2001e60:	0109c83a 	sub	r4,zero,r4
 2001e64:	42002034 	orhi	r8,r8,128
 2001e68:	01400e04 	movi	r5,56
 2001e6c:	29006716 	blt	r5,r4,200200c <__adddf3+0x840>
 2001e70:	014007c4 	movi	r5,31
 2001e74:	29007016 	blt	r5,r4,2002038 <__adddf3+0x86c>
 2001e78:	01400804 	movi	r5,32
 2001e7c:	290bc83a 	sub	r5,r5,r4
 2001e80:	4154983a 	sll	r10,r8,r5
 2001e84:	890ed83a 	srl	r7,r17,r4
 2001e88:	894a983a 	sll	r5,r17,r5
 2001e8c:	4108d83a 	srl	r4,r8,r4
 2001e90:	51e2b03a 	or	r17,r10,r7
 2001e94:	280ac03a 	cmpne	r5,r5,zero
 2001e98:	8962b03a 	or	r17,r17,r5
 2001e9c:	89a3883a 	add	r17,r17,r6
 2001ea0:	2253883a 	add	r9,r4,r9
 2001ea4:	898d803a 	cmpltu	r6,r17,r6
 2001ea8:	3251883a 	add	r8,r6,r9
 2001eac:	1021883a 	mov	r16,r2
 2001eb0:	003ee506 	br	2001a48 <__adddf3+0x27c>
 2001eb4:	4984b03a 	or	r2,r9,r6
 2001eb8:	103e6326 	beq	r2,zero,2001848 <__adddf3+0x7c>
 2001ebc:	8987c83a 	sub	r3,r17,r6
 2001ec0:	88c9803a 	cmpltu	r4,r17,r3
 2001ec4:	4245c83a 	sub	r2,r8,r9
 2001ec8:	1105c83a 	sub	r2,r2,r4
 2001ecc:	1100202c 	andhi	r4,r2,128
 2001ed0:	203ebb26 	beq	r4,zero,20019c0 <__adddf3+0x1f4>
 2001ed4:	3463c83a 	sub	r17,r6,r17
 2001ed8:	4a07c83a 	sub	r3,r9,r8
 2001edc:	344d803a 	cmpltu	r6,r6,r17
 2001ee0:	1991c83a 	sub	r8,r3,r6
 2001ee4:	3825883a 	mov	r18,r7
 2001ee8:	003e5706 	br	2001848 <__adddf3+0x7c>
 2001eec:	4984b03a 	or	r2,r9,r6
 2001ef0:	10002e26 	beq	r2,zero,2001fac <__adddf3+0x7e0>
 2001ef4:	4004d0fa 	srli	r2,r8,3
 2001ef8:	8822d0fa 	srli	r17,r17,3
 2001efc:	4010977a 	slli	r8,r8,29
 2001f00:	10c0022c 	andhi	r3,r2,8
 2001f04:	4462b03a 	or	r17,r8,r17
 2001f08:	18000826 	beq	r3,zero,2001f2c <__adddf3+0x760>
 2001f0c:	4808d0fa 	srli	r4,r9,3
 2001f10:	20c0022c 	andhi	r3,r4,8
 2001f14:	1800051e 	bne	r3,zero,2001f2c <__adddf3+0x760>
 2001f18:	300cd0fa 	srli	r6,r6,3
 2001f1c:	4806977a 	slli	r3,r9,29
 2001f20:	2005883a 	mov	r2,r4
 2001f24:	3825883a 	mov	r18,r7
 2001f28:	19a2b03a 	or	r17,r3,r6
 2001f2c:	8810d77a 	srli	r8,r17,29
 2001f30:	100490fa 	slli	r2,r2,3
 2001f34:	882290fa 	slli	r17,r17,3
 2001f38:	0401ffc4 	movi	r16,2047
 2001f3c:	4090b03a 	or	r8,r8,r2
 2001f40:	003e4106 	br	2001848 <__adddf3+0x7c>
 2001f44:	0141ffc4 	movi	r5,2047
 2001f48:	117fc71e 	bne	r2,r5,2001e68 <__adddf3+0x69c>
 2001f4c:	4811883a 	mov	r8,r9
 2001f50:	3023883a 	mov	r17,r6
 2001f54:	1021883a 	mov	r16,r2
 2001f58:	003e3b06 	br	2001848 <__adddf3+0x7c>
 2001f5c:	10002f26 	beq	r2,zero,200201c <__adddf3+0x850>
 2001f60:	4984b03a 	or	r2,r9,r6
 2001f64:	10001126 	beq	r2,zero,2001fac <__adddf3+0x7e0>
 2001f68:	4004d0fa 	srli	r2,r8,3
 2001f6c:	8822d0fa 	srli	r17,r17,3
 2001f70:	4010977a 	slli	r8,r8,29
 2001f74:	10c0022c 	andhi	r3,r2,8
 2001f78:	4462b03a 	or	r17,r8,r17
 2001f7c:	183feb26 	beq	r3,zero,2001f2c <__adddf3+0x760>
 2001f80:	4808d0fa 	srli	r4,r9,3
 2001f84:	20c0022c 	andhi	r3,r4,8
 2001f88:	183fe81e 	bne	r3,zero,2001f2c <__adddf3+0x760>
 2001f8c:	300cd0fa 	srli	r6,r6,3
 2001f90:	4806977a 	slli	r3,r9,29
 2001f94:	2005883a 	mov	r2,r4
 2001f98:	19a2b03a 	or	r17,r3,r6
 2001f9c:	003fe306 	br	2001f2c <__adddf3+0x760>
 2001fa0:	0011883a 	mov	r8,zero
 2001fa4:	0005883a 	mov	r2,zero
 2001fa8:	003e3f06 	br	20018a8 <__adddf3+0xdc>
 2001fac:	0401ffc4 	movi	r16,2047
 2001fb0:	003e2506 	br	2001848 <__adddf3+0x7c>
 2001fb4:	0013883a 	mov	r9,zero
 2001fb8:	003f8406 	br	2001dcc <__adddf3+0x600>
 2001fbc:	0005883a 	mov	r2,zero
 2001fc0:	0007883a 	mov	r3,zero
 2001fc4:	003e8906 	br	20019ec <__adddf3+0x220>
 2001fc8:	197ff804 	addi	r5,r3,-32
 2001fcc:	01000804 	movi	r4,32
 2001fd0:	414ad83a 	srl	r5,r8,r5
 2001fd4:	19002426 	beq	r3,r4,2002068 <__adddf3+0x89c>
 2001fd8:	01001004 	movi	r4,64
 2001fdc:	20c7c83a 	sub	r3,r4,r3
 2001fe0:	40c6983a 	sll	r3,r8,r3
 2001fe4:	1c46b03a 	or	r3,r3,r17
 2001fe8:	1806c03a 	cmpne	r3,r3,zero
 2001fec:	28e2b03a 	or	r17,r5,r3
 2001ff0:	0007883a 	mov	r3,zero
 2001ff4:	003f2306 	br	2001c84 <__adddf3+0x4b8>
 2001ff8:	0007883a 	mov	r3,zero
 2001ffc:	5811883a 	mov	r8,r11
 2002000:	00bfffc4 	movi	r2,-1
 2002004:	0401ffc4 	movi	r16,2047
 2002008:	003e7806 	br	20019ec <__adddf3+0x220>
 200200c:	4462b03a 	or	r17,r8,r17
 2002010:	8822c03a 	cmpne	r17,r17,zero
 2002014:	0009883a 	mov	r4,zero
 2002018:	003fa006 	br	2001e9c <__adddf3+0x6d0>
 200201c:	4811883a 	mov	r8,r9
 2002020:	3023883a 	mov	r17,r6
 2002024:	0401ffc4 	movi	r16,2047
 2002028:	003e0706 	br	2001848 <__adddf3+0x7c>
 200202c:	4811883a 	mov	r8,r9
 2002030:	3023883a 	mov	r17,r6
 2002034:	003e0406 	br	2001848 <__adddf3+0x7c>
 2002038:	21fff804 	addi	r7,r4,-32
 200203c:	01400804 	movi	r5,32
 2002040:	41ced83a 	srl	r7,r8,r7
 2002044:	21400a26 	beq	r4,r5,2002070 <__adddf3+0x8a4>
 2002048:	01401004 	movi	r5,64
 200204c:	2909c83a 	sub	r4,r5,r4
 2002050:	4108983a 	sll	r4,r8,r4
 2002054:	2448b03a 	or	r4,r4,r17
 2002058:	2008c03a 	cmpne	r4,r4,zero
 200205c:	3922b03a 	or	r17,r7,r4
 2002060:	0009883a 	mov	r4,zero
 2002064:	003f8d06 	br	2001e9c <__adddf3+0x6d0>
 2002068:	0007883a 	mov	r3,zero
 200206c:	003fdd06 	br	2001fe4 <__adddf3+0x818>
 2002070:	0009883a 	mov	r4,zero
 2002074:	003ff706 	br	2002054 <__adddf3+0x888>

02002078 <__divdf3>:
 2002078:	defff204 	addi	sp,sp,-56
 200207c:	dd400915 	stw	r21,36(sp)
 2002080:	282ad53a 	srli	r21,r5,20
 2002084:	dd000815 	stw	r20,32(sp)
 2002088:	2828d7fa 	srli	r20,r5,31
 200208c:	dc000415 	stw	r16,16(sp)
 2002090:	04000434 	movhi	r16,16
 2002094:	df000c15 	stw	fp,48(sp)
 2002098:	843fffc4 	addi	r16,r16,-1
 200209c:	dfc00d15 	stw	ra,52(sp)
 20020a0:	ddc00b15 	stw	r23,44(sp)
 20020a4:	dd800a15 	stw	r22,40(sp)
 20020a8:	dcc00715 	stw	r19,28(sp)
 20020ac:	dc800615 	stw	r18,24(sp)
 20020b0:	dc400515 	stw	r17,20(sp)
 20020b4:	ad41ffcc 	andi	r21,r21,2047
 20020b8:	2c20703a 	and	r16,r5,r16
 20020bc:	a7003fcc 	andi	fp,r20,255
 20020c0:	a8006126 	beq	r21,zero,2002248 <__divdf3+0x1d0>
 20020c4:	0081ffc4 	movi	r2,2047
 20020c8:	2025883a 	mov	r18,r4
 20020cc:	a8803726 	beq	r21,r2,20021ac <__divdf3+0x134>
 20020d0:	80800434 	orhi	r2,r16,16
 20020d4:	100490fa 	slli	r2,r2,3
 20020d8:	2020d77a 	srli	r16,r4,29
 20020dc:	202490fa 	slli	r18,r4,3
 20020e0:	ad7f0044 	addi	r21,r21,-1023
 20020e4:	80a0b03a 	or	r16,r16,r2
 20020e8:	0027883a 	mov	r19,zero
 20020ec:	0013883a 	mov	r9,zero
 20020f0:	3804d53a 	srli	r2,r7,20
 20020f4:	382cd7fa 	srli	r22,r7,31
 20020f8:	04400434 	movhi	r17,16
 20020fc:	8c7fffc4 	addi	r17,r17,-1
 2002100:	1081ffcc 	andi	r2,r2,2047
 2002104:	3011883a 	mov	r8,r6
 2002108:	3c62703a 	and	r17,r7,r17
 200210c:	b5c03fcc 	andi	r23,r22,255
 2002110:	10006c26 	beq	r2,zero,20022c4 <__divdf3+0x24c>
 2002114:	00c1ffc4 	movi	r3,2047
 2002118:	10c06426 	beq	r2,r3,20022ac <__divdf3+0x234>
 200211c:	88c00434 	orhi	r3,r17,16
 2002120:	180690fa 	slli	r3,r3,3
 2002124:	3022d77a 	srli	r17,r6,29
 2002128:	301090fa 	slli	r8,r6,3
 200212c:	10bf0044 	addi	r2,r2,-1023
 2002130:	88e2b03a 	or	r17,r17,r3
 2002134:	000f883a 	mov	r7,zero
 2002138:	a58cf03a 	xor	r6,r20,r22
 200213c:	3cc8b03a 	or	r4,r7,r19
 2002140:	a8abc83a 	sub	r21,r21,r2
 2002144:	008003c4 	movi	r2,15
 2002148:	3007883a 	mov	r3,r6
 200214c:	34c03fcc 	andi	r19,r6,255
 2002150:	11009036 	bltu	r2,r4,2002394 <__divdf3+0x31c>
 2002154:	200890ba 	slli	r4,r4,2
 2002158:	00808034 	movhi	r2,512
 200215c:	10885b04 	addi	r2,r2,8556
 2002160:	2089883a 	add	r4,r4,r2
 2002164:	20800017 	ldw	r2,0(r4)
 2002168:	1000683a 	jmp	r2
 200216c:	02002394 	movui	r8,142
 2002170:	020021e4 	muli	r8,zero,135
 2002174:	02002384 	movi	r8,142
 2002178:	020021d8 	cmpnei	r8,zero,135
 200217c:	02002384 	movi	r8,142
 2002180:	02002358 	cmpnei	r8,zero,141
 2002184:	02002384 	movi	r8,142
 2002188:	020021d8 	cmpnei	r8,zero,135
 200218c:	020021e4 	muli	r8,zero,135
 2002190:	020021e4 	muli	r8,zero,135
 2002194:	02002358 	cmpnei	r8,zero,141
 2002198:	020021d8 	cmpnei	r8,zero,135
 200219c:	020021c8 	cmpgei	r8,zero,135
 20021a0:	020021c8 	cmpgei	r8,zero,135
 20021a4:	020021c8 	cmpgei	r8,zero,135
 20021a8:	02002678 	rdprs	r8,zero,153
 20021ac:	2404b03a 	or	r2,r4,r16
 20021b0:	1000661e 	bne	r2,zero,200234c <__divdf3+0x2d4>
 20021b4:	04c00204 	movi	r19,8
 20021b8:	0021883a 	mov	r16,zero
 20021bc:	0025883a 	mov	r18,zero
 20021c0:	02400084 	movi	r9,2
 20021c4:	003fca06 	br	20020f0 <__divdf3+0x78>
 20021c8:	8023883a 	mov	r17,r16
 20021cc:	9011883a 	mov	r8,r18
 20021d0:	e02f883a 	mov	r23,fp
 20021d4:	480f883a 	mov	r7,r9
 20021d8:	00800084 	movi	r2,2
 20021dc:	3881311e 	bne	r7,r2,20026a4 <__divdf3+0x62c>
 20021e0:	b827883a 	mov	r19,r23
 20021e4:	98c0004c 	andi	r3,r19,1
 20021e8:	0081ffc4 	movi	r2,2047
 20021ec:	000b883a 	mov	r5,zero
 20021f0:	0025883a 	mov	r18,zero
 20021f4:	1004953a 	slli	r2,r2,20
 20021f8:	18c03fcc 	andi	r3,r3,255
 20021fc:	04400434 	movhi	r17,16
 2002200:	8c7fffc4 	addi	r17,r17,-1
 2002204:	180697fa 	slli	r3,r3,31
 2002208:	2c4a703a 	and	r5,r5,r17
 200220c:	288ab03a 	or	r5,r5,r2
 2002210:	28c6b03a 	or	r3,r5,r3
 2002214:	9005883a 	mov	r2,r18
 2002218:	dfc00d17 	ldw	ra,52(sp)
 200221c:	df000c17 	ldw	fp,48(sp)
 2002220:	ddc00b17 	ldw	r23,44(sp)
 2002224:	dd800a17 	ldw	r22,40(sp)
 2002228:	dd400917 	ldw	r21,36(sp)
 200222c:	dd000817 	ldw	r20,32(sp)
 2002230:	dcc00717 	ldw	r19,28(sp)
 2002234:	dc800617 	ldw	r18,24(sp)
 2002238:	dc400517 	ldw	r17,20(sp)
 200223c:	dc000417 	ldw	r16,16(sp)
 2002240:	dec00e04 	addi	sp,sp,56
 2002244:	f800283a 	ret
 2002248:	2404b03a 	or	r2,r4,r16
 200224c:	2027883a 	mov	r19,r4
 2002250:	10003926 	beq	r2,zero,2002338 <__divdf3+0x2c0>
 2002254:	80012e26 	beq	r16,zero,2002710 <__divdf3+0x698>
 2002258:	8009883a 	mov	r4,r16
 200225c:	d9800315 	stw	r6,12(sp)
 2002260:	d9c00215 	stw	r7,8(sp)
 2002264:	2003d280 	call	2003d28 <__clzsi2>
 2002268:	d9800317 	ldw	r6,12(sp)
 200226c:	d9c00217 	ldw	r7,8(sp)
 2002270:	113ffd44 	addi	r4,r2,-11
 2002274:	00c00704 	movi	r3,28
 2002278:	19012116 	blt	r3,r4,2002700 <__divdf3+0x688>
 200227c:	00c00744 	movi	r3,29
 2002280:	147ffe04 	addi	r17,r2,-8
 2002284:	1907c83a 	sub	r3,r3,r4
 2002288:	8460983a 	sll	r16,r16,r17
 200228c:	98c6d83a 	srl	r3,r19,r3
 2002290:	9c64983a 	sll	r18,r19,r17
 2002294:	1c20b03a 	or	r16,r3,r16
 2002298:	1080fcc4 	addi	r2,r2,1011
 200229c:	00abc83a 	sub	r21,zero,r2
 20022a0:	0027883a 	mov	r19,zero
 20022a4:	0013883a 	mov	r9,zero
 20022a8:	003f9106 	br	20020f0 <__divdf3+0x78>
 20022ac:	3446b03a 	or	r3,r6,r17
 20022b0:	18001f1e 	bne	r3,zero,2002330 <__divdf3+0x2b8>
 20022b4:	0023883a 	mov	r17,zero
 20022b8:	0011883a 	mov	r8,zero
 20022bc:	01c00084 	movi	r7,2
 20022c0:	003f9d06 	br	2002138 <__divdf3+0xc0>
 20022c4:	3446b03a 	or	r3,r6,r17
 20022c8:	18001526 	beq	r3,zero,2002320 <__divdf3+0x2a8>
 20022cc:	88011b26 	beq	r17,zero,200273c <__divdf3+0x6c4>
 20022d0:	8809883a 	mov	r4,r17
 20022d4:	d9800315 	stw	r6,12(sp)
 20022d8:	da400115 	stw	r9,4(sp)
 20022dc:	2003d280 	call	2003d28 <__clzsi2>
 20022e0:	d9800317 	ldw	r6,12(sp)
 20022e4:	da400117 	ldw	r9,4(sp)
 20022e8:	113ffd44 	addi	r4,r2,-11
 20022ec:	00c00704 	movi	r3,28
 20022f0:	19010e16 	blt	r3,r4,200272c <__divdf3+0x6b4>
 20022f4:	00c00744 	movi	r3,29
 20022f8:	123ffe04 	addi	r8,r2,-8
 20022fc:	1907c83a 	sub	r3,r3,r4
 2002300:	8a22983a 	sll	r17,r17,r8
 2002304:	30c6d83a 	srl	r3,r6,r3
 2002308:	3210983a 	sll	r8,r6,r8
 200230c:	1c62b03a 	or	r17,r3,r17
 2002310:	1080fcc4 	addi	r2,r2,1011
 2002314:	0085c83a 	sub	r2,zero,r2
 2002318:	000f883a 	mov	r7,zero
 200231c:	003f8606 	br	2002138 <__divdf3+0xc0>
 2002320:	0023883a 	mov	r17,zero
 2002324:	0011883a 	mov	r8,zero
 2002328:	01c00044 	movi	r7,1
 200232c:	003f8206 	br	2002138 <__divdf3+0xc0>
 2002330:	01c000c4 	movi	r7,3
 2002334:	003f8006 	br	2002138 <__divdf3+0xc0>
 2002338:	04c00104 	movi	r19,4
 200233c:	0021883a 	mov	r16,zero
 2002340:	0025883a 	mov	r18,zero
 2002344:	02400044 	movi	r9,1
 2002348:	003f6906 	br	20020f0 <__divdf3+0x78>
 200234c:	04c00304 	movi	r19,12
 2002350:	024000c4 	movi	r9,3
 2002354:	003f6606 	br	20020f0 <__divdf3+0x78>
 2002358:	01400434 	movhi	r5,16
 200235c:	0007883a 	mov	r3,zero
 2002360:	297fffc4 	addi	r5,r5,-1
 2002364:	04bfffc4 	movi	r18,-1
 2002368:	0081ffc4 	movi	r2,2047
 200236c:	003fa106 	br	20021f4 <__divdf3+0x17c>
 2002370:	00c00044 	movi	r3,1
 2002374:	1887c83a 	sub	r3,r3,r2
 2002378:	01000e04 	movi	r4,56
 200237c:	20c1210e 	bge	r4,r3,2002804 <__divdf3+0x78c>
 2002380:	98c0004c 	andi	r3,r19,1
 2002384:	0005883a 	mov	r2,zero
 2002388:	000b883a 	mov	r5,zero
 200238c:	0025883a 	mov	r18,zero
 2002390:	003f9806 	br	20021f4 <__divdf3+0x17c>
 2002394:	8c00fd36 	bltu	r17,r16,200278c <__divdf3+0x714>
 2002398:	8440fb26 	beq	r16,r17,2002788 <__divdf3+0x710>
 200239c:	8007883a 	mov	r3,r16
 20023a0:	ad7fffc4 	addi	r21,r21,-1
 20023a4:	0021883a 	mov	r16,zero
 20023a8:	4004d63a 	srli	r2,r8,24
 20023ac:	8822923a 	slli	r17,r17,8
 20023b0:	1809883a 	mov	r4,r3
 20023b4:	402c923a 	slli	r22,r8,8
 20023b8:	88b8b03a 	or	fp,r17,r2
 20023bc:	e028d43a 	srli	r20,fp,16
 20023c0:	d8c00015 	stw	r3,0(sp)
 20023c4:	e5ffffcc 	andi	r23,fp,65535
 20023c8:	a00b883a 	mov	r5,r20
 20023cc:	2003e840 	call	2003e84 <__udivsi3>
 20023d0:	d8c00017 	ldw	r3,0(sp)
 20023d4:	a00b883a 	mov	r5,r20
 20023d8:	d8800315 	stw	r2,12(sp)
 20023dc:	1809883a 	mov	r4,r3
 20023e0:	2003ee80 	call	2003ee8 <__umodsi3>
 20023e4:	d9800317 	ldw	r6,12(sp)
 20023e8:	1006943a 	slli	r3,r2,16
 20023ec:	9004d43a 	srli	r2,r18,16
 20023f0:	b9a3383a 	mul	r17,r23,r6
 20023f4:	10c4b03a 	or	r2,r2,r3
 20023f8:	1440062e 	bgeu	r2,r17,2002414 <__divdf3+0x39c>
 20023fc:	1705883a 	add	r2,r2,fp
 2002400:	30ffffc4 	addi	r3,r6,-1
 2002404:	1700ee36 	bltu	r2,fp,20027c0 <__divdf3+0x748>
 2002408:	1440ed2e 	bgeu	r2,r17,20027c0 <__divdf3+0x748>
 200240c:	31bfff84 	addi	r6,r6,-2
 2002410:	1705883a 	add	r2,r2,fp
 2002414:	1463c83a 	sub	r17,r2,r17
 2002418:	a00b883a 	mov	r5,r20
 200241c:	8809883a 	mov	r4,r17
 2002420:	d9800315 	stw	r6,12(sp)
 2002424:	2003e840 	call	2003e84 <__udivsi3>
 2002428:	a00b883a 	mov	r5,r20
 200242c:	8809883a 	mov	r4,r17
 2002430:	d8800215 	stw	r2,8(sp)
 2002434:	2003ee80 	call	2003ee8 <__umodsi3>
 2002438:	d9c00217 	ldw	r7,8(sp)
 200243c:	1004943a 	slli	r2,r2,16
 2002440:	94bfffcc 	andi	r18,r18,65535
 2002444:	b9d1383a 	mul	r8,r23,r7
 2002448:	90a4b03a 	or	r18,r18,r2
 200244c:	d9800317 	ldw	r6,12(sp)
 2002450:	9200062e 	bgeu	r18,r8,200246c <__divdf3+0x3f4>
 2002454:	9725883a 	add	r18,r18,fp
 2002458:	38bfffc4 	addi	r2,r7,-1
 200245c:	9700d636 	bltu	r18,fp,20027b8 <__divdf3+0x740>
 2002460:	9200d52e 	bgeu	r18,r8,20027b8 <__divdf3+0x740>
 2002464:	39ffff84 	addi	r7,r7,-2
 2002468:	9725883a 	add	r18,r18,fp
 200246c:	3004943a 	slli	r2,r6,16
 2002470:	b012d43a 	srli	r9,r22,16
 2002474:	b1bfffcc 	andi	r6,r22,65535
 2002478:	11e2b03a 	or	r17,r2,r7
 200247c:	8806d43a 	srli	r3,r17,16
 2002480:	893fffcc 	andi	r4,r17,65535
 2002484:	218b383a 	mul	r5,r4,r6
 2002488:	30c5383a 	mul	r2,r6,r3
 200248c:	2249383a 	mul	r4,r4,r9
 2002490:	280ed43a 	srli	r7,r5,16
 2002494:	9225c83a 	sub	r18,r18,r8
 2002498:	2089883a 	add	r4,r4,r2
 200249c:	3909883a 	add	r4,r7,r4
 20024a0:	1a47383a 	mul	r3,r3,r9
 20024a4:	2080022e 	bgeu	r4,r2,20024b0 <__divdf3+0x438>
 20024a8:	00800074 	movhi	r2,1
 20024ac:	1887883a 	add	r3,r3,r2
 20024b0:	2004d43a 	srli	r2,r4,16
 20024b4:	2008943a 	slli	r4,r4,16
 20024b8:	297fffcc 	andi	r5,r5,65535
 20024bc:	10c7883a 	add	r3,r2,r3
 20024c0:	2149883a 	add	r4,r4,r5
 20024c4:	90c0a536 	bltu	r18,r3,200275c <__divdf3+0x6e4>
 20024c8:	90c0bf26 	beq	r18,r3,20027c8 <__divdf3+0x750>
 20024cc:	90c7c83a 	sub	r3,r18,r3
 20024d0:	810fc83a 	sub	r7,r16,r4
 20024d4:	81e5803a 	cmpltu	r18,r16,r7
 20024d8:	1ca5c83a 	sub	r18,r3,r18
 20024dc:	e480c126 	beq	fp,r18,20027e4 <__divdf3+0x76c>
 20024e0:	a00b883a 	mov	r5,r20
 20024e4:	9009883a 	mov	r4,r18
 20024e8:	d9800315 	stw	r6,12(sp)
 20024ec:	d9c00215 	stw	r7,8(sp)
 20024f0:	da400115 	stw	r9,4(sp)
 20024f4:	2003e840 	call	2003e84 <__udivsi3>
 20024f8:	a00b883a 	mov	r5,r20
 20024fc:	9009883a 	mov	r4,r18
 2002500:	d8800015 	stw	r2,0(sp)
 2002504:	2003ee80 	call	2003ee8 <__umodsi3>
 2002508:	d9c00217 	ldw	r7,8(sp)
 200250c:	da000017 	ldw	r8,0(sp)
 2002510:	1006943a 	slli	r3,r2,16
 2002514:	3804d43a 	srli	r2,r7,16
 2002518:	ba21383a 	mul	r16,r23,r8
 200251c:	d9800317 	ldw	r6,12(sp)
 2002520:	10c4b03a 	or	r2,r2,r3
 2002524:	da400117 	ldw	r9,4(sp)
 2002528:	1400062e 	bgeu	r2,r16,2002544 <__divdf3+0x4cc>
 200252c:	1705883a 	add	r2,r2,fp
 2002530:	40ffffc4 	addi	r3,r8,-1
 2002534:	1700ad36 	bltu	r2,fp,20027ec <__divdf3+0x774>
 2002538:	1400ac2e 	bgeu	r2,r16,20027ec <__divdf3+0x774>
 200253c:	423fff84 	addi	r8,r8,-2
 2002540:	1705883a 	add	r2,r2,fp
 2002544:	1421c83a 	sub	r16,r2,r16
 2002548:	a00b883a 	mov	r5,r20
 200254c:	8009883a 	mov	r4,r16
 2002550:	d9800315 	stw	r6,12(sp)
 2002554:	d9c00215 	stw	r7,8(sp)
 2002558:	da000015 	stw	r8,0(sp)
 200255c:	da400115 	stw	r9,4(sp)
 2002560:	2003e840 	call	2003e84 <__udivsi3>
 2002564:	8009883a 	mov	r4,r16
 2002568:	a00b883a 	mov	r5,r20
 200256c:	1025883a 	mov	r18,r2
 2002570:	2003ee80 	call	2003ee8 <__umodsi3>
 2002574:	d9c00217 	ldw	r7,8(sp)
 2002578:	1004943a 	slli	r2,r2,16
 200257c:	bcaf383a 	mul	r23,r23,r18
 2002580:	393fffcc 	andi	r4,r7,65535
 2002584:	2088b03a 	or	r4,r4,r2
 2002588:	d9800317 	ldw	r6,12(sp)
 200258c:	da000017 	ldw	r8,0(sp)
 2002590:	da400117 	ldw	r9,4(sp)
 2002594:	25c0062e 	bgeu	r4,r23,20025b0 <__divdf3+0x538>
 2002598:	2709883a 	add	r4,r4,fp
 200259c:	90bfffc4 	addi	r2,r18,-1
 20025a0:	27009436 	bltu	r4,fp,20027f4 <__divdf3+0x77c>
 20025a4:	25c0932e 	bgeu	r4,r23,20027f4 <__divdf3+0x77c>
 20025a8:	94bfff84 	addi	r18,r18,-2
 20025ac:	2709883a 	add	r4,r4,fp
 20025b0:	4004943a 	slli	r2,r8,16
 20025b4:	25efc83a 	sub	r23,r4,r23
 20025b8:	1490b03a 	or	r8,r2,r18
 20025bc:	4008d43a 	srli	r4,r8,16
 20025c0:	40ffffcc 	andi	r3,r8,65535
 20025c4:	30c5383a 	mul	r2,r6,r3
 20025c8:	1a47383a 	mul	r3,r3,r9
 20025cc:	310d383a 	mul	r6,r6,r4
 20025d0:	100ad43a 	srli	r5,r2,16
 20025d4:	4913383a 	mul	r9,r9,r4
 20025d8:	1987883a 	add	r3,r3,r6
 20025dc:	28c7883a 	add	r3,r5,r3
 20025e0:	1980022e 	bgeu	r3,r6,20025ec <__divdf3+0x574>
 20025e4:	01000074 	movhi	r4,1
 20025e8:	4913883a 	add	r9,r9,r4
 20025ec:	1808d43a 	srli	r4,r3,16
 20025f0:	1806943a 	slli	r3,r3,16
 20025f4:	10bfffcc 	andi	r2,r2,65535
 20025f8:	2253883a 	add	r9,r4,r9
 20025fc:	1887883a 	add	r3,r3,r2
 2002600:	ba403836 	bltu	r23,r9,20026e4 <__divdf3+0x66c>
 2002604:	ba403626 	beq	r23,r9,20026e0 <__divdf3+0x668>
 2002608:	42000054 	ori	r8,r8,1
 200260c:	a880ffc4 	addi	r2,r21,1023
 2002610:	00bf570e 	bge	zero,r2,2002370 <__divdf3+0x2f8>
 2002614:	40c001cc 	andi	r3,r8,7
 2002618:	18000726 	beq	r3,zero,2002638 <__divdf3+0x5c0>
 200261c:	40c003cc 	andi	r3,r8,15
 2002620:	01000104 	movi	r4,4
 2002624:	19000426 	beq	r3,r4,2002638 <__divdf3+0x5c0>
 2002628:	4107883a 	add	r3,r8,r4
 200262c:	1a11803a 	cmpltu	r8,r3,r8
 2002630:	8a23883a 	add	r17,r17,r8
 2002634:	1811883a 	mov	r8,r3
 2002638:	88c0402c 	andhi	r3,r17,256
 200263c:	18000426 	beq	r3,zero,2002650 <__divdf3+0x5d8>
 2002640:	00ffc034 	movhi	r3,65280
 2002644:	18ffffc4 	addi	r3,r3,-1
 2002648:	a8810004 	addi	r2,r21,1024
 200264c:	88e2703a 	and	r17,r17,r3
 2002650:	00c1ff84 	movi	r3,2046
 2002654:	18bee316 	blt	r3,r2,20021e4 <__divdf3+0x16c>
 2002658:	8824977a 	slli	r18,r17,29
 200265c:	4010d0fa 	srli	r8,r8,3
 2002660:	8822927a 	slli	r17,r17,9
 2002664:	1081ffcc 	andi	r2,r2,2047
 2002668:	9224b03a 	or	r18,r18,r8
 200266c:	880ad33a 	srli	r5,r17,12
 2002670:	98c0004c 	andi	r3,r19,1
 2002674:	003edf06 	br	20021f4 <__divdf3+0x17c>
 2002678:	8080022c 	andhi	r2,r16,8
 200267c:	10001226 	beq	r2,zero,20026c8 <__divdf3+0x650>
 2002680:	8880022c 	andhi	r2,r17,8
 2002684:	1000101e 	bne	r2,zero,20026c8 <__divdf3+0x650>
 2002688:	00800434 	movhi	r2,16
 200268c:	89400234 	orhi	r5,r17,8
 2002690:	10bfffc4 	addi	r2,r2,-1
 2002694:	b007883a 	mov	r3,r22
 2002698:	288a703a 	and	r5,r5,r2
 200269c:	4025883a 	mov	r18,r8
 20026a0:	003f3106 	br	2002368 <__divdf3+0x2f0>
 20026a4:	008000c4 	movi	r2,3
 20026a8:	3880a626 	beq	r7,r2,2002944 <__divdf3+0x8cc>
 20026ac:	00800044 	movi	r2,1
 20026b0:	3880521e 	bne	r7,r2,20027fc <__divdf3+0x784>
 20026b4:	b807883a 	mov	r3,r23
 20026b8:	0005883a 	mov	r2,zero
 20026bc:	000b883a 	mov	r5,zero
 20026c0:	0025883a 	mov	r18,zero
 20026c4:	003ecb06 	br	20021f4 <__divdf3+0x17c>
 20026c8:	00800434 	movhi	r2,16
 20026cc:	81400234 	orhi	r5,r16,8
 20026d0:	10bfffc4 	addi	r2,r2,-1
 20026d4:	a007883a 	mov	r3,r20
 20026d8:	288a703a 	and	r5,r5,r2
 20026dc:	003f2206 	br	2002368 <__divdf3+0x2f0>
 20026e0:	183fca26 	beq	r3,zero,200260c <__divdf3+0x594>
 20026e4:	e5ef883a 	add	r23,fp,r23
 20026e8:	40bfffc4 	addi	r2,r8,-1
 20026ec:	bf00392e 	bgeu	r23,fp,20027d4 <__divdf3+0x75c>
 20026f0:	1011883a 	mov	r8,r2
 20026f4:	ba7fc41e 	bne	r23,r9,2002608 <__divdf3+0x590>
 20026f8:	b0ffc31e 	bne	r22,r3,2002608 <__divdf3+0x590>
 20026fc:	003fc306 	br	200260c <__divdf3+0x594>
 2002700:	143ff604 	addi	r16,r2,-40
 2002704:	9c20983a 	sll	r16,r19,r16
 2002708:	0025883a 	mov	r18,zero
 200270c:	003ee206 	br	2002298 <__divdf3+0x220>
 2002710:	d9800315 	stw	r6,12(sp)
 2002714:	d9c00215 	stw	r7,8(sp)
 2002718:	2003d280 	call	2003d28 <__clzsi2>
 200271c:	10800804 	addi	r2,r2,32
 2002720:	d9c00217 	ldw	r7,8(sp)
 2002724:	d9800317 	ldw	r6,12(sp)
 2002728:	003ed106 	br	2002270 <__divdf3+0x1f8>
 200272c:	147ff604 	addi	r17,r2,-40
 2002730:	3462983a 	sll	r17,r6,r17
 2002734:	0011883a 	mov	r8,zero
 2002738:	003ef506 	br	2002310 <__divdf3+0x298>
 200273c:	3009883a 	mov	r4,r6
 2002740:	d9800315 	stw	r6,12(sp)
 2002744:	da400115 	stw	r9,4(sp)
 2002748:	2003d280 	call	2003d28 <__clzsi2>
 200274c:	10800804 	addi	r2,r2,32
 2002750:	da400117 	ldw	r9,4(sp)
 2002754:	d9800317 	ldw	r6,12(sp)
 2002758:	003ee306 	br	20022e8 <__divdf3+0x270>
 200275c:	85a1883a 	add	r16,r16,r22
 2002760:	8585803a 	cmpltu	r2,r16,r22
 2002764:	1705883a 	add	r2,r2,fp
 2002768:	14a5883a 	add	r18,r2,r18
 200276c:	88bfffc4 	addi	r2,r17,-1
 2002770:	e4800c2e 	bgeu	fp,r18,20027a4 <__divdf3+0x72c>
 2002774:	90c03e36 	bltu	r18,r3,2002870 <__divdf3+0x7f8>
 2002778:	1c806926 	beq	r3,r18,2002920 <__divdf3+0x8a8>
 200277c:	90c7c83a 	sub	r3,r18,r3
 2002780:	1023883a 	mov	r17,r2
 2002784:	003f5206 	br	20024d0 <__divdf3+0x458>
 2002788:	923f0436 	bltu	r18,r8,200239c <__divdf3+0x324>
 200278c:	800897fa 	slli	r4,r16,31
 2002790:	9004d07a 	srli	r2,r18,1
 2002794:	8006d07a 	srli	r3,r16,1
 2002798:	902097fa 	slli	r16,r18,31
 200279c:	20a4b03a 	or	r18,r4,r2
 20027a0:	003f0106 	br	20023a8 <__divdf3+0x330>
 20027a4:	e4bff51e 	bne	fp,r18,200277c <__divdf3+0x704>
 20027a8:	85bff22e 	bgeu	r16,r22,2002774 <__divdf3+0x6fc>
 20027ac:	e0c7c83a 	sub	r3,fp,r3
 20027b0:	1023883a 	mov	r17,r2
 20027b4:	003f4606 	br	20024d0 <__divdf3+0x458>
 20027b8:	100f883a 	mov	r7,r2
 20027bc:	003f2b06 	br	200246c <__divdf3+0x3f4>
 20027c0:	180d883a 	mov	r6,r3
 20027c4:	003f1306 	br	2002414 <__divdf3+0x39c>
 20027c8:	813fe436 	bltu	r16,r4,200275c <__divdf3+0x6e4>
 20027cc:	0007883a 	mov	r3,zero
 20027d0:	003f3f06 	br	20024d0 <__divdf3+0x458>
 20027d4:	ba402c36 	bltu	r23,r9,2002888 <__divdf3+0x810>
 20027d8:	4dc05426 	beq	r9,r23,200292c <__divdf3+0x8b4>
 20027dc:	1011883a 	mov	r8,r2
 20027e0:	003f8906 	br	2002608 <__divdf3+0x590>
 20027e4:	023fffc4 	movi	r8,-1
 20027e8:	003f8806 	br	200260c <__divdf3+0x594>
 20027ec:	1811883a 	mov	r8,r3
 20027f0:	003f5406 	br	2002544 <__divdf3+0x4cc>
 20027f4:	1025883a 	mov	r18,r2
 20027f8:	003f6d06 	br	20025b0 <__divdf3+0x538>
 20027fc:	b827883a 	mov	r19,r23
 2002800:	003f8206 	br	200260c <__divdf3+0x594>
 2002804:	010007c4 	movi	r4,31
 2002808:	20c02616 	blt	r4,r3,20028a4 <__divdf3+0x82c>
 200280c:	00800804 	movi	r2,32
 2002810:	10c5c83a 	sub	r2,r2,r3
 2002814:	888a983a 	sll	r5,r17,r2
 2002818:	40c8d83a 	srl	r4,r8,r3
 200281c:	4084983a 	sll	r2,r8,r2
 2002820:	88e2d83a 	srl	r17,r17,r3
 2002824:	2906b03a 	or	r3,r5,r4
 2002828:	1004c03a 	cmpne	r2,r2,zero
 200282c:	1886b03a 	or	r3,r3,r2
 2002830:	188001cc 	andi	r2,r3,7
 2002834:	10000726 	beq	r2,zero,2002854 <__divdf3+0x7dc>
 2002838:	188003cc 	andi	r2,r3,15
 200283c:	01000104 	movi	r4,4
 2002840:	11000426 	beq	r2,r4,2002854 <__divdf3+0x7dc>
 2002844:	1805883a 	mov	r2,r3
 2002848:	10c00104 	addi	r3,r2,4
 200284c:	1885803a 	cmpltu	r2,r3,r2
 2002850:	88a3883a 	add	r17,r17,r2
 2002854:	8880202c 	andhi	r2,r17,128
 2002858:	10002726 	beq	r2,zero,20028f8 <__divdf3+0x880>
 200285c:	98c0004c 	andi	r3,r19,1
 2002860:	00800044 	movi	r2,1
 2002864:	000b883a 	mov	r5,zero
 2002868:	0025883a 	mov	r18,zero
 200286c:	003e6106 	br	20021f4 <__divdf3+0x17c>
 2002870:	85a1883a 	add	r16,r16,r22
 2002874:	8585803a 	cmpltu	r2,r16,r22
 2002878:	1705883a 	add	r2,r2,fp
 200287c:	14a5883a 	add	r18,r2,r18
 2002880:	8c7fff84 	addi	r17,r17,-2
 2002884:	003f1106 	br	20024cc <__divdf3+0x454>
 2002888:	b589883a 	add	r4,r22,r22
 200288c:	25ad803a 	cmpltu	r22,r4,r22
 2002890:	b739883a 	add	fp,r22,fp
 2002894:	40bfff84 	addi	r2,r8,-2
 2002898:	bf2f883a 	add	r23,r23,fp
 200289c:	202d883a 	mov	r22,r4
 20028a0:	003f9306 	br	20026f0 <__divdf3+0x678>
 20028a4:	013ff844 	movi	r4,-31
 20028a8:	2085c83a 	sub	r2,r4,r2
 20028ac:	8888d83a 	srl	r4,r17,r2
 20028b0:	00800804 	movi	r2,32
 20028b4:	18802126 	beq	r3,r2,200293c <__divdf3+0x8c4>
 20028b8:	00801004 	movi	r2,64
 20028bc:	10c5c83a 	sub	r2,r2,r3
 20028c0:	8884983a 	sll	r2,r17,r2
 20028c4:	1204b03a 	or	r2,r2,r8
 20028c8:	1004c03a 	cmpne	r2,r2,zero
 20028cc:	2084b03a 	or	r2,r4,r2
 20028d0:	144001cc 	andi	r17,r2,7
 20028d4:	88000d1e 	bne	r17,zero,200290c <__divdf3+0x894>
 20028d8:	000b883a 	mov	r5,zero
 20028dc:	1024d0fa 	srli	r18,r2,3
 20028e0:	98c0004c 	andi	r3,r19,1
 20028e4:	0005883a 	mov	r2,zero
 20028e8:	9464b03a 	or	r18,r18,r17
 20028ec:	003e4106 	br	20021f4 <__divdf3+0x17c>
 20028f0:	1007883a 	mov	r3,r2
 20028f4:	0023883a 	mov	r17,zero
 20028f8:	880a927a 	slli	r5,r17,9
 20028fc:	1805883a 	mov	r2,r3
 2002900:	8822977a 	slli	r17,r17,29
 2002904:	280ad33a 	srli	r5,r5,12
 2002908:	003ff406 	br	20028dc <__divdf3+0x864>
 200290c:	10c003cc 	andi	r3,r2,15
 2002910:	01000104 	movi	r4,4
 2002914:	193ff626 	beq	r3,r4,20028f0 <__divdf3+0x878>
 2002918:	0023883a 	mov	r17,zero
 200291c:	003fca06 	br	2002848 <__divdf3+0x7d0>
 2002920:	813fd336 	bltu	r16,r4,2002870 <__divdf3+0x7f8>
 2002924:	1023883a 	mov	r17,r2
 2002928:	003fa806 	br	20027cc <__divdf3+0x754>
 200292c:	b0ffd636 	bltu	r22,r3,2002888 <__divdf3+0x810>
 2002930:	1011883a 	mov	r8,r2
 2002934:	b0ff341e 	bne	r22,r3,2002608 <__divdf3+0x590>
 2002938:	003f3406 	br	200260c <__divdf3+0x594>
 200293c:	0005883a 	mov	r2,zero
 2002940:	003fe006 	br	20028c4 <__divdf3+0x84c>
 2002944:	00800434 	movhi	r2,16
 2002948:	89400234 	orhi	r5,r17,8
 200294c:	10bfffc4 	addi	r2,r2,-1
 2002950:	b807883a 	mov	r3,r23
 2002954:	288a703a 	and	r5,r5,r2
 2002958:	4025883a 	mov	r18,r8
 200295c:	003e8206 	br	2002368 <__divdf3+0x2f0>

02002960 <__eqdf2>:
 2002960:	2804d53a 	srli	r2,r5,20
 2002964:	3806d53a 	srli	r3,r7,20
 2002968:	02000434 	movhi	r8,16
 200296c:	423fffc4 	addi	r8,r8,-1
 2002970:	1081ffcc 	andi	r2,r2,2047
 2002974:	0281ffc4 	movi	r10,2047
 2002978:	2a12703a 	and	r9,r5,r8
 200297c:	18c1ffcc 	andi	r3,r3,2047
 2002980:	3a10703a 	and	r8,r7,r8
 2002984:	280ad7fa 	srli	r5,r5,31
 2002988:	380ed7fa 	srli	r7,r7,31
 200298c:	12801026 	beq	r2,r10,20029d0 <__eqdf2+0x70>
 2002990:	0281ffc4 	movi	r10,2047
 2002994:	1a800a26 	beq	r3,r10,20029c0 <__eqdf2+0x60>
 2002998:	10c00226 	beq	r2,r3,20029a4 <__eqdf2+0x44>
 200299c:	00800044 	movi	r2,1
 20029a0:	f800283a 	ret
 20029a4:	4a3ffd1e 	bne	r9,r8,200299c <__eqdf2+0x3c>
 20029a8:	21bffc1e 	bne	r4,r6,200299c <__eqdf2+0x3c>
 20029ac:	29c00c26 	beq	r5,r7,20029e0 <__eqdf2+0x80>
 20029b0:	103ffa1e 	bne	r2,zero,200299c <__eqdf2+0x3c>
 20029b4:	2244b03a 	or	r2,r4,r9
 20029b8:	1004c03a 	cmpne	r2,r2,zero
 20029bc:	f800283a 	ret
 20029c0:	3214b03a 	or	r10,r6,r8
 20029c4:	503ff426 	beq	r10,zero,2002998 <__eqdf2+0x38>
 20029c8:	00800044 	movi	r2,1
 20029cc:	f800283a 	ret
 20029d0:	2254b03a 	or	r10,r4,r9
 20029d4:	503fee26 	beq	r10,zero,2002990 <__eqdf2+0x30>
 20029d8:	00800044 	movi	r2,1
 20029dc:	f800283a 	ret
 20029e0:	0005883a 	mov	r2,zero
 20029e4:	f800283a 	ret

020029e8 <__gedf2>:
 20029e8:	2804d53a 	srli	r2,r5,20
 20029ec:	3806d53a 	srli	r3,r7,20
 20029f0:	02000434 	movhi	r8,16
 20029f4:	423fffc4 	addi	r8,r8,-1
 20029f8:	1081ffcc 	andi	r2,r2,2047
 20029fc:	0241ffc4 	movi	r9,2047
 2002a00:	2a14703a 	and	r10,r5,r8
 2002a04:	18c1ffcc 	andi	r3,r3,2047
 2002a08:	3a10703a 	and	r8,r7,r8
 2002a0c:	280ad7fa 	srli	r5,r5,31
 2002a10:	380ed7fa 	srli	r7,r7,31
 2002a14:	12401d26 	beq	r2,r9,2002a8c <__gedf2+0xa4>
 2002a18:	0241ffc4 	movi	r9,2047
 2002a1c:	1a401226 	beq	r3,r9,2002a68 <__gedf2+0x80>
 2002a20:	1000081e 	bne	r2,zero,2002a44 <__gedf2+0x5c>
 2002a24:	2296b03a 	or	r11,r4,r10
 2002a28:	5813003a 	cmpeq	r9,r11,zero
 2002a2c:	1800091e 	bne	r3,zero,2002a54 <__gedf2+0x6c>
 2002a30:	3218b03a 	or	r12,r6,r8
 2002a34:	6000071e 	bne	r12,zero,2002a54 <__gedf2+0x6c>
 2002a38:	0005883a 	mov	r2,zero
 2002a3c:	5800101e 	bne	r11,zero,2002a80 <__gedf2+0x98>
 2002a40:	f800283a 	ret
 2002a44:	18000c1e 	bne	r3,zero,2002a78 <__gedf2+0x90>
 2002a48:	3212b03a 	or	r9,r6,r8
 2002a4c:	48000c26 	beq	r9,zero,2002a80 <__gedf2+0x98>
 2002a50:	0013883a 	mov	r9,zero
 2002a54:	39c03fcc 	andi	r7,r7,255
 2002a58:	48000826 	beq	r9,zero,2002a7c <__gedf2+0x94>
 2002a5c:	38000926 	beq	r7,zero,2002a84 <__gedf2+0x9c>
 2002a60:	00800044 	movi	r2,1
 2002a64:	f800283a 	ret
 2002a68:	3212b03a 	or	r9,r6,r8
 2002a6c:	483fec26 	beq	r9,zero,2002a20 <__gedf2+0x38>
 2002a70:	00bfff84 	movi	r2,-2
 2002a74:	f800283a 	ret
 2002a78:	39c03fcc 	andi	r7,r7,255
 2002a7c:	29c00626 	beq	r5,r7,2002a98 <__gedf2+0xb0>
 2002a80:	283ff726 	beq	r5,zero,2002a60 <__gedf2+0x78>
 2002a84:	00bfffc4 	movi	r2,-1
 2002a88:	f800283a 	ret
 2002a8c:	2292b03a 	or	r9,r4,r10
 2002a90:	483fe126 	beq	r9,zero,2002a18 <__gedf2+0x30>
 2002a94:	003ff606 	br	2002a70 <__gedf2+0x88>
 2002a98:	18bff916 	blt	r3,r2,2002a80 <__gedf2+0x98>
 2002a9c:	10c00316 	blt	r2,r3,2002aac <__gedf2+0xc4>
 2002aa0:	42bff736 	bltu	r8,r10,2002a80 <__gedf2+0x98>
 2002aa4:	52000326 	beq	r10,r8,2002ab4 <__gedf2+0xcc>
 2002aa8:	5200042e 	bgeu	r10,r8,2002abc <__gedf2+0xd4>
 2002aac:	283fec1e 	bne	r5,zero,2002a60 <__gedf2+0x78>
 2002ab0:	003ff406 	br	2002a84 <__gedf2+0x9c>
 2002ab4:	313ff236 	bltu	r6,r4,2002a80 <__gedf2+0x98>
 2002ab8:	21bffc36 	bltu	r4,r6,2002aac <__gedf2+0xc4>
 2002abc:	0005883a 	mov	r2,zero
 2002ac0:	f800283a 	ret

02002ac4 <__ledf2>:
 2002ac4:	2804d53a 	srli	r2,r5,20
 2002ac8:	3810d53a 	srli	r8,r7,20
 2002acc:	00c00434 	movhi	r3,16
 2002ad0:	18ffffc4 	addi	r3,r3,-1
 2002ad4:	1081ffcc 	andi	r2,r2,2047
 2002ad8:	0241ffc4 	movi	r9,2047
 2002adc:	28d4703a 	and	r10,r5,r3
 2002ae0:	4201ffcc 	andi	r8,r8,2047
 2002ae4:	38c6703a 	and	r3,r7,r3
 2002ae8:	280ad7fa 	srli	r5,r5,31
 2002aec:	380ed7fa 	srli	r7,r7,31
 2002af0:	12401f26 	beq	r2,r9,2002b70 <__ledf2+0xac>
 2002af4:	0241ffc4 	movi	r9,2047
 2002af8:	42401426 	beq	r8,r9,2002b4c <__ledf2+0x88>
 2002afc:	1000091e 	bne	r2,zero,2002b24 <__ledf2+0x60>
 2002b00:	2296b03a 	or	r11,r4,r10
 2002b04:	5813003a 	cmpeq	r9,r11,zero
 2002b08:	29403fcc 	andi	r5,r5,255
 2002b0c:	40000a1e 	bne	r8,zero,2002b38 <__ledf2+0x74>
 2002b10:	30d8b03a 	or	r12,r6,r3
 2002b14:	6000081e 	bne	r12,zero,2002b38 <__ledf2+0x74>
 2002b18:	0005883a 	mov	r2,zero
 2002b1c:	5800111e 	bne	r11,zero,2002b64 <__ledf2+0xa0>
 2002b20:	f800283a 	ret
 2002b24:	29403fcc 	andi	r5,r5,255
 2002b28:	40000c1e 	bne	r8,zero,2002b5c <__ledf2+0x98>
 2002b2c:	30d2b03a 	or	r9,r6,r3
 2002b30:	48000c26 	beq	r9,zero,2002b64 <__ledf2+0xa0>
 2002b34:	0013883a 	mov	r9,zero
 2002b38:	39c03fcc 	andi	r7,r7,255
 2002b3c:	48000826 	beq	r9,zero,2002b60 <__ledf2+0x9c>
 2002b40:	38001126 	beq	r7,zero,2002b88 <__ledf2+0xc4>
 2002b44:	00800044 	movi	r2,1
 2002b48:	f800283a 	ret
 2002b4c:	30d2b03a 	or	r9,r6,r3
 2002b50:	483fea26 	beq	r9,zero,2002afc <__ledf2+0x38>
 2002b54:	00800084 	movi	r2,2
 2002b58:	f800283a 	ret
 2002b5c:	39c03fcc 	andi	r7,r7,255
 2002b60:	39400726 	beq	r7,r5,2002b80 <__ledf2+0xbc>
 2002b64:	2800081e 	bne	r5,zero,2002b88 <__ledf2+0xc4>
 2002b68:	00800044 	movi	r2,1
 2002b6c:	f800283a 	ret
 2002b70:	2292b03a 	or	r9,r4,r10
 2002b74:	483fdf26 	beq	r9,zero,2002af4 <__ledf2+0x30>
 2002b78:	00800084 	movi	r2,2
 2002b7c:	f800283a 	ret
 2002b80:	4080030e 	bge	r8,r2,2002b90 <__ledf2+0xcc>
 2002b84:	383fef26 	beq	r7,zero,2002b44 <__ledf2+0x80>
 2002b88:	00bfffc4 	movi	r2,-1
 2002b8c:	f800283a 	ret
 2002b90:	123feb16 	blt	r2,r8,2002b40 <__ledf2+0x7c>
 2002b94:	1abff336 	bltu	r3,r10,2002b64 <__ledf2+0xa0>
 2002b98:	50c00326 	beq	r10,r3,2002ba8 <__ledf2+0xe4>
 2002b9c:	50c0042e 	bgeu	r10,r3,2002bb0 <__ledf2+0xec>
 2002ba0:	283fe81e 	bne	r5,zero,2002b44 <__ledf2+0x80>
 2002ba4:	003ff806 	br	2002b88 <__ledf2+0xc4>
 2002ba8:	313fee36 	bltu	r6,r4,2002b64 <__ledf2+0xa0>
 2002bac:	21bffc36 	bltu	r4,r6,2002ba0 <__ledf2+0xdc>
 2002bb0:	0005883a 	mov	r2,zero
 2002bb4:	f800283a 	ret

02002bb8 <__muldf3>:
 2002bb8:	defff304 	addi	sp,sp,-52
 2002bbc:	2804d53a 	srli	r2,r5,20
 2002bc0:	dd800915 	stw	r22,36(sp)
 2002bc4:	282cd7fa 	srli	r22,r5,31
 2002bc8:	dc000315 	stw	r16,12(sp)
 2002bcc:	04000434 	movhi	r16,16
 2002bd0:	dd400815 	stw	r21,32(sp)
 2002bd4:	dc800515 	stw	r18,20(sp)
 2002bd8:	843fffc4 	addi	r16,r16,-1
 2002bdc:	dfc00c15 	stw	ra,48(sp)
 2002be0:	df000b15 	stw	fp,44(sp)
 2002be4:	ddc00a15 	stw	r23,40(sp)
 2002be8:	dd000715 	stw	r20,28(sp)
 2002bec:	dcc00615 	stw	r19,24(sp)
 2002bf0:	dc400415 	stw	r17,16(sp)
 2002bf4:	1481ffcc 	andi	r18,r2,2047
 2002bf8:	2c20703a 	and	r16,r5,r16
 2002bfc:	b02b883a 	mov	r21,r22
 2002c00:	b2403fcc 	andi	r9,r22,255
 2002c04:	90006026 	beq	r18,zero,2002d88 <__muldf3+0x1d0>
 2002c08:	0081ffc4 	movi	r2,2047
 2002c0c:	2029883a 	mov	r20,r4
 2002c10:	90803626 	beq	r18,r2,2002cec <__muldf3+0x134>
 2002c14:	80800434 	orhi	r2,r16,16
 2002c18:	100490fa 	slli	r2,r2,3
 2002c1c:	2020d77a 	srli	r16,r4,29
 2002c20:	202890fa 	slli	r20,r4,3
 2002c24:	94bf0044 	addi	r18,r18,-1023
 2002c28:	80a0b03a 	or	r16,r16,r2
 2002c2c:	0027883a 	mov	r19,zero
 2002c30:	0039883a 	mov	fp,zero
 2002c34:	3804d53a 	srli	r2,r7,20
 2002c38:	382ed7fa 	srli	r23,r7,31
 2002c3c:	04400434 	movhi	r17,16
 2002c40:	8c7fffc4 	addi	r17,r17,-1
 2002c44:	1081ffcc 	andi	r2,r2,2047
 2002c48:	3011883a 	mov	r8,r6
 2002c4c:	3c62703a 	and	r17,r7,r17
 2002c50:	ba803fcc 	andi	r10,r23,255
 2002c54:	10006d26 	beq	r2,zero,2002e0c <__muldf3+0x254>
 2002c58:	00c1ffc4 	movi	r3,2047
 2002c5c:	10c06526 	beq	r2,r3,2002df4 <__muldf3+0x23c>
 2002c60:	88c00434 	orhi	r3,r17,16
 2002c64:	180690fa 	slli	r3,r3,3
 2002c68:	3022d77a 	srli	r17,r6,29
 2002c6c:	301090fa 	slli	r8,r6,3
 2002c70:	10bf0044 	addi	r2,r2,-1023
 2002c74:	88e2b03a 	or	r17,r17,r3
 2002c78:	000b883a 	mov	r5,zero
 2002c7c:	9085883a 	add	r2,r18,r2
 2002c80:	2cc8b03a 	or	r4,r5,r19
 2002c84:	00c003c4 	movi	r3,15
 2002c88:	bdacf03a 	xor	r22,r23,r22
 2002c8c:	12c00044 	addi	r11,r2,1
 2002c90:	19009936 	bltu	r3,r4,2002ef8 <__muldf3+0x340>
 2002c94:	200890ba 	slli	r4,r4,2
 2002c98:	00c08034 	movhi	r3,512
 2002c9c:	18cb2b04 	addi	r3,r3,11436
 2002ca0:	20c9883a 	add	r4,r4,r3
 2002ca4:	20c00017 	ldw	r3,0(r4)
 2002ca8:	1800683a 	jmp	r3
 2002cac:	02002ef8 	rdprs	r8,zero,187
 2002cb0:	02002d0c 	andi	r8,zero,180
 2002cb4:	02002d0c 	andi	r8,zero,180
 2002cb8:	02002d08 	cmpgei	r8,zero,180
 2002cbc:	02002ed4 	movui	r8,187
 2002cc0:	02002ed4 	movui	r8,187
 2002cc4:	02002ebc 	xorhi	r8,zero,186
 2002cc8:	02002d08 	cmpgei	r8,zero,180
 2002ccc:	02002ed4 	movui	r8,187
 2002cd0:	02002ebc 	xorhi	r8,zero,186
 2002cd4:	02002ed4 	movui	r8,187
 2002cd8:	02002d08 	cmpgei	r8,zero,180
 2002cdc:	02002ee4 	muli	r8,zero,187
 2002ce0:	02002ee4 	muli	r8,zero,187
 2002ce4:	02002ee4 	muli	r8,zero,187
 2002ce8:	02003100 	call	200310 <__alt_mem_mem_Nios_PI+0x310>
 2002cec:	2404b03a 	or	r2,r4,r16
 2002cf0:	10006f1e 	bne	r2,zero,2002eb0 <__muldf3+0x2f8>
 2002cf4:	04c00204 	movi	r19,8
 2002cf8:	0021883a 	mov	r16,zero
 2002cfc:	0029883a 	mov	r20,zero
 2002d00:	07000084 	movi	fp,2
 2002d04:	003fcb06 	br	2002c34 <__muldf3+0x7c>
 2002d08:	502d883a 	mov	r22,r10
 2002d0c:	00800084 	movi	r2,2
 2002d10:	28805726 	beq	r5,r2,2002e70 <__muldf3+0x2b8>
 2002d14:	008000c4 	movi	r2,3
 2002d18:	28816626 	beq	r5,r2,20032b4 <__muldf3+0x6fc>
 2002d1c:	00800044 	movi	r2,1
 2002d20:	2881411e 	bne	r5,r2,2003228 <__muldf3+0x670>
 2002d24:	b02b883a 	mov	r21,r22
 2002d28:	0005883a 	mov	r2,zero
 2002d2c:	000b883a 	mov	r5,zero
 2002d30:	0029883a 	mov	r20,zero
 2002d34:	1004953a 	slli	r2,r2,20
 2002d38:	a8c03fcc 	andi	r3,r21,255
 2002d3c:	04400434 	movhi	r17,16
 2002d40:	8c7fffc4 	addi	r17,r17,-1
 2002d44:	180697fa 	slli	r3,r3,31
 2002d48:	2c4a703a 	and	r5,r5,r17
 2002d4c:	288ab03a 	or	r5,r5,r2
 2002d50:	28c6b03a 	or	r3,r5,r3
 2002d54:	a005883a 	mov	r2,r20
 2002d58:	dfc00c17 	ldw	ra,48(sp)
 2002d5c:	df000b17 	ldw	fp,44(sp)
 2002d60:	ddc00a17 	ldw	r23,40(sp)
 2002d64:	dd800917 	ldw	r22,36(sp)
 2002d68:	dd400817 	ldw	r21,32(sp)
 2002d6c:	dd000717 	ldw	r20,28(sp)
 2002d70:	dcc00617 	ldw	r19,24(sp)
 2002d74:	dc800517 	ldw	r18,20(sp)
 2002d78:	dc400417 	ldw	r17,16(sp)
 2002d7c:	dc000317 	ldw	r16,12(sp)
 2002d80:	dec00d04 	addi	sp,sp,52
 2002d84:	f800283a 	ret
 2002d88:	2404b03a 	or	r2,r4,r16
 2002d8c:	2027883a 	mov	r19,r4
 2002d90:	10004226 	beq	r2,zero,2002e9c <__muldf3+0x2e4>
 2002d94:	8000fc26 	beq	r16,zero,2003188 <__muldf3+0x5d0>
 2002d98:	8009883a 	mov	r4,r16
 2002d9c:	d9800215 	stw	r6,8(sp)
 2002da0:	d9c00015 	stw	r7,0(sp)
 2002da4:	da400115 	stw	r9,4(sp)
 2002da8:	2003d280 	call	2003d28 <__clzsi2>
 2002dac:	d9800217 	ldw	r6,8(sp)
 2002db0:	d9c00017 	ldw	r7,0(sp)
 2002db4:	da400117 	ldw	r9,4(sp)
 2002db8:	113ffd44 	addi	r4,r2,-11
 2002dbc:	00c00704 	movi	r3,28
 2002dc0:	1900ed16 	blt	r3,r4,2003178 <__muldf3+0x5c0>
 2002dc4:	00c00744 	movi	r3,29
 2002dc8:	147ffe04 	addi	r17,r2,-8
 2002dcc:	1907c83a 	sub	r3,r3,r4
 2002dd0:	8460983a 	sll	r16,r16,r17
 2002dd4:	98c6d83a 	srl	r3,r19,r3
 2002dd8:	9c68983a 	sll	r20,r19,r17
 2002ddc:	1c20b03a 	or	r16,r3,r16
 2002de0:	1080fcc4 	addi	r2,r2,1011
 2002de4:	00a5c83a 	sub	r18,zero,r2
 2002de8:	0027883a 	mov	r19,zero
 2002dec:	0039883a 	mov	fp,zero
 2002df0:	003f9006 	br	2002c34 <__muldf3+0x7c>
 2002df4:	3446b03a 	or	r3,r6,r17
 2002df8:	1800261e 	bne	r3,zero,2002e94 <__muldf3+0x2dc>
 2002dfc:	0023883a 	mov	r17,zero
 2002e00:	0011883a 	mov	r8,zero
 2002e04:	01400084 	movi	r5,2
 2002e08:	003f9c06 	br	2002c7c <__muldf3+0xc4>
 2002e0c:	3446b03a 	or	r3,r6,r17
 2002e10:	18001c26 	beq	r3,zero,2002e84 <__muldf3+0x2cc>
 2002e14:	8800ce26 	beq	r17,zero,2003150 <__muldf3+0x598>
 2002e18:	8809883a 	mov	r4,r17
 2002e1c:	d9800215 	stw	r6,8(sp)
 2002e20:	da400115 	stw	r9,4(sp)
 2002e24:	da800015 	stw	r10,0(sp)
 2002e28:	2003d280 	call	2003d28 <__clzsi2>
 2002e2c:	d9800217 	ldw	r6,8(sp)
 2002e30:	da400117 	ldw	r9,4(sp)
 2002e34:	da800017 	ldw	r10,0(sp)
 2002e38:	113ffd44 	addi	r4,r2,-11
 2002e3c:	00c00704 	movi	r3,28
 2002e40:	1900bf16 	blt	r3,r4,2003140 <__muldf3+0x588>
 2002e44:	00c00744 	movi	r3,29
 2002e48:	123ffe04 	addi	r8,r2,-8
 2002e4c:	1907c83a 	sub	r3,r3,r4
 2002e50:	8a22983a 	sll	r17,r17,r8
 2002e54:	30c6d83a 	srl	r3,r6,r3
 2002e58:	3210983a 	sll	r8,r6,r8
 2002e5c:	1c62b03a 	or	r17,r3,r17
 2002e60:	1080fcc4 	addi	r2,r2,1011
 2002e64:	0085c83a 	sub	r2,zero,r2
 2002e68:	000b883a 	mov	r5,zero
 2002e6c:	003f8306 	br	2002c7c <__muldf3+0xc4>
 2002e70:	b02b883a 	mov	r21,r22
 2002e74:	0081ffc4 	movi	r2,2047
 2002e78:	000b883a 	mov	r5,zero
 2002e7c:	0029883a 	mov	r20,zero
 2002e80:	003fac06 	br	2002d34 <__muldf3+0x17c>
 2002e84:	0023883a 	mov	r17,zero
 2002e88:	0011883a 	mov	r8,zero
 2002e8c:	01400044 	movi	r5,1
 2002e90:	003f7a06 	br	2002c7c <__muldf3+0xc4>
 2002e94:	014000c4 	movi	r5,3
 2002e98:	003f7806 	br	2002c7c <__muldf3+0xc4>
 2002e9c:	04c00104 	movi	r19,4
 2002ea0:	0021883a 	mov	r16,zero
 2002ea4:	0029883a 	mov	r20,zero
 2002ea8:	07000044 	movi	fp,1
 2002eac:	003f6106 	br	2002c34 <__muldf3+0x7c>
 2002eb0:	04c00304 	movi	r19,12
 2002eb4:	070000c4 	movi	fp,3
 2002eb8:	003f5e06 	br	2002c34 <__muldf3+0x7c>
 2002ebc:	01400434 	movhi	r5,16
 2002ec0:	002b883a 	mov	r21,zero
 2002ec4:	297fffc4 	addi	r5,r5,-1
 2002ec8:	053fffc4 	movi	r20,-1
 2002ecc:	0081ffc4 	movi	r2,2047
 2002ed0:	003f9806 	br	2002d34 <__muldf3+0x17c>
 2002ed4:	8023883a 	mov	r17,r16
 2002ed8:	a011883a 	mov	r8,r20
 2002edc:	e00b883a 	mov	r5,fp
 2002ee0:	003f8a06 	br	2002d0c <__muldf3+0x154>
 2002ee4:	8023883a 	mov	r17,r16
 2002ee8:	a011883a 	mov	r8,r20
 2002eec:	482d883a 	mov	r22,r9
 2002ef0:	e00b883a 	mov	r5,fp
 2002ef4:	003f8506 	br	2002d0c <__muldf3+0x154>
 2002ef8:	a00ad43a 	srli	r5,r20,16
 2002efc:	401ad43a 	srli	r13,r8,16
 2002f00:	a53fffcc 	andi	r20,r20,65535
 2002f04:	423fffcc 	andi	r8,r8,65535
 2002f08:	4519383a 	mul	r12,r8,r20
 2002f0c:	4147383a 	mul	r3,r8,r5
 2002f10:	6d09383a 	mul	r4,r13,r20
 2002f14:	600cd43a 	srli	r6,r12,16
 2002f18:	2b5d383a 	mul	r14,r5,r13
 2002f1c:	20c9883a 	add	r4,r4,r3
 2002f20:	310d883a 	add	r6,r6,r4
 2002f24:	30c0022e 	bgeu	r6,r3,2002f30 <__muldf3+0x378>
 2002f28:	00c00074 	movhi	r3,1
 2002f2c:	70dd883a 	add	r14,r14,r3
 2002f30:	8826d43a 	srli	r19,r17,16
 2002f34:	8bffffcc 	andi	r15,r17,65535
 2002f38:	7d23383a 	mul	r17,r15,r20
 2002f3c:	7949383a 	mul	r4,r15,r5
 2002f40:	9d29383a 	mul	r20,r19,r20
 2002f44:	8814d43a 	srli	r10,r17,16
 2002f48:	3012943a 	slli	r9,r6,16
 2002f4c:	a129883a 	add	r20,r20,r4
 2002f50:	633fffcc 	andi	r12,r12,65535
 2002f54:	5515883a 	add	r10,r10,r20
 2002f58:	3006d43a 	srli	r3,r6,16
 2002f5c:	4b13883a 	add	r9,r9,r12
 2002f60:	2ccb383a 	mul	r5,r5,r19
 2002f64:	5100022e 	bgeu	r10,r4,2002f70 <__muldf3+0x3b8>
 2002f68:	01000074 	movhi	r4,1
 2002f6c:	290b883a 	add	r5,r5,r4
 2002f70:	802ad43a 	srli	r21,r16,16
 2002f74:	843fffcc 	andi	r16,r16,65535
 2002f78:	440d383a 	mul	r6,r8,r16
 2002f7c:	4565383a 	mul	r18,r8,r21
 2002f80:	8349383a 	mul	r4,r16,r13
 2002f84:	500e943a 	slli	r7,r10,16
 2002f88:	3010d43a 	srli	r8,r6,16
 2002f8c:	5028d43a 	srli	r20,r10,16
 2002f90:	2489883a 	add	r4,r4,r18
 2002f94:	8abfffcc 	andi	r10,r17,65535
 2002f98:	3a95883a 	add	r10,r7,r10
 2002f9c:	4119883a 	add	r12,r8,r4
 2002fa0:	a169883a 	add	r20,r20,r5
 2002fa4:	1a87883a 	add	r3,r3,r10
 2002fa8:	6d5b383a 	mul	r13,r13,r21
 2002fac:	6480022e 	bgeu	r12,r18,2002fb8 <__muldf3+0x400>
 2002fb0:	01000074 	movhi	r4,1
 2002fb4:	691b883a 	add	r13,r13,r4
 2002fb8:	7c25383a 	mul	r18,r15,r16
 2002fbc:	7d4b383a 	mul	r5,r15,r21
 2002fc0:	84cf383a 	mul	r7,r16,r19
 2002fc4:	901ed43a 	srli	r15,r18,16
 2002fc8:	6008d43a 	srli	r4,r12,16
 2002fcc:	6010943a 	slli	r8,r12,16
 2002fd0:	394f883a 	add	r7,r7,r5
 2002fd4:	333fffcc 	andi	r12,r6,65535
 2002fd8:	79df883a 	add	r15,r15,r7
 2002fdc:	235b883a 	add	r13,r4,r13
 2002fe0:	9d63383a 	mul	r17,r19,r21
 2002fe4:	4309883a 	add	r4,r8,r12
 2002fe8:	7940022e 	bgeu	r15,r5,2002ff4 <__muldf3+0x43c>
 2002fec:	01400074 	movhi	r5,1
 2002ff0:	8963883a 	add	r17,r17,r5
 2002ff4:	780a943a 	slli	r5,r15,16
 2002ff8:	91bfffcc 	andi	r6,r18,65535
 2002ffc:	70c7883a 	add	r3,r14,r3
 2003000:	298d883a 	add	r6,r5,r6
 2003004:	1a8f803a 	cmpltu	r7,r3,r10
 2003008:	350b883a 	add	r5,r6,r20
 200300c:	20c7883a 	add	r3,r4,r3
 2003010:	3955883a 	add	r10,r7,r5
 2003014:	1909803a 	cmpltu	r4,r3,r4
 2003018:	6a91883a 	add	r8,r13,r10
 200301c:	780cd43a 	srli	r6,r15,16
 2003020:	2219883a 	add	r12,r4,r8
 2003024:	2d0b803a 	cmpltu	r5,r5,r20
 2003028:	51cf803a 	cmpltu	r7,r10,r7
 200302c:	29ceb03a 	or	r7,r5,r7
 2003030:	4351803a 	cmpltu	r8,r8,r13
 2003034:	610b803a 	cmpltu	r5,r12,r4
 2003038:	4148b03a 	or	r4,r8,r5
 200303c:	398f883a 	add	r7,r7,r6
 2003040:	3909883a 	add	r4,r7,r4
 2003044:	1810927a 	slli	r8,r3,9
 2003048:	2449883a 	add	r4,r4,r17
 200304c:	2008927a 	slli	r4,r4,9
 2003050:	6022d5fa 	srli	r17,r12,23
 2003054:	1806d5fa 	srli	r3,r3,23
 2003058:	4252b03a 	or	r9,r8,r9
 200305c:	600a927a 	slli	r5,r12,9
 2003060:	4810c03a 	cmpne	r8,r9,zero
 2003064:	2462b03a 	or	r17,r4,r17
 2003068:	40c6b03a 	or	r3,r8,r3
 200306c:	8900402c 	andhi	r4,r17,256
 2003070:	1950b03a 	or	r8,r3,r5
 2003074:	20000726 	beq	r4,zero,2003094 <__muldf3+0x4dc>
 2003078:	4006d07a 	srli	r3,r8,1
 200307c:	880497fa 	slli	r2,r17,31
 2003080:	4200004c 	andi	r8,r8,1
 2003084:	8822d07a 	srli	r17,r17,1
 2003088:	1a10b03a 	or	r8,r3,r8
 200308c:	1210b03a 	or	r8,r2,r8
 2003090:	5805883a 	mov	r2,r11
 2003094:	1140ffc4 	addi	r5,r2,1023
 2003098:	0140440e 	bge	zero,r5,20031ac <__muldf3+0x5f4>
 200309c:	40c001cc 	andi	r3,r8,7
 20030a0:	18000726 	beq	r3,zero,20030c0 <__muldf3+0x508>
 20030a4:	40c003cc 	andi	r3,r8,15
 20030a8:	01000104 	movi	r4,4
 20030ac:	19000426 	beq	r3,r4,20030c0 <__muldf3+0x508>
 20030b0:	4107883a 	add	r3,r8,r4
 20030b4:	1a11803a 	cmpltu	r8,r3,r8
 20030b8:	8a23883a 	add	r17,r17,r8
 20030bc:	1811883a 	mov	r8,r3
 20030c0:	88c0402c 	andhi	r3,r17,256
 20030c4:	18000426 	beq	r3,zero,20030d8 <__muldf3+0x520>
 20030c8:	11410004 	addi	r5,r2,1024
 20030cc:	00bfc034 	movhi	r2,65280
 20030d0:	10bfffc4 	addi	r2,r2,-1
 20030d4:	88a2703a 	and	r17,r17,r2
 20030d8:	0081ff84 	movi	r2,2046
 20030dc:	117f6416 	blt	r2,r5,2002e70 <__muldf3+0x2b8>
 20030e0:	8828977a 	slli	r20,r17,29
 20030e4:	4010d0fa 	srli	r8,r8,3
 20030e8:	8822927a 	slli	r17,r17,9
 20030ec:	2881ffcc 	andi	r2,r5,2047
 20030f0:	a228b03a 	or	r20,r20,r8
 20030f4:	880ad33a 	srli	r5,r17,12
 20030f8:	b02b883a 	mov	r21,r22
 20030fc:	003f0d06 	br	2002d34 <__muldf3+0x17c>
 2003100:	8080022c 	andhi	r2,r16,8
 2003104:	10000926 	beq	r2,zero,200312c <__muldf3+0x574>
 2003108:	8880022c 	andhi	r2,r17,8
 200310c:	1000071e 	bne	r2,zero,200312c <__muldf3+0x574>
 2003110:	00800434 	movhi	r2,16
 2003114:	89400234 	orhi	r5,r17,8
 2003118:	10bfffc4 	addi	r2,r2,-1
 200311c:	b82b883a 	mov	r21,r23
 2003120:	288a703a 	and	r5,r5,r2
 2003124:	4029883a 	mov	r20,r8
 2003128:	003f6806 	br	2002ecc <__muldf3+0x314>
 200312c:	00800434 	movhi	r2,16
 2003130:	81400234 	orhi	r5,r16,8
 2003134:	10bfffc4 	addi	r2,r2,-1
 2003138:	288a703a 	and	r5,r5,r2
 200313c:	003f6306 	br	2002ecc <__muldf3+0x314>
 2003140:	147ff604 	addi	r17,r2,-40
 2003144:	3462983a 	sll	r17,r6,r17
 2003148:	0011883a 	mov	r8,zero
 200314c:	003f4406 	br	2002e60 <__muldf3+0x2a8>
 2003150:	3009883a 	mov	r4,r6
 2003154:	d9800215 	stw	r6,8(sp)
 2003158:	da400115 	stw	r9,4(sp)
 200315c:	da800015 	stw	r10,0(sp)
 2003160:	2003d280 	call	2003d28 <__clzsi2>
 2003164:	10800804 	addi	r2,r2,32
 2003168:	da800017 	ldw	r10,0(sp)
 200316c:	da400117 	ldw	r9,4(sp)
 2003170:	d9800217 	ldw	r6,8(sp)
 2003174:	003f3006 	br	2002e38 <__muldf3+0x280>
 2003178:	143ff604 	addi	r16,r2,-40
 200317c:	9c20983a 	sll	r16,r19,r16
 2003180:	0029883a 	mov	r20,zero
 2003184:	003f1606 	br	2002de0 <__muldf3+0x228>
 2003188:	d9800215 	stw	r6,8(sp)
 200318c:	d9c00015 	stw	r7,0(sp)
 2003190:	da400115 	stw	r9,4(sp)
 2003194:	2003d280 	call	2003d28 <__clzsi2>
 2003198:	10800804 	addi	r2,r2,32
 200319c:	da400117 	ldw	r9,4(sp)
 20031a0:	d9c00017 	ldw	r7,0(sp)
 20031a4:	d9800217 	ldw	r6,8(sp)
 20031a8:	003f0306 	br	2002db8 <__muldf3+0x200>
 20031ac:	00c00044 	movi	r3,1
 20031b0:	1947c83a 	sub	r3,r3,r5
 20031b4:	00800e04 	movi	r2,56
 20031b8:	10feda16 	blt	r2,r3,2002d24 <__muldf3+0x16c>
 20031bc:	008007c4 	movi	r2,31
 20031c0:	10c01b16 	blt	r2,r3,2003230 <__muldf3+0x678>
 20031c4:	00800804 	movi	r2,32
 20031c8:	10c5c83a 	sub	r2,r2,r3
 20031cc:	888a983a 	sll	r5,r17,r2
 20031d0:	40c8d83a 	srl	r4,r8,r3
 20031d4:	4084983a 	sll	r2,r8,r2
 20031d8:	88e2d83a 	srl	r17,r17,r3
 20031dc:	2906b03a 	or	r3,r5,r4
 20031e0:	1004c03a 	cmpne	r2,r2,zero
 20031e4:	1886b03a 	or	r3,r3,r2
 20031e8:	188001cc 	andi	r2,r3,7
 20031ec:	10000726 	beq	r2,zero,200320c <__muldf3+0x654>
 20031f0:	188003cc 	andi	r2,r3,15
 20031f4:	01000104 	movi	r4,4
 20031f8:	11000426 	beq	r2,r4,200320c <__muldf3+0x654>
 20031fc:	1805883a 	mov	r2,r3
 2003200:	10c00104 	addi	r3,r2,4
 2003204:	1885803a 	cmpltu	r2,r3,r2
 2003208:	88a3883a 	add	r17,r17,r2
 200320c:	8880202c 	andhi	r2,r17,128
 2003210:	10001c26 	beq	r2,zero,2003284 <__muldf3+0x6cc>
 2003214:	b02b883a 	mov	r21,r22
 2003218:	00800044 	movi	r2,1
 200321c:	000b883a 	mov	r5,zero
 2003220:	0029883a 	mov	r20,zero
 2003224:	003ec306 	br	2002d34 <__muldf3+0x17c>
 2003228:	5805883a 	mov	r2,r11
 200322c:	003f9906 	br	2003094 <__muldf3+0x4dc>
 2003230:	00bff844 	movi	r2,-31
 2003234:	1145c83a 	sub	r2,r2,r5
 2003238:	8888d83a 	srl	r4,r17,r2
 200323c:	00800804 	movi	r2,32
 2003240:	18801a26 	beq	r3,r2,20032ac <__muldf3+0x6f4>
 2003244:	00801004 	movi	r2,64
 2003248:	10c5c83a 	sub	r2,r2,r3
 200324c:	8884983a 	sll	r2,r17,r2
 2003250:	1204b03a 	or	r2,r2,r8
 2003254:	1004c03a 	cmpne	r2,r2,zero
 2003258:	2084b03a 	or	r2,r4,r2
 200325c:	144001cc 	andi	r17,r2,7
 2003260:	88000d1e 	bne	r17,zero,2003298 <__muldf3+0x6e0>
 2003264:	000b883a 	mov	r5,zero
 2003268:	1028d0fa 	srli	r20,r2,3
 200326c:	b02b883a 	mov	r21,r22
 2003270:	0005883a 	mov	r2,zero
 2003274:	a468b03a 	or	r20,r20,r17
 2003278:	003eae06 	br	2002d34 <__muldf3+0x17c>
 200327c:	1007883a 	mov	r3,r2
 2003280:	0023883a 	mov	r17,zero
 2003284:	880a927a 	slli	r5,r17,9
 2003288:	1805883a 	mov	r2,r3
 200328c:	8822977a 	slli	r17,r17,29
 2003290:	280ad33a 	srli	r5,r5,12
 2003294:	003ff406 	br	2003268 <__muldf3+0x6b0>
 2003298:	10c003cc 	andi	r3,r2,15
 200329c:	01000104 	movi	r4,4
 20032a0:	193ff626 	beq	r3,r4,200327c <__muldf3+0x6c4>
 20032a4:	0023883a 	mov	r17,zero
 20032a8:	003fd506 	br	2003200 <__muldf3+0x648>
 20032ac:	0005883a 	mov	r2,zero
 20032b0:	003fe706 	br	2003250 <__muldf3+0x698>
 20032b4:	00800434 	movhi	r2,16
 20032b8:	89400234 	orhi	r5,r17,8
 20032bc:	10bfffc4 	addi	r2,r2,-1
 20032c0:	b02b883a 	mov	r21,r22
 20032c4:	288a703a 	and	r5,r5,r2
 20032c8:	4029883a 	mov	r20,r8
 20032cc:	003eff06 	br	2002ecc <__muldf3+0x314>

020032d0 <__subdf3>:
 20032d0:	02000434 	movhi	r8,16
 20032d4:	423fffc4 	addi	r8,r8,-1
 20032d8:	defffb04 	addi	sp,sp,-20
 20032dc:	2a14703a 	and	r10,r5,r8
 20032e0:	3812d53a 	srli	r9,r7,20
 20032e4:	3a10703a 	and	r8,r7,r8
 20032e8:	2006d77a 	srli	r3,r4,29
 20032ec:	3004d77a 	srli	r2,r6,29
 20032f0:	dc000015 	stw	r16,0(sp)
 20032f4:	501490fa 	slli	r10,r10,3
 20032f8:	2820d53a 	srli	r16,r5,20
 20032fc:	401090fa 	slli	r8,r8,3
 2003300:	dc800215 	stw	r18,8(sp)
 2003304:	dc400115 	stw	r17,4(sp)
 2003308:	dfc00415 	stw	ra,16(sp)
 200330c:	202290fa 	slli	r17,r4,3
 2003310:	dcc00315 	stw	r19,12(sp)
 2003314:	4a41ffcc 	andi	r9,r9,2047
 2003318:	0101ffc4 	movi	r4,2047
 200331c:	2824d7fa 	srli	r18,r5,31
 2003320:	8401ffcc 	andi	r16,r16,2047
 2003324:	50c6b03a 	or	r3,r10,r3
 2003328:	380ed7fa 	srli	r7,r7,31
 200332c:	408ab03a 	or	r5,r8,r2
 2003330:	300c90fa 	slli	r6,r6,3
 2003334:	49009626 	beq	r9,r4,2003590 <__subdf3+0x2c0>
 2003338:	39c0005c 	xori	r7,r7,1
 200333c:	8245c83a 	sub	r2,r16,r9
 2003340:	3c807426 	beq	r7,r18,2003514 <__subdf3+0x244>
 2003344:	0080af0e 	bge	zero,r2,2003604 <__subdf3+0x334>
 2003348:	48002a1e 	bne	r9,zero,20033f4 <__subdf3+0x124>
 200334c:	2988b03a 	or	r4,r5,r6
 2003350:	20009a1e 	bne	r4,zero,20035bc <__subdf3+0x2ec>
 2003354:	888001cc 	andi	r2,r17,7
 2003358:	10000726 	beq	r2,zero,2003378 <__subdf3+0xa8>
 200335c:	888003cc 	andi	r2,r17,15
 2003360:	01000104 	movi	r4,4
 2003364:	11000426 	beq	r2,r4,2003378 <__subdf3+0xa8>
 2003368:	890b883a 	add	r5,r17,r4
 200336c:	2c63803a 	cmpltu	r17,r5,r17
 2003370:	1c47883a 	add	r3,r3,r17
 2003374:	2823883a 	mov	r17,r5
 2003378:	1880202c 	andhi	r2,r3,128
 200337c:	10005926 	beq	r2,zero,20034e4 <__subdf3+0x214>
 2003380:	84000044 	addi	r16,r16,1
 2003384:	0081ffc4 	movi	r2,2047
 2003388:	8080be26 	beq	r16,r2,2003684 <__subdf3+0x3b4>
 200338c:	017fe034 	movhi	r5,65408
 2003390:	297fffc4 	addi	r5,r5,-1
 2003394:	1946703a 	and	r3,r3,r5
 2003398:	1804977a 	slli	r2,r3,29
 200339c:	1806927a 	slli	r3,r3,9
 20033a0:	8822d0fa 	srli	r17,r17,3
 20033a4:	8401ffcc 	andi	r16,r16,2047
 20033a8:	180ad33a 	srli	r5,r3,12
 20033ac:	9100004c 	andi	r4,r18,1
 20033b0:	1444b03a 	or	r2,r2,r17
 20033b4:	80c1ffcc 	andi	r3,r16,2047
 20033b8:	1820953a 	slli	r16,r3,20
 20033bc:	20c03fcc 	andi	r3,r4,255
 20033c0:	180897fa 	slli	r4,r3,31
 20033c4:	00c00434 	movhi	r3,16
 20033c8:	18ffffc4 	addi	r3,r3,-1
 20033cc:	28c6703a 	and	r3,r5,r3
 20033d0:	1c06b03a 	or	r3,r3,r16
 20033d4:	1906b03a 	or	r3,r3,r4
 20033d8:	dfc00417 	ldw	ra,16(sp)
 20033dc:	dcc00317 	ldw	r19,12(sp)
 20033e0:	dc800217 	ldw	r18,8(sp)
 20033e4:	dc400117 	ldw	r17,4(sp)
 20033e8:	dc000017 	ldw	r16,0(sp)
 20033ec:	dec00504 	addi	sp,sp,20
 20033f0:	f800283a 	ret
 20033f4:	0101ffc4 	movi	r4,2047
 20033f8:	813fd626 	beq	r16,r4,2003354 <__subdf3+0x84>
 20033fc:	29402034 	orhi	r5,r5,128
 2003400:	01000e04 	movi	r4,56
 2003404:	2080a316 	blt	r4,r2,2003694 <__subdf3+0x3c4>
 2003408:	010007c4 	movi	r4,31
 200340c:	2080c616 	blt	r4,r2,2003728 <__subdf3+0x458>
 2003410:	01000804 	movi	r4,32
 2003414:	2089c83a 	sub	r4,r4,r2
 2003418:	2910983a 	sll	r8,r5,r4
 200341c:	308ed83a 	srl	r7,r6,r2
 2003420:	3108983a 	sll	r4,r6,r4
 2003424:	2884d83a 	srl	r2,r5,r2
 2003428:	41ccb03a 	or	r6,r8,r7
 200342c:	2008c03a 	cmpne	r4,r4,zero
 2003430:	310cb03a 	or	r6,r6,r4
 2003434:	898dc83a 	sub	r6,r17,r6
 2003438:	89a3803a 	cmpltu	r17,r17,r6
 200343c:	1887c83a 	sub	r3,r3,r2
 2003440:	1c47c83a 	sub	r3,r3,r17
 2003444:	3023883a 	mov	r17,r6
 2003448:	1880202c 	andhi	r2,r3,128
 200344c:	10002326 	beq	r2,zero,20034dc <__subdf3+0x20c>
 2003450:	04c02034 	movhi	r19,128
 2003454:	9cffffc4 	addi	r19,r19,-1
 2003458:	1ce6703a 	and	r19,r3,r19
 200345c:	98007a26 	beq	r19,zero,2003648 <__subdf3+0x378>
 2003460:	9809883a 	mov	r4,r19
 2003464:	2003d280 	call	2003d28 <__clzsi2>
 2003468:	113ffe04 	addi	r4,r2,-8
 200346c:	00c007c4 	movi	r3,31
 2003470:	19007b16 	blt	r3,r4,2003660 <__subdf3+0x390>
 2003474:	00800804 	movi	r2,32
 2003478:	1105c83a 	sub	r2,r2,r4
 200347c:	8884d83a 	srl	r2,r17,r2
 2003480:	9906983a 	sll	r3,r19,r4
 2003484:	8922983a 	sll	r17,r17,r4
 2003488:	10c4b03a 	or	r2,r2,r3
 200348c:	24007816 	blt	r4,r16,2003670 <__subdf3+0x3a0>
 2003490:	2421c83a 	sub	r16,r4,r16
 2003494:	80c00044 	addi	r3,r16,1
 2003498:	010007c4 	movi	r4,31
 200349c:	20c09516 	blt	r4,r3,20036f4 <__subdf3+0x424>
 20034a0:	01400804 	movi	r5,32
 20034a4:	28cbc83a 	sub	r5,r5,r3
 20034a8:	88c8d83a 	srl	r4,r17,r3
 20034ac:	8962983a 	sll	r17,r17,r5
 20034b0:	114a983a 	sll	r5,r2,r5
 20034b4:	10c6d83a 	srl	r3,r2,r3
 20034b8:	8804c03a 	cmpne	r2,r17,zero
 20034bc:	290ab03a 	or	r5,r5,r4
 20034c0:	28a2b03a 	or	r17,r5,r2
 20034c4:	0021883a 	mov	r16,zero
 20034c8:	003fa206 	br	2003354 <__subdf3+0x84>
 20034cc:	2090b03a 	or	r8,r4,r2
 20034d0:	40018e26 	beq	r8,zero,2003b0c <__subdf3+0x83c>
 20034d4:	1007883a 	mov	r3,r2
 20034d8:	2023883a 	mov	r17,r4
 20034dc:	888001cc 	andi	r2,r17,7
 20034e0:	103f9e1e 	bne	r2,zero,200335c <__subdf3+0x8c>
 20034e4:	1804977a 	slli	r2,r3,29
 20034e8:	8822d0fa 	srli	r17,r17,3
 20034ec:	1810d0fa 	srli	r8,r3,3
 20034f0:	9100004c 	andi	r4,r18,1
 20034f4:	1444b03a 	or	r2,r2,r17
 20034f8:	00c1ffc4 	movi	r3,2047
 20034fc:	80c02826 	beq	r16,r3,20035a0 <__subdf3+0x2d0>
 2003500:	01400434 	movhi	r5,16
 2003504:	297fffc4 	addi	r5,r5,-1
 2003508:	80e0703a 	and	r16,r16,r3
 200350c:	414a703a 	and	r5,r8,r5
 2003510:	003fa806 	br	20033b4 <__subdf3+0xe4>
 2003514:	0080630e 	bge	zero,r2,20036a4 <__subdf3+0x3d4>
 2003518:	48003026 	beq	r9,zero,20035dc <__subdf3+0x30c>
 200351c:	0101ffc4 	movi	r4,2047
 2003520:	813f8c26 	beq	r16,r4,2003354 <__subdf3+0x84>
 2003524:	29402034 	orhi	r5,r5,128
 2003528:	01000e04 	movi	r4,56
 200352c:	2080a90e 	bge	r4,r2,20037d4 <__subdf3+0x504>
 2003530:	298cb03a 	or	r6,r5,r6
 2003534:	3012c03a 	cmpne	r9,r6,zero
 2003538:	0005883a 	mov	r2,zero
 200353c:	4c53883a 	add	r9,r9,r17
 2003540:	4c63803a 	cmpltu	r17,r9,r17
 2003544:	10c7883a 	add	r3,r2,r3
 2003548:	88c7883a 	add	r3,r17,r3
 200354c:	4823883a 	mov	r17,r9
 2003550:	1880202c 	andhi	r2,r3,128
 2003554:	1000d026 	beq	r2,zero,2003898 <__subdf3+0x5c8>
 2003558:	84000044 	addi	r16,r16,1
 200355c:	0081ffc4 	movi	r2,2047
 2003560:	8080fe26 	beq	r16,r2,200395c <__subdf3+0x68c>
 2003564:	00bfe034 	movhi	r2,65408
 2003568:	10bfffc4 	addi	r2,r2,-1
 200356c:	1886703a 	and	r3,r3,r2
 2003570:	880ad07a 	srli	r5,r17,1
 2003574:	180497fa 	slli	r2,r3,31
 2003578:	8900004c 	andi	r4,r17,1
 200357c:	2922b03a 	or	r17,r5,r4
 2003580:	1806d07a 	srli	r3,r3,1
 2003584:	1462b03a 	or	r17,r2,r17
 2003588:	3825883a 	mov	r18,r7
 200358c:	003f7106 	br	2003354 <__subdf3+0x84>
 2003590:	2984b03a 	or	r2,r5,r6
 2003594:	103f6826 	beq	r2,zero,2003338 <__subdf3+0x68>
 2003598:	39c03fcc 	andi	r7,r7,255
 200359c:	003f6706 	br	200333c <__subdf3+0x6c>
 20035a0:	4086b03a 	or	r3,r8,r2
 20035a4:	18015226 	beq	r3,zero,2003af0 <__subdf3+0x820>
 20035a8:	00c00434 	movhi	r3,16
 20035ac:	41400234 	orhi	r5,r8,8
 20035b0:	18ffffc4 	addi	r3,r3,-1
 20035b4:	28ca703a 	and	r5,r5,r3
 20035b8:	003f7e06 	br	20033b4 <__subdf3+0xe4>
 20035bc:	10bfffc4 	addi	r2,r2,-1
 20035c0:	1000491e 	bne	r2,zero,20036e8 <__subdf3+0x418>
 20035c4:	898fc83a 	sub	r7,r17,r6
 20035c8:	89e3803a 	cmpltu	r17,r17,r7
 20035cc:	1947c83a 	sub	r3,r3,r5
 20035d0:	1c47c83a 	sub	r3,r3,r17
 20035d4:	3823883a 	mov	r17,r7
 20035d8:	003f9b06 	br	2003448 <__subdf3+0x178>
 20035dc:	2988b03a 	or	r4,r5,r6
 20035e0:	203f5c26 	beq	r4,zero,2003354 <__subdf3+0x84>
 20035e4:	10bfffc4 	addi	r2,r2,-1
 20035e8:	1000931e 	bne	r2,zero,2003838 <__subdf3+0x568>
 20035ec:	898d883a 	add	r6,r17,r6
 20035f0:	3463803a 	cmpltu	r17,r6,r17
 20035f4:	1947883a 	add	r3,r3,r5
 20035f8:	88c7883a 	add	r3,r17,r3
 20035fc:	3023883a 	mov	r17,r6
 2003600:	003fd306 	br	2003550 <__subdf3+0x280>
 2003604:	1000541e 	bne	r2,zero,2003758 <__subdf3+0x488>
 2003608:	80800044 	addi	r2,r16,1
 200360c:	1081ffcc 	andi	r2,r2,2047
 2003610:	01000044 	movi	r4,1
 2003614:	2080a20e 	bge	r4,r2,20038a0 <__subdf3+0x5d0>
 2003618:	8989c83a 	sub	r4,r17,r6
 200361c:	8905803a 	cmpltu	r2,r17,r4
 2003620:	1967c83a 	sub	r19,r3,r5
 2003624:	98a7c83a 	sub	r19,r19,r2
 2003628:	9880202c 	andhi	r2,r19,128
 200362c:	10006326 	beq	r2,zero,20037bc <__subdf3+0x4ec>
 2003630:	3463c83a 	sub	r17,r6,r17
 2003634:	28c7c83a 	sub	r3,r5,r3
 2003638:	344d803a 	cmpltu	r6,r6,r17
 200363c:	19a7c83a 	sub	r19,r3,r6
 2003640:	3825883a 	mov	r18,r7
 2003644:	983f861e 	bne	r19,zero,2003460 <__subdf3+0x190>
 2003648:	8809883a 	mov	r4,r17
 200364c:	2003d280 	call	2003d28 <__clzsi2>
 2003650:	10800804 	addi	r2,r2,32
 2003654:	113ffe04 	addi	r4,r2,-8
 2003658:	00c007c4 	movi	r3,31
 200365c:	193f850e 	bge	r3,r4,2003474 <__subdf3+0x1a4>
 2003660:	10bff604 	addi	r2,r2,-40
 2003664:	8884983a 	sll	r2,r17,r2
 2003668:	0023883a 	mov	r17,zero
 200366c:	243f880e 	bge	r4,r16,2003490 <__subdf3+0x1c0>
 2003670:	00ffe034 	movhi	r3,65408
 2003674:	18ffffc4 	addi	r3,r3,-1
 2003678:	8121c83a 	sub	r16,r16,r4
 200367c:	10c6703a 	and	r3,r2,r3
 2003680:	003f3406 	br	2003354 <__subdf3+0x84>
 2003684:	9100004c 	andi	r4,r18,1
 2003688:	000b883a 	mov	r5,zero
 200368c:	0005883a 	mov	r2,zero
 2003690:	003f4806 	br	20033b4 <__subdf3+0xe4>
 2003694:	298cb03a 	or	r6,r5,r6
 2003698:	300cc03a 	cmpne	r6,r6,zero
 200369c:	0005883a 	mov	r2,zero
 20036a0:	003f6406 	br	2003434 <__subdf3+0x164>
 20036a4:	10009a1e 	bne	r2,zero,2003910 <__subdf3+0x640>
 20036a8:	82400044 	addi	r9,r16,1
 20036ac:	4881ffcc 	andi	r2,r9,2047
 20036b0:	02800044 	movi	r10,1
 20036b4:	5080670e 	bge	r10,r2,2003854 <__subdf3+0x584>
 20036b8:	0081ffc4 	movi	r2,2047
 20036bc:	4880af26 	beq	r9,r2,200397c <__subdf3+0x6ac>
 20036c0:	898d883a 	add	r6,r17,r6
 20036c4:	1945883a 	add	r2,r3,r5
 20036c8:	3447803a 	cmpltu	r3,r6,r17
 20036cc:	1887883a 	add	r3,r3,r2
 20036d0:	182297fa 	slli	r17,r3,31
 20036d4:	300cd07a 	srli	r6,r6,1
 20036d8:	1806d07a 	srli	r3,r3,1
 20036dc:	4821883a 	mov	r16,r9
 20036e0:	89a2b03a 	or	r17,r17,r6
 20036e4:	003f1b06 	br	2003354 <__subdf3+0x84>
 20036e8:	0101ffc4 	movi	r4,2047
 20036ec:	813f441e 	bne	r16,r4,2003400 <__subdf3+0x130>
 20036f0:	003f1806 	br	2003354 <__subdf3+0x84>
 20036f4:	843ff844 	addi	r16,r16,-31
 20036f8:	01400804 	movi	r5,32
 20036fc:	1408d83a 	srl	r4,r2,r16
 2003700:	19405026 	beq	r3,r5,2003844 <__subdf3+0x574>
 2003704:	01401004 	movi	r5,64
 2003708:	28c7c83a 	sub	r3,r5,r3
 200370c:	10c4983a 	sll	r2,r2,r3
 2003710:	88a2b03a 	or	r17,r17,r2
 2003714:	8822c03a 	cmpne	r17,r17,zero
 2003718:	2462b03a 	or	r17,r4,r17
 200371c:	0007883a 	mov	r3,zero
 2003720:	0021883a 	mov	r16,zero
 2003724:	003f6d06 	br	20034dc <__subdf3+0x20c>
 2003728:	11fff804 	addi	r7,r2,-32
 200372c:	01000804 	movi	r4,32
 2003730:	29ced83a 	srl	r7,r5,r7
 2003734:	11004526 	beq	r2,r4,200384c <__subdf3+0x57c>
 2003738:	01001004 	movi	r4,64
 200373c:	2089c83a 	sub	r4,r4,r2
 2003740:	2904983a 	sll	r2,r5,r4
 2003744:	118cb03a 	or	r6,r2,r6
 2003748:	300cc03a 	cmpne	r6,r6,zero
 200374c:	398cb03a 	or	r6,r7,r6
 2003750:	0005883a 	mov	r2,zero
 2003754:	003f3706 	br	2003434 <__subdf3+0x164>
 2003758:	80002a26 	beq	r16,zero,2003804 <__subdf3+0x534>
 200375c:	0101ffc4 	movi	r4,2047
 2003760:	49006626 	beq	r9,r4,20038fc <__subdf3+0x62c>
 2003764:	0085c83a 	sub	r2,zero,r2
 2003768:	18c02034 	orhi	r3,r3,128
 200376c:	01000e04 	movi	r4,56
 2003770:	20807e16 	blt	r4,r2,200396c <__subdf3+0x69c>
 2003774:	010007c4 	movi	r4,31
 2003778:	2080e716 	blt	r4,r2,2003b18 <__subdf3+0x848>
 200377c:	01000804 	movi	r4,32
 2003780:	2089c83a 	sub	r4,r4,r2
 2003784:	1914983a 	sll	r10,r3,r4
 2003788:	8890d83a 	srl	r8,r17,r2
 200378c:	8908983a 	sll	r4,r17,r4
 2003790:	1884d83a 	srl	r2,r3,r2
 2003794:	5222b03a 	or	r17,r10,r8
 2003798:	2006c03a 	cmpne	r3,r4,zero
 200379c:	88e2b03a 	or	r17,r17,r3
 20037a0:	3463c83a 	sub	r17,r6,r17
 20037a4:	2885c83a 	sub	r2,r5,r2
 20037a8:	344d803a 	cmpltu	r6,r6,r17
 20037ac:	1187c83a 	sub	r3,r2,r6
 20037b0:	4821883a 	mov	r16,r9
 20037b4:	3825883a 	mov	r18,r7
 20037b8:	003f2306 	br	2003448 <__subdf3+0x178>
 20037bc:	24d0b03a 	or	r8,r4,r19
 20037c0:	40001b1e 	bne	r8,zero,2003830 <__subdf3+0x560>
 20037c4:	0005883a 	mov	r2,zero
 20037c8:	0009883a 	mov	r4,zero
 20037cc:	0021883a 	mov	r16,zero
 20037d0:	003f4906 	br	20034f8 <__subdf3+0x228>
 20037d4:	010007c4 	movi	r4,31
 20037d8:	20803a16 	blt	r4,r2,20038c4 <__subdf3+0x5f4>
 20037dc:	01000804 	movi	r4,32
 20037e0:	2089c83a 	sub	r4,r4,r2
 20037e4:	2912983a 	sll	r9,r5,r4
 20037e8:	3090d83a 	srl	r8,r6,r2
 20037ec:	3108983a 	sll	r4,r6,r4
 20037f0:	2884d83a 	srl	r2,r5,r2
 20037f4:	4a12b03a 	or	r9,r9,r8
 20037f8:	2008c03a 	cmpne	r4,r4,zero
 20037fc:	4912b03a 	or	r9,r9,r4
 2003800:	003f4e06 	br	200353c <__subdf3+0x26c>
 2003804:	1c48b03a 	or	r4,r3,r17
 2003808:	20003c26 	beq	r4,zero,20038fc <__subdf3+0x62c>
 200380c:	0084303a 	nor	r2,zero,r2
 2003810:	1000381e 	bne	r2,zero,20038f4 <__subdf3+0x624>
 2003814:	3463c83a 	sub	r17,r6,r17
 2003818:	28c5c83a 	sub	r2,r5,r3
 200381c:	344d803a 	cmpltu	r6,r6,r17
 2003820:	1187c83a 	sub	r3,r2,r6
 2003824:	4821883a 	mov	r16,r9
 2003828:	3825883a 	mov	r18,r7
 200382c:	003f0606 	br	2003448 <__subdf3+0x178>
 2003830:	2023883a 	mov	r17,r4
 2003834:	003f0906 	br	200345c <__subdf3+0x18c>
 2003838:	0101ffc4 	movi	r4,2047
 200383c:	813f3a1e 	bne	r16,r4,2003528 <__subdf3+0x258>
 2003840:	003ec406 	br	2003354 <__subdf3+0x84>
 2003844:	0005883a 	mov	r2,zero
 2003848:	003fb106 	br	2003710 <__subdf3+0x440>
 200384c:	0005883a 	mov	r2,zero
 2003850:	003fbc06 	br	2003744 <__subdf3+0x474>
 2003854:	1c44b03a 	or	r2,r3,r17
 2003858:	80008e1e 	bne	r16,zero,2003a94 <__subdf3+0x7c4>
 200385c:	1000c826 	beq	r2,zero,2003b80 <__subdf3+0x8b0>
 2003860:	2984b03a 	or	r2,r5,r6
 2003864:	103ebb26 	beq	r2,zero,2003354 <__subdf3+0x84>
 2003868:	8989883a 	add	r4,r17,r6
 200386c:	1945883a 	add	r2,r3,r5
 2003870:	2447803a 	cmpltu	r3,r4,r17
 2003874:	1887883a 	add	r3,r3,r2
 2003878:	1880202c 	andhi	r2,r3,128
 200387c:	2023883a 	mov	r17,r4
 2003880:	103f1626 	beq	r2,zero,20034dc <__subdf3+0x20c>
 2003884:	00bfe034 	movhi	r2,65408
 2003888:	10bfffc4 	addi	r2,r2,-1
 200388c:	5021883a 	mov	r16,r10
 2003890:	1886703a 	and	r3,r3,r2
 2003894:	003eaf06 	br	2003354 <__subdf3+0x84>
 2003898:	3825883a 	mov	r18,r7
 200389c:	003f0f06 	br	20034dc <__subdf3+0x20c>
 20038a0:	1c44b03a 	or	r2,r3,r17
 20038a4:	8000251e 	bne	r16,zero,200393c <__subdf3+0x66c>
 20038a8:	1000661e 	bne	r2,zero,2003a44 <__subdf3+0x774>
 20038ac:	2990b03a 	or	r8,r5,r6
 20038b0:	40009626 	beq	r8,zero,2003b0c <__subdf3+0x83c>
 20038b4:	2807883a 	mov	r3,r5
 20038b8:	3023883a 	mov	r17,r6
 20038bc:	3825883a 	mov	r18,r7
 20038c0:	003ea406 	br	2003354 <__subdf3+0x84>
 20038c4:	127ff804 	addi	r9,r2,-32
 20038c8:	01000804 	movi	r4,32
 20038cc:	2a52d83a 	srl	r9,r5,r9
 20038d0:	11008c26 	beq	r2,r4,2003b04 <__subdf3+0x834>
 20038d4:	01001004 	movi	r4,64
 20038d8:	2085c83a 	sub	r2,r4,r2
 20038dc:	2884983a 	sll	r2,r5,r2
 20038e0:	118cb03a 	or	r6,r2,r6
 20038e4:	300cc03a 	cmpne	r6,r6,zero
 20038e8:	4992b03a 	or	r9,r9,r6
 20038ec:	0005883a 	mov	r2,zero
 20038f0:	003f1206 	br	200353c <__subdf3+0x26c>
 20038f4:	0101ffc4 	movi	r4,2047
 20038f8:	493f9c1e 	bne	r9,r4,200376c <__subdf3+0x49c>
 20038fc:	2807883a 	mov	r3,r5
 2003900:	3023883a 	mov	r17,r6
 2003904:	4821883a 	mov	r16,r9
 2003908:	3825883a 	mov	r18,r7
 200390c:	003e9106 	br	2003354 <__subdf3+0x84>
 2003910:	80001f1e 	bne	r16,zero,2003990 <__subdf3+0x6c0>
 2003914:	1c48b03a 	or	r4,r3,r17
 2003918:	20005a26 	beq	r4,zero,2003a84 <__subdf3+0x7b4>
 200391c:	0084303a 	nor	r2,zero,r2
 2003920:	1000561e 	bne	r2,zero,2003a7c <__subdf3+0x7ac>
 2003924:	89a3883a 	add	r17,r17,r6
 2003928:	1945883a 	add	r2,r3,r5
 200392c:	898d803a 	cmpltu	r6,r17,r6
 2003930:	3087883a 	add	r3,r6,r2
 2003934:	4821883a 	mov	r16,r9
 2003938:	003f0506 	br	2003550 <__subdf3+0x280>
 200393c:	10002b1e 	bne	r2,zero,20039ec <__subdf3+0x71c>
 2003940:	2984b03a 	or	r2,r5,r6
 2003944:	10008026 	beq	r2,zero,2003b48 <__subdf3+0x878>
 2003948:	2807883a 	mov	r3,r5
 200394c:	3023883a 	mov	r17,r6
 2003950:	3825883a 	mov	r18,r7
 2003954:	0401ffc4 	movi	r16,2047
 2003958:	003e7e06 	br	2003354 <__subdf3+0x84>
 200395c:	3809883a 	mov	r4,r7
 2003960:	0011883a 	mov	r8,zero
 2003964:	0005883a 	mov	r2,zero
 2003968:	003ee306 	br	20034f8 <__subdf3+0x228>
 200396c:	1c62b03a 	or	r17,r3,r17
 2003970:	8822c03a 	cmpne	r17,r17,zero
 2003974:	0005883a 	mov	r2,zero
 2003978:	003f8906 	br	20037a0 <__subdf3+0x4d0>
 200397c:	3809883a 	mov	r4,r7
 2003980:	4821883a 	mov	r16,r9
 2003984:	0011883a 	mov	r8,zero
 2003988:	0005883a 	mov	r2,zero
 200398c:	003eda06 	br	20034f8 <__subdf3+0x228>
 2003990:	0101ffc4 	movi	r4,2047
 2003994:	49003b26 	beq	r9,r4,2003a84 <__subdf3+0x7b4>
 2003998:	0085c83a 	sub	r2,zero,r2
 200399c:	18c02034 	orhi	r3,r3,128
 20039a0:	01000e04 	movi	r4,56
 20039a4:	20806e16 	blt	r4,r2,2003b60 <__subdf3+0x890>
 20039a8:	010007c4 	movi	r4,31
 20039ac:	20807716 	blt	r4,r2,2003b8c <__subdf3+0x8bc>
 20039b0:	01000804 	movi	r4,32
 20039b4:	2089c83a 	sub	r4,r4,r2
 20039b8:	1914983a 	sll	r10,r3,r4
 20039bc:	8890d83a 	srl	r8,r17,r2
 20039c0:	8908983a 	sll	r4,r17,r4
 20039c4:	1884d83a 	srl	r2,r3,r2
 20039c8:	5222b03a 	or	r17,r10,r8
 20039cc:	2006c03a 	cmpne	r3,r4,zero
 20039d0:	88e2b03a 	or	r17,r17,r3
 20039d4:	89a3883a 	add	r17,r17,r6
 20039d8:	1145883a 	add	r2,r2,r5
 20039dc:	898d803a 	cmpltu	r6,r17,r6
 20039e0:	3087883a 	add	r3,r6,r2
 20039e4:	4821883a 	mov	r16,r9
 20039e8:	003ed906 	br	2003550 <__subdf3+0x280>
 20039ec:	2984b03a 	or	r2,r5,r6
 20039f0:	10004226 	beq	r2,zero,2003afc <__subdf3+0x82c>
 20039f4:	1808d0fa 	srli	r4,r3,3
 20039f8:	8822d0fa 	srli	r17,r17,3
 20039fc:	1806977a 	slli	r3,r3,29
 2003a00:	2080022c 	andhi	r2,r4,8
 2003a04:	1c62b03a 	or	r17,r3,r17
 2003a08:	10000826 	beq	r2,zero,2003a2c <__subdf3+0x75c>
 2003a0c:	2812d0fa 	srli	r9,r5,3
 2003a10:	4880022c 	andhi	r2,r9,8
 2003a14:	1000051e 	bne	r2,zero,2003a2c <__subdf3+0x75c>
 2003a18:	300cd0fa 	srli	r6,r6,3
 2003a1c:	2804977a 	slli	r2,r5,29
 2003a20:	4809883a 	mov	r4,r9
 2003a24:	3825883a 	mov	r18,r7
 2003a28:	11a2b03a 	or	r17,r2,r6
 2003a2c:	8806d77a 	srli	r3,r17,29
 2003a30:	200890fa 	slli	r4,r4,3
 2003a34:	882290fa 	slli	r17,r17,3
 2003a38:	0401ffc4 	movi	r16,2047
 2003a3c:	1906b03a 	or	r3,r3,r4
 2003a40:	003e4406 	br	2003354 <__subdf3+0x84>
 2003a44:	2984b03a 	or	r2,r5,r6
 2003a48:	103e4226 	beq	r2,zero,2003354 <__subdf3+0x84>
 2003a4c:	8989c83a 	sub	r4,r17,r6
 2003a50:	8911803a 	cmpltu	r8,r17,r4
 2003a54:	1945c83a 	sub	r2,r3,r5
 2003a58:	1205c83a 	sub	r2,r2,r8
 2003a5c:	1200202c 	andhi	r8,r2,128
 2003a60:	403e9a26 	beq	r8,zero,20034cc <__subdf3+0x1fc>
 2003a64:	3463c83a 	sub	r17,r6,r17
 2003a68:	28c5c83a 	sub	r2,r5,r3
 2003a6c:	344d803a 	cmpltu	r6,r6,r17
 2003a70:	1187c83a 	sub	r3,r2,r6
 2003a74:	3825883a 	mov	r18,r7
 2003a78:	003e3606 	br	2003354 <__subdf3+0x84>
 2003a7c:	0101ffc4 	movi	r4,2047
 2003a80:	493fc71e 	bne	r9,r4,20039a0 <__subdf3+0x6d0>
 2003a84:	2807883a 	mov	r3,r5
 2003a88:	3023883a 	mov	r17,r6
 2003a8c:	4821883a 	mov	r16,r9
 2003a90:	003e3006 	br	2003354 <__subdf3+0x84>
 2003a94:	10003626 	beq	r2,zero,2003b70 <__subdf3+0x8a0>
 2003a98:	2984b03a 	or	r2,r5,r6
 2003a9c:	10001726 	beq	r2,zero,2003afc <__subdf3+0x82c>
 2003aa0:	1808d0fa 	srli	r4,r3,3
 2003aa4:	8822d0fa 	srli	r17,r17,3
 2003aa8:	1806977a 	slli	r3,r3,29
 2003aac:	2080022c 	andhi	r2,r4,8
 2003ab0:	1c62b03a 	or	r17,r3,r17
 2003ab4:	10000726 	beq	r2,zero,2003ad4 <__subdf3+0x804>
 2003ab8:	2812d0fa 	srli	r9,r5,3
 2003abc:	4880022c 	andhi	r2,r9,8
 2003ac0:	1000041e 	bne	r2,zero,2003ad4 <__subdf3+0x804>
 2003ac4:	300cd0fa 	srli	r6,r6,3
 2003ac8:	2804977a 	slli	r2,r5,29
 2003acc:	4809883a 	mov	r4,r9
 2003ad0:	11a2b03a 	or	r17,r2,r6
 2003ad4:	8806d77a 	srli	r3,r17,29
 2003ad8:	200890fa 	slli	r4,r4,3
 2003adc:	882290fa 	slli	r17,r17,3
 2003ae0:	3825883a 	mov	r18,r7
 2003ae4:	1906b03a 	or	r3,r3,r4
 2003ae8:	0401ffc4 	movi	r16,2047
 2003aec:	003e1906 	br	2003354 <__subdf3+0x84>
 2003af0:	000b883a 	mov	r5,zero
 2003af4:	0005883a 	mov	r2,zero
 2003af8:	003e2e06 	br	20033b4 <__subdf3+0xe4>
 2003afc:	0401ffc4 	movi	r16,2047
 2003b00:	003e1406 	br	2003354 <__subdf3+0x84>
 2003b04:	0005883a 	mov	r2,zero
 2003b08:	003f7506 	br	20038e0 <__subdf3+0x610>
 2003b0c:	0005883a 	mov	r2,zero
 2003b10:	0009883a 	mov	r4,zero
 2003b14:	003e7806 	br	20034f8 <__subdf3+0x228>
 2003b18:	123ff804 	addi	r8,r2,-32
 2003b1c:	01000804 	movi	r4,32
 2003b20:	1a10d83a 	srl	r8,r3,r8
 2003b24:	11002526 	beq	r2,r4,2003bbc <__subdf3+0x8ec>
 2003b28:	01001004 	movi	r4,64
 2003b2c:	2085c83a 	sub	r2,r4,r2
 2003b30:	1884983a 	sll	r2,r3,r2
 2003b34:	1444b03a 	or	r2,r2,r17
 2003b38:	1004c03a 	cmpne	r2,r2,zero
 2003b3c:	40a2b03a 	or	r17,r8,r2
 2003b40:	0005883a 	mov	r2,zero
 2003b44:	003f1606 	br	20037a0 <__subdf3+0x4d0>
 2003b48:	02000434 	movhi	r8,16
 2003b4c:	0009883a 	mov	r4,zero
 2003b50:	423fffc4 	addi	r8,r8,-1
 2003b54:	00bfffc4 	movi	r2,-1
 2003b58:	0401ffc4 	movi	r16,2047
 2003b5c:	003e6606 	br	20034f8 <__subdf3+0x228>
 2003b60:	1c62b03a 	or	r17,r3,r17
 2003b64:	8822c03a 	cmpne	r17,r17,zero
 2003b68:	0005883a 	mov	r2,zero
 2003b6c:	003f9906 	br	20039d4 <__subdf3+0x704>
 2003b70:	2807883a 	mov	r3,r5
 2003b74:	3023883a 	mov	r17,r6
 2003b78:	0401ffc4 	movi	r16,2047
 2003b7c:	003df506 	br	2003354 <__subdf3+0x84>
 2003b80:	2807883a 	mov	r3,r5
 2003b84:	3023883a 	mov	r17,r6
 2003b88:	003df206 	br	2003354 <__subdf3+0x84>
 2003b8c:	123ff804 	addi	r8,r2,-32
 2003b90:	01000804 	movi	r4,32
 2003b94:	1a10d83a 	srl	r8,r3,r8
 2003b98:	11000a26 	beq	r2,r4,2003bc4 <__subdf3+0x8f4>
 2003b9c:	01001004 	movi	r4,64
 2003ba0:	2085c83a 	sub	r2,r4,r2
 2003ba4:	1884983a 	sll	r2,r3,r2
 2003ba8:	1444b03a 	or	r2,r2,r17
 2003bac:	1004c03a 	cmpne	r2,r2,zero
 2003bb0:	40a2b03a 	or	r17,r8,r2
 2003bb4:	0005883a 	mov	r2,zero
 2003bb8:	003f8606 	br	20039d4 <__subdf3+0x704>
 2003bbc:	0005883a 	mov	r2,zero
 2003bc0:	003fdc06 	br	2003b34 <__subdf3+0x864>
 2003bc4:	0005883a 	mov	r2,zero
 2003bc8:	003ff706 	br	2003ba8 <__subdf3+0x8d8>

02003bcc <__fixdfsi>:
 2003bcc:	280cd53a 	srli	r6,r5,20
 2003bd0:	00c00434 	movhi	r3,16
 2003bd4:	18ffffc4 	addi	r3,r3,-1
 2003bd8:	3181ffcc 	andi	r6,r6,2047
 2003bdc:	01c0ff84 	movi	r7,1022
 2003be0:	28c6703a 	and	r3,r5,r3
 2003be4:	280ad7fa 	srli	r5,r5,31
 2003be8:	3980120e 	bge	r7,r6,2003c34 <__fixdfsi+0x68>
 2003bec:	00810744 	movi	r2,1053
 2003bf0:	11800c16 	blt	r2,r6,2003c24 <__fixdfsi+0x58>
 2003bf4:	00810cc4 	movi	r2,1075
 2003bf8:	1185c83a 	sub	r2,r2,r6
 2003bfc:	01c007c4 	movi	r7,31
 2003c00:	18c00434 	orhi	r3,r3,16
 2003c04:	38800d16 	blt	r7,r2,2003c3c <__fixdfsi+0x70>
 2003c08:	31befb44 	addi	r6,r6,-1043
 2003c0c:	2084d83a 	srl	r2,r4,r2
 2003c10:	1986983a 	sll	r3,r3,r6
 2003c14:	1884b03a 	or	r2,r3,r2
 2003c18:	28000726 	beq	r5,zero,2003c38 <__fixdfsi+0x6c>
 2003c1c:	0085c83a 	sub	r2,zero,r2
 2003c20:	f800283a 	ret
 2003c24:	00a00034 	movhi	r2,32768
 2003c28:	10bfffc4 	addi	r2,r2,-1
 2003c2c:	2885883a 	add	r2,r5,r2
 2003c30:	f800283a 	ret
 2003c34:	0005883a 	mov	r2,zero
 2003c38:	f800283a 	ret
 2003c3c:	008104c4 	movi	r2,1043
 2003c40:	1185c83a 	sub	r2,r2,r6
 2003c44:	1884d83a 	srl	r2,r3,r2
 2003c48:	003ff306 	br	2003c18 <__fixdfsi+0x4c>

02003c4c <__floatsidf>:
 2003c4c:	defffd04 	addi	sp,sp,-12
 2003c50:	dfc00215 	stw	ra,8(sp)
 2003c54:	dc400115 	stw	r17,4(sp)
 2003c58:	dc000015 	stw	r16,0(sp)
 2003c5c:	20002b26 	beq	r4,zero,2003d0c <__floatsidf+0xc0>
 2003c60:	2023883a 	mov	r17,r4
 2003c64:	2020d7fa 	srli	r16,r4,31
 2003c68:	20002d16 	blt	r4,zero,2003d20 <__floatsidf+0xd4>
 2003c6c:	8809883a 	mov	r4,r17
 2003c70:	2003d280 	call	2003d28 <__clzsi2>
 2003c74:	01410784 	movi	r5,1054
 2003c78:	288bc83a 	sub	r5,r5,r2
 2003c7c:	01010cc4 	movi	r4,1075
 2003c80:	2149c83a 	sub	r4,r4,r5
 2003c84:	00c007c4 	movi	r3,31
 2003c88:	1900160e 	bge	r3,r4,2003ce4 <__floatsidf+0x98>
 2003c8c:	00c104c4 	movi	r3,1043
 2003c90:	1947c83a 	sub	r3,r3,r5
 2003c94:	88c6983a 	sll	r3,r17,r3
 2003c98:	00800434 	movhi	r2,16
 2003c9c:	10bfffc4 	addi	r2,r2,-1
 2003ca0:	1886703a 	and	r3,r3,r2
 2003ca4:	2941ffcc 	andi	r5,r5,2047
 2003ca8:	800d883a 	mov	r6,r16
 2003cac:	0005883a 	mov	r2,zero
 2003cb0:	280a953a 	slli	r5,r5,20
 2003cb4:	31803fcc 	andi	r6,r6,255
 2003cb8:	01000434 	movhi	r4,16
 2003cbc:	300c97fa 	slli	r6,r6,31
 2003cc0:	213fffc4 	addi	r4,r4,-1
 2003cc4:	1906703a 	and	r3,r3,r4
 2003cc8:	1946b03a 	or	r3,r3,r5
 2003ccc:	1986b03a 	or	r3,r3,r6
 2003cd0:	dfc00217 	ldw	ra,8(sp)
 2003cd4:	dc400117 	ldw	r17,4(sp)
 2003cd8:	dc000017 	ldw	r16,0(sp)
 2003cdc:	dec00304 	addi	sp,sp,12
 2003ce0:	f800283a 	ret
 2003ce4:	00c002c4 	movi	r3,11
 2003ce8:	1887c83a 	sub	r3,r3,r2
 2003cec:	88c6d83a 	srl	r3,r17,r3
 2003cf0:	8904983a 	sll	r2,r17,r4
 2003cf4:	01000434 	movhi	r4,16
 2003cf8:	213fffc4 	addi	r4,r4,-1
 2003cfc:	2941ffcc 	andi	r5,r5,2047
 2003d00:	1906703a 	and	r3,r3,r4
 2003d04:	800d883a 	mov	r6,r16
 2003d08:	003fe906 	br	2003cb0 <__floatsidf+0x64>
 2003d0c:	000d883a 	mov	r6,zero
 2003d10:	000b883a 	mov	r5,zero
 2003d14:	0007883a 	mov	r3,zero
 2003d18:	0005883a 	mov	r2,zero
 2003d1c:	003fe406 	br	2003cb0 <__floatsidf+0x64>
 2003d20:	0123c83a 	sub	r17,zero,r4
 2003d24:	003fd106 	br	2003c6c <__floatsidf+0x20>

02003d28 <__clzsi2>:
 2003d28:	00bfffd4 	movui	r2,65535
 2003d2c:	11000536 	bltu	r2,r4,2003d44 <__clzsi2+0x1c>
 2003d30:	00803fc4 	movi	r2,255
 2003d34:	11000f36 	bltu	r2,r4,2003d74 <__clzsi2+0x4c>
 2003d38:	00800804 	movi	r2,32
 2003d3c:	0007883a 	mov	r3,zero
 2003d40:	00000506 	br	2003d58 <__clzsi2+0x30>
 2003d44:	00804034 	movhi	r2,256
 2003d48:	10bfffc4 	addi	r2,r2,-1
 2003d4c:	11000c2e 	bgeu	r2,r4,2003d80 <__clzsi2+0x58>
 2003d50:	00800204 	movi	r2,8
 2003d54:	00c00604 	movi	r3,24
 2003d58:	20c8d83a 	srl	r4,r4,r3
 2003d5c:	00c080b4 	movhi	r3,514
 2003d60:	18f21044 	addi	r3,r3,-14271
 2003d64:	1909883a 	add	r4,r3,r4
 2003d68:	20c00003 	ldbu	r3,0(r4)
 2003d6c:	10c5c83a 	sub	r2,r2,r3
 2003d70:	f800283a 	ret
 2003d74:	00800604 	movi	r2,24
 2003d78:	00c00204 	movi	r3,8
 2003d7c:	003ff606 	br	2003d58 <__clzsi2+0x30>
 2003d80:	00800404 	movi	r2,16
 2003d84:	1007883a 	mov	r3,r2
 2003d88:	003ff306 	br	2003d58 <__clzsi2+0x30>

02003d8c <__divsi3>:
 2003d8c:	20001b16 	blt	r4,zero,2003dfc <__divsi3+0x70>
 2003d90:	000f883a 	mov	r7,zero
 2003d94:	28001616 	blt	r5,zero,2003df0 <__divsi3+0x64>
 2003d98:	200d883a 	mov	r6,r4
 2003d9c:	29001a2e 	bgeu	r5,r4,2003e08 <__divsi3+0x7c>
 2003da0:	00800804 	movi	r2,32
 2003da4:	00c00044 	movi	r3,1
 2003da8:	00000106 	br	2003db0 <__divsi3+0x24>
 2003dac:	10000d26 	beq	r2,zero,2003de4 <__divsi3+0x58>
 2003db0:	294b883a 	add	r5,r5,r5
 2003db4:	10bfffc4 	addi	r2,r2,-1
 2003db8:	18c7883a 	add	r3,r3,r3
 2003dbc:	293ffb36 	bltu	r5,r4,2003dac <__divsi3+0x20>
 2003dc0:	0005883a 	mov	r2,zero
 2003dc4:	18000726 	beq	r3,zero,2003de4 <__divsi3+0x58>
 2003dc8:	0005883a 	mov	r2,zero
 2003dcc:	31400236 	bltu	r6,r5,2003dd8 <__divsi3+0x4c>
 2003dd0:	314dc83a 	sub	r6,r6,r5
 2003dd4:	10c4b03a 	or	r2,r2,r3
 2003dd8:	1806d07a 	srli	r3,r3,1
 2003ddc:	280ad07a 	srli	r5,r5,1
 2003de0:	183ffa1e 	bne	r3,zero,2003dcc <__divsi3+0x40>
 2003de4:	38000126 	beq	r7,zero,2003dec <__divsi3+0x60>
 2003de8:	0085c83a 	sub	r2,zero,r2
 2003dec:	f800283a 	ret
 2003df0:	014bc83a 	sub	r5,zero,r5
 2003df4:	39c0005c 	xori	r7,r7,1
 2003df8:	003fe706 	br	2003d98 <__divsi3+0xc>
 2003dfc:	0109c83a 	sub	r4,zero,r4
 2003e00:	01c00044 	movi	r7,1
 2003e04:	003fe306 	br	2003d94 <__divsi3+0x8>
 2003e08:	00c00044 	movi	r3,1
 2003e0c:	003fee06 	br	2003dc8 <__divsi3+0x3c>

02003e10 <__modsi3>:
 2003e10:	20001716 	blt	r4,zero,2003e70 <__modsi3+0x60>
 2003e14:	000f883a 	mov	r7,zero
 2003e18:	2005883a 	mov	r2,r4
 2003e1c:	28001216 	blt	r5,zero,2003e68 <__modsi3+0x58>
 2003e20:	2900162e 	bgeu	r5,r4,2003e7c <__modsi3+0x6c>
 2003e24:	01800804 	movi	r6,32
 2003e28:	00c00044 	movi	r3,1
 2003e2c:	00000106 	br	2003e34 <__modsi3+0x24>
 2003e30:	30000a26 	beq	r6,zero,2003e5c <__modsi3+0x4c>
 2003e34:	294b883a 	add	r5,r5,r5
 2003e38:	31bfffc4 	addi	r6,r6,-1
 2003e3c:	18c7883a 	add	r3,r3,r3
 2003e40:	293ffb36 	bltu	r5,r4,2003e30 <__modsi3+0x20>
 2003e44:	18000526 	beq	r3,zero,2003e5c <__modsi3+0x4c>
 2003e48:	1806d07a 	srli	r3,r3,1
 2003e4c:	11400136 	bltu	r2,r5,2003e54 <__modsi3+0x44>
 2003e50:	1145c83a 	sub	r2,r2,r5
 2003e54:	280ad07a 	srli	r5,r5,1
 2003e58:	183ffb1e 	bne	r3,zero,2003e48 <__modsi3+0x38>
 2003e5c:	38000126 	beq	r7,zero,2003e64 <__modsi3+0x54>
 2003e60:	0085c83a 	sub	r2,zero,r2
 2003e64:	f800283a 	ret
 2003e68:	014bc83a 	sub	r5,zero,r5
 2003e6c:	003fec06 	br	2003e20 <__modsi3+0x10>
 2003e70:	0109c83a 	sub	r4,zero,r4
 2003e74:	01c00044 	movi	r7,1
 2003e78:	003fe706 	br	2003e18 <__modsi3+0x8>
 2003e7c:	00c00044 	movi	r3,1
 2003e80:	003ff106 	br	2003e48 <__modsi3+0x38>

02003e84 <__udivsi3>:
 2003e84:	200d883a 	mov	r6,r4
 2003e88:	2900152e 	bgeu	r5,r4,2003ee0 <__udivsi3+0x5c>
 2003e8c:	28001416 	blt	r5,zero,2003ee0 <__udivsi3+0x5c>
 2003e90:	00800804 	movi	r2,32
 2003e94:	00c00044 	movi	r3,1
 2003e98:	00000206 	br	2003ea4 <__udivsi3+0x20>
 2003e9c:	10000e26 	beq	r2,zero,2003ed8 <__udivsi3+0x54>
 2003ea0:	28000516 	blt	r5,zero,2003eb8 <__udivsi3+0x34>
 2003ea4:	294b883a 	add	r5,r5,r5
 2003ea8:	10bfffc4 	addi	r2,r2,-1
 2003eac:	18c7883a 	add	r3,r3,r3
 2003eb0:	293ffa36 	bltu	r5,r4,2003e9c <__udivsi3+0x18>
 2003eb4:	18000826 	beq	r3,zero,2003ed8 <__udivsi3+0x54>
 2003eb8:	0005883a 	mov	r2,zero
 2003ebc:	31400236 	bltu	r6,r5,2003ec8 <__udivsi3+0x44>
 2003ec0:	314dc83a 	sub	r6,r6,r5
 2003ec4:	10c4b03a 	or	r2,r2,r3
 2003ec8:	1806d07a 	srli	r3,r3,1
 2003ecc:	280ad07a 	srli	r5,r5,1
 2003ed0:	183ffa1e 	bne	r3,zero,2003ebc <__udivsi3+0x38>
 2003ed4:	f800283a 	ret
 2003ed8:	0005883a 	mov	r2,zero
 2003edc:	f800283a 	ret
 2003ee0:	00c00044 	movi	r3,1
 2003ee4:	003ff406 	br	2003eb8 <__udivsi3+0x34>

02003ee8 <__umodsi3>:
 2003ee8:	2005883a 	mov	r2,r4
 2003eec:	2900122e 	bgeu	r5,r4,2003f38 <__umodsi3+0x50>
 2003ef0:	28001116 	blt	r5,zero,2003f38 <__umodsi3+0x50>
 2003ef4:	01800804 	movi	r6,32
 2003ef8:	00c00044 	movi	r3,1
 2003efc:	00000206 	br	2003f08 <__umodsi3+0x20>
 2003f00:	30000c26 	beq	r6,zero,2003f34 <__umodsi3+0x4c>
 2003f04:	28000516 	blt	r5,zero,2003f1c <__umodsi3+0x34>
 2003f08:	294b883a 	add	r5,r5,r5
 2003f0c:	31bfffc4 	addi	r6,r6,-1
 2003f10:	18c7883a 	add	r3,r3,r3
 2003f14:	293ffa36 	bltu	r5,r4,2003f00 <__umodsi3+0x18>
 2003f18:	18000626 	beq	r3,zero,2003f34 <__umodsi3+0x4c>
 2003f1c:	1806d07a 	srli	r3,r3,1
 2003f20:	11400136 	bltu	r2,r5,2003f28 <__umodsi3+0x40>
 2003f24:	1145c83a 	sub	r2,r2,r5
 2003f28:	280ad07a 	srli	r5,r5,1
 2003f2c:	183ffb1e 	bne	r3,zero,2003f1c <__umodsi3+0x34>
 2003f30:	f800283a 	ret
 2003f34:	f800283a 	ret
 2003f38:	00c00044 	movi	r3,1
 2003f3c:	003ff706 	br	2003f1c <__umodsi3+0x34>

02003f40 <__errno>:

#ifndef _REENT_ONLY

int *
__errno ()
{
 2003f40:	deffff04 	addi	sp,sp,-4
 2003f44:	df000015 	stw	fp,0(sp)
 2003f48:	d839883a 	mov	fp,sp
  return &_REENT->_errno;
 2003f4c:	d0a00517 	ldw	r2,-32748(gp)
}
 2003f50:	e037883a 	mov	sp,fp
 2003f54:	df000017 	ldw	fp,0(sp)
 2003f58:	dec00104 	addi	sp,sp,4
 2003f5c:	f800283a 	ret

02003f60 <_printf_r>:

int
_DEFUN(_printf_r, (ptr, fmt),
       struct _reent *ptr _AND
       const char *__restrict fmt _DOTS)
{
 2003f60:	defff804 	addi	sp,sp,-32
 2003f64:	dfc00515 	stw	ra,20(sp)
 2003f68:	df000415 	stw	fp,16(sp)
 2003f6c:	df000404 	addi	fp,sp,16
 2003f70:	e13ffe15 	stw	r4,-8(fp)
 2003f74:	e17fff15 	stw	r5,-4(fp)
 2003f78:	e1800215 	stw	r6,8(fp)
 2003f7c:	e1c00315 	stw	r7,12(fp)
  int ret;
  va_list ap;

  _REENT_SMALL_CHECK_INIT (ptr);
  _FILE_INIT_DEV_WRITE (_stdout_r (ptr));						/* AlteraSpecific */
  va_start (ap, fmt);
 2003f80:	e0800204 	addi	r2,fp,8
 2003f84:	e0bffd15 	stw	r2,-12(fp)
/*ret =   _vfprintf_r          (ptr, _stdout_r (ptr), fmt, ap);	*/	/*1.16.0*/	/* AlteraSpecific */
/*ret = ___vfprintf_internal_r (ptr, _stdout_r (ptr), fmt, ap);	*/	/*1.16  */	/* AlteraSpecific */
/*ret =   _vfprintf_r          (ptr, _stdout_r (ptr), fmt, ap);	*/	/*1.18.0*/	/* AlteraSpecific */
/*ret =   _vfprintf_r          (ptr, _stdout_r (ptr), fmt, ap);	*/	/* try1 */	/* AlteraSpecific */
  ret = ___vfprintf_internal_r (ptr, _stdout_r (ptr), fmt, ap);		/* try2 */	/* AlteraSpecific */
 2003f88:	e0bffe17 	ldw	r2,-8(fp)
 2003f8c:	10800217 	ldw	r2,8(r2)
 2003f90:	e0fffd17 	ldw	r3,-12(fp)
 2003f94:	180f883a 	mov	r7,r3
 2003f98:	e1bfff17 	ldw	r6,-4(fp)
 2003f9c:	100b883a 	mov	r5,r2
 2003fa0:	e13ffe17 	ldw	r4,-8(fp)
 2003fa4:	20043b00 	call	20043b0 <___vfprintf_internal_r>
 2003fa8:	e0bffc15 	stw	r2,-16(fp)
  va_end (ap);
  return ret;
 2003fac:	e0bffc17 	ldw	r2,-16(fp)
}
 2003fb0:	e037883a 	mov	sp,fp
 2003fb4:	dfc00117 	ldw	ra,4(sp)
 2003fb8:	df000017 	ldw	fp,0(sp)
 2003fbc:	dec00404 	addi	sp,sp,16
 2003fc0:	f800283a 	ret

02003fc4 <printf>:
#ifndef _REENT_ONLY

int
_DEFUN(printf, (fmt),
       const char *__restrict fmt _DOTS)
{
 2003fc4:	defff704 	addi	sp,sp,-36
 2003fc8:	dfc00515 	stw	ra,20(sp)
 2003fcc:	df000415 	stw	fp,16(sp)
 2003fd0:	df000404 	addi	fp,sp,16
 2003fd4:	e13fff15 	stw	r4,-4(fp)
 2003fd8:	e1400215 	stw	r5,8(fp)
 2003fdc:	e1800315 	stw	r6,12(fp)
 2003fe0:	e1c00415 	stw	r7,16(fp)
  int ret;
  va_list ap;
  struct _reent *ptr = _REENT;
 2003fe4:	d0a00517 	ldw	r2,-32748(gp)
 2003fe8:	e0bffc15 	stw	r2,-16(fp)

  _REENT_SMALL_CHECK_INIT (ptr);
  _FILE_INIT_DEV_WRITE (_stdout_r (_REENT));					/* AlteraSpecific. Mirror changes here in iprintf.c */
  va_start (ap, fmt);
 2003fec:	e0800204 	addi	r2,fp,8
 2003ff0:	e0bffe15 	stw	r2,-8(fp)
/*ret =  _vfprintf_r        (ptr, _stdout_r    (ptr), fmt, ap);	*/ /*1.16.0*/	/* AlteraSpecific */
/*ret = __vfprintf_internal (     _stdout_r (_REENT), fmt, ap);	*/ /*1.16  */	/* AlteraSpecific */
/*ret =  _vfprintf_r        (ptr, _stdout_r    (ptr), fmt, ap);	*/ /*1.18.0*/	/* AlteraSpecific */
/*ret =  _vfprintf_r        (ptr, _stdout_r    (ptr), fmt, ap); */ /* try1 */	/* AlteraSpecific */
  ret = __vfprintf_internal (     _stdout_r (_REENT), fmt, ap);    /* try2 */	/* AlteraSpecific */
 2003ff4:	d0a00517 	ldw	r2,-32748(gp)
 2003ff8:	10800217 	ldw	r2,8(r2)
 2003ffc:	e0fffe17 	ldw	r3,-8(fp)
 2004000:	180d883a 	mov	r6,r3
 2004004:	e17fff17 	ldw	r5,-4(fp)
 2004008:	1009883a 	mov	r4,r2
 200400c:	20043600 	call	2004360 <__vfprintf_internal>
 2004010:	e0bffd15 	stw	r2,-12(fp)
  va_end (ap);
  return ret;
 2004014:	e0bffd17 	ldw	r2,-12(fp)
}
 2004018:	e037883a 	mov	sp,fp
 200401c:	dfc00117 	ldw	ra,4(sp)
 2004020:	df000017 	ldw	fp,0(sp)
 2004024:	dec00504 	addi	sp,sp,20
 2004028:	f800283a 	ret

0200402c <_puts_r>:

int
_DEFUN(_puts_r, (ptr, s),
       struct _reent *ptr _AND
       _CONST char * s)
{
 200402c:	defff104 	addi	sp,sp,-60
 2004030:	dfc00e15 	stw	ra,56(sp)
 2004034:	df000d15 	stw	fp,52(sp)
 2004038:	df000d04 	addi	fp,sp,52
 200403c:	e13ffe15 	stw	r4,-8(fp)
 2004040:	e17fff15 	stw	r5,-4(fp)
#ifdef _FVWRITE_IN_STREAMIO
  int result;
  size_t c = strlen (s);
 2004044:	e13fff17 	ldw	r4,-4(fp)
 2004048:	200417c0 	call	200417c <strlen>
 200404c:	e0bff315 	stw	r2,-52(fp)
  struct __suio uio;
  struct __siov iov[2];
  FILE *fp;

  iov[0].iov_base = s;
 2004050:	e0bfff17 	ldw	r2,-4(fp)
 2004054:	e0bffa15 	stw	r2,-24(fp)
  iov[0].iov_len = c;
 2004058:	e0bff317 	ldw	r2,-52(fp)
 200405c:	e0bffb15 	stw	r2,-20(fp)
  iov[1].iov_base = "\n";
 2004060:	008080b4 	movhi	r2,514
 2004064:	10b25204 	addi	r2,r2,-14008
 2004068:	e0bffc15 	stw	r2,-16(fp)
  iov[1].iov_len = 1;
 200406c:	00800044 	movi	r2,1
 2004070:	e0bffd15 	stw	r2,-12(fp)
  uio.uio_resid = c + 1;
 2004074:	e0bff317 	ldw	r2,-52(fp)
 2004078:	10800044 	addi	r2,r2,1
 200407c:	e0bff915 	stw	r2,-28(fp)
  uio.uio_iov = &iov[0];
 2004080:	e0bffa04 	addi	r2,fp,-24
 2004084:	e0bff715 	stw	r2,-36(fp)
  uio.uio_iovcnt = 2;
 2004088:	00800084 	movi	r2,2
 200408c:	e0bff815 	stw	r2,-32(fp)

  CHECK_STD_INIT (ptr);
 2004090:	e0bffe17 	ldw	r2,-8(fp)
 2004094:	e0bff415 	stw	r2,-48(fp)
 2004098:	e0bff417 	ldw	r2,-48(fp)
 200409c:	10000526 	beq	r2,zero,20040b4 <_puts_r+0x88>
 20040a0:	e0bff417 	ldw	r2,-48(fp)
 20040a4:	10800e17 	ldw	r2,56(r2)
 20040a8:	1000021e 	bne	r2,zero,20040b4 <_puts_r+0x88>
 20040ac:	e13ff417 	ldw	r4,-48(fp)
 20040b0:	200901c0 	call	200901c <__sinit>
  fp = _stdout_r (ptr);
 20040b4:	e0bffe17 	ldw	r2,-8(fp)
 20040b8:	10800217 	ldw	r2,8(r2)
 20040bc:	e0bff515 	stw	r2,-44(fp)
  _newlib_flockfile_start (fp);
  ORIENT (fp, -1);
 20040c0:	e0bff517 	ldw	r2,-44(fp)
 20040c4:	1080030b 	ldhu	r2,12(r2)
 20040c8:	10bfffcc 	andi	r2,r2,65535
 20040cc:	1088000c 	andi	r2,r2,8192
 20040d0:	10000c1e 	bne	r2,zero,2004104 <_puts_r+0xd8>
 20040d4:	e0bff517 	ldw	r2,-44(fp)
 20040d8:	1080030b 	ldhu	r2,12(r2)
 20040dc:	10880014 	ori	r2,r2,8192
 20040e0:	1007883a 	mov	r3,r2
 20040e4:	e0bff517 	ldw	r2,-44(fp)
 20040e8:	10c0030d 	sth	r3,12(r2)
 20040ec:	e0bff517 	ldw	r2,-44(fp)
 20040f0:	10c01917 	ldw	r3,100(r2)
 20040f4:	00b7ffc4 	movi	r2,-8193
 20040f8:	1886703a 	and	r3,r3,r2
 20040fc:	e0bff517 	ldw	r2,-44(fp)
 2004100:	10c01915 	stw	r3,100(r2)
  result = (__sfvwrite_r (ptr, fp, &uio) ? EOF : '\n');
 2004104:	e0bff704 	addi	r2,fp,-36
 2004108:	100d883a 	mov	r6,r2
 200410c:	e17ff517 	ldw	r5,-44(fp)
 2004110:	e13ffe17 	ldw	r4,-8(fp)
 2004114:	20099680 	call	2009968 <__sfvwrite_r>
 2004118:	10000226 	beq	r2,zero,2004124 <_puts_r+0xf8>
 200411c:	00bfffc4 	movi	r2,-1
 2004120:	00000106 	br	2004128 <_puts_r+0xfc>
 2004124:	00800284 	movi	r2,10
 2004128:	e0bff615 	stw	r2,-40(fp)
  _newlib_flockfile_end (fp);
  return result;
 200412c:	e0bff617 	ldw	r2,-40(fp)

err:
  _newlib_flockfile_end (fp);
  return result;
#endif
}
 2004130:	e037883a 	mov	sp,fp
 2004134:	dfc00117 	ldw	ra,4(sp)
 2004138:	df000017 	ldw	fp,0(sp)
 200413c:	dec00204 	addi	sp,sp,8
 2004140:	f800283a 	ret

02004144 <puts>:
#ifndef _REENT_ONLY

int
_DEFUN(puts, (s),
       char _CONST * s)
{
 2004144:	defffd04 	addi	sp,sp,-12
 2004148:	dfc00215 	stw	ra,8(sp)
 200414c:	df000115 	stw	fp,4(sp)
 2004150:	df000104 	addi	fp,sp,4
 2004154:	e13fff15 	stw	r4,-4(fp)
  return _puts_r (_REENT, s);
 2004158:	d0a00517 	ldw	r2,-32748(gp)
 200415c:	e17fff17 	ldw	r5,-4(fp)
 2004160:	1009883a 	mov	r4,r2
 2004164:	200402c0 	call	200402c <_puts_r>
}
 2004168:	e037883a 	mov	sp,fp
 200416c:	dfc00117 	ldw	ra,4(sp)
 2004170:	df000017 	ldw	fp,0(sp)
 2004174:	dec00204 	addi	sp,sp,8
 2004178:	f800283a 	ret

0200417c <strlen>:
#endif

size_t
_DEFUN (strlen, (str),
	_CONST char *str)
{
 200417c:	defffc04 	addi	sp,sp,-16
 2004180:	df000315 	stw	fp,12(sp)
 2004184:	df000304 	addi	fp,sp,12
 2004188:	e13fff15 	stw	r4,-4(fp)
  _CONST char *start = str;
 200418c:	e0bfff17 	ldw	r2,-4(fp)
 2004190:	e0bffe15 	stw	r2,-8(fp)

#if !defined(PREFER_SIZE_OVER_SPEED) && !defined(__OPTIMIZE_SIZE__)
  unsigned long *aligned_addr;

  /* Align the pointer, so we can search a word at a time.  */
  while (UNALIGNED (str))
 2004194:	00000d06 	br	20041cc <strlen+0x50>
    {
      if (!*str)
 2004198:	e0bfff17 	ldw	r2,-4(fp)
 200419c:	10800003 	ldbu	r2,0(r2)
 20041a0:	10803fcc 	andi	r2,r2,255
 20041a4:	1080201c 	xori	r2,r2,128
 20041a8:	10bfe004 	addi	r2,r2,-128
 20041ac:	1000041e 	bne	r2,zero,20041c0 <strlen+0x44>
	return str - start;
 20041b0:	e0ffff17 	ldw	r3,-4(fp)
 20041b4:	e0bffe17 	ldw	r2,-8(fp)
 20041b8:	1885c83a 	sub	r2,r3,r2
 20041bc:	00002806 	br	2004260 <strlen+0xe4>
      str++;
 20041c0:	e0bfff17 	ldw	r2,-4(fp)
 20041c4:	10800044 	addi	r2,r2,1
 20041c8:	e0bfff15 	stw	r2,-4(fp)

#if !defined(PREFER_SIZE_OVER_SPEED) && !defined(__OPTIMIZE_SIZE__)
  unsigned long *aligned_addr;

  /* Align the pointer, so we can search a word at a time.  */
  while (UNALIGNED (str))
 20041cc:	e0bfff17 	ldw	r2,-4(fp)
 20041d0:	108000cc 	andi	r2,r2,3
 20041d4:	103ff01e 	bne	r2,zero,2004198 <strlen+0x1c>
      str++;
    }

  /* If the string is word-aligned, we can check for the presence of
     a null in each word-sized block.  */
  aligned_addr = (unsigned long *)str;
 20041d8:	e0bfff17 	ldw	r2,-4(fp)
 20041dc:	e0bffd15 	stw	r2,-12(fp)
  while (!DETECTNULL (*aligned_addr))
 20041e0:	00000306 	br	20041f0 <strlen+0x74>
    aligned_addr++;
 20041e4:	e0bffd17 	ldw	r2,-12(fp)
 20041e8:	10800104 	addi	r2,r2,4
 20041ec:	e0bffd15 	stw	r2,-12(fp)
    }

  /* If the string is word-aligned, we can check for the presence of
     a null in each word-sized block.  */
  aligned_addr = (unsigned long *)str;
  while (!DETECTNULL (*aligned_addr))
 20041f0:	e0bffd17 	ldw	r2,-12(fp)
 20041f4:	10c00017 	ldw	r3,0(r2)
 20041f8:	00bfbff4 	movhi	r2,65279
 20041fc:	10bfbfc4 	addi	r2,r2,-257
 2004200:	1887883a 	add	r3,r3,r2
 2004204:	e0bffd17 	ldw	r2,-12(fp)
 2004208:	10800017 	ldw	r2,0(r2)
 200420c:	0084303a 	nor	r2,zero,r2
 2004210:	1886703a 	and	r3,r3,r2
 2004214:	00a02074 	movhi	r2,32897
 2004218:	10a02004 	addi	r2,r2,-32640
 200421c:	1884703a 	and	r2,r3,r2
 2004220:	103ff026 	beq	r2,zero,20041e4 <strlen+0x68>
    aligned_addr++;

  /* Once a null is detected, we check each byte in that block for a
     precise position of the null.  */
  str = (char *) aligned_addr;
 2004224:	e0bffd17 	ldw	r2,-12(fp)
 2004228:	e0bfff15 	stw	r2,-4(fp)

#endif /* not PREFER_SIZE_OVER_SPEED */

  while (*str)
 200422c:	00000306 	br	200423c <strlen+0xc0>
    str++;
 2004230:	e0bfff17 	ldw	r2,-4(fp)
 2004234:	10800044 	addi	r2,r2,1
 2004238:	e0bfff15 	stw	r2,-4(fp)
     precise position of the null.  */
  str = (char *) aligned_addr;

#endif /* not PREFER_SIZE_OVER_SPEED */

  while (*str)
 200423c:	e0bfff17 	ldw	r2,-4(fp)
 2004240:	10800003 	ldbu	r2,0(r2)
 2004244:	10803fcc 	andi	r2,r2,255
 2004248:	1080201c 	xori	r2,r2,128
 200424c:	10bfe004 	addi	r2,r2,-128
 2004250:	103ff71e 	bne	r2,zero,2004230 <strlen+0xb4>
    str++;
  return str - start;
 2004254:	e0ffff17 	ldw	r3,-4(fp)
 2004258:	e0bffe17 	ldw	r2,-8(fp)
 200425c:	1885c83a 	sub	r2,r3,r2
}
 2004260:	e037883a 	mov	sp,fp
 2004264:	df000017 	ldw	fp,0(sp)
 2004268:	dec00104 	addi	sp,sp,4
 200426c:	f800283a 	ret

02004270 <__sbprintf>:
_DEFUN(__sbprintf, (rptr, fp, fmt, ap),
       struct _reent *rptr _AND
       register FILE *fp   _AND
       _CONST char *fmt  _AND
       va_list ap)
{
 2004270:	defedf04 	addi	sp,sp,-1156
 2004274:	dfc12015 	stw	ra,1152(sp)
 2004278:	df011f15 	stw	fp,1148(sp)
 200427c:	dc011e15 	stw	r16,1144(sp)
 2004280:	df011f04 	addi	fp,sp,1148
 2004284:	e13ffc15 	stw	r4,-16(fp)
 2004288:	2821883a 	mov	r16,r5
 200428c:	e1bffd15 	stw	r6,-12(fp)
 2004290:	e1fffe15 	stw	r7,-8(fp)
	int ret;
	FILE fake;
	unsigned char buf[BUFSIZ];

	/* copy the important variables */
	fake._flags = fp->_flags & ~__SNBF;
 2004294:	80c0030b 	ldhu	r3,12(r16)
 2004298:	00bfff44 	movi	r2,-3
 200429c:	1884703a 	and	r2,r3,r2
 20042a0:	e0bee50d 	sth	r2,-1132(fp)
	fake._flags2 = fp->_flags2;
 20042a4:	80801917 	ldw	r2,100(r16)
 20042a8:	e0befb15 	stw	r2,-1044(fp)
	fake._file = fp->_file;
 20042ac:	8080038b 	ldhu	r2,14(r16)
 20042b0:	e0bee58d 	sth	r2,-1130(fp)
	fake._cookie = fp->_cookie;
 20042b4:	80800717 	ldw	r2,28(r16)
 20042b8:	e0bee915 	stw	r2,-1116(fp)
	fake._write = fp->_write;
 20042bc:	80800917 	ldw	r2,36(r16)
 20042c0:	e0beeb15 	stw	r2,-1108(fp)

	/* set up the buffer */
	fake._bf._base = fake._p = buf;
 20042c4:	e0befc04 	addi	r2,fp,-1040
 20042c8:	e0bee215 	stw	r2,-1144(fp)
 20042cc:	e0bee217 	ldw	r2,-1144(fp)
 20042d0:	e0bee615 	stw	r2,-1128(fp)
	fake._bf._size = fake._w = sizeof (buf);
 20042d4:	00810004 	movi	r2,1024
 20042d8:	e0bee415 	stw	r2,-1136(fp)
 20042dc:	e0bee417 	ldw	r2,-1136(fp)
 20042e0:	e0bee715 	stw	r2,-1124(fp)
	fake._lbfsize = 0;	/* not actually used, but Just In Case */
 20042e4:	e03ee815 	stw	zero,-1120(fp)
#ifndef __SINGLE_THREAD__
	__lock_init_recursive (fake._lock);
#endif

	/* do the work, then copy any error status */
	ret = _VFPRINTF_R (rptr, &fake, fmt, ap);
 20042e8:	e0bee204 	addi	r2,fp,-1144
 20042ec:	e1fffe17 	ldw	r7,-8(fp)
 20042f0:	e1bffd17 	ldw	r6,-12(fp)
 20042f4:	100b883a 	mov	r5,r2
 20042f8:	e13ffc17 	ldw	r4,-16(fp)
 20042fc:	20043b00 	call	20043b0 <___vfprintf_internal_r>
 2004300:	e0bee115 	stw	r2,-1148(fp)
	if (ret >= 0 && _fflush_r (rptr, &fake))
 2004304:	e0bee117 	ldw	r2,-1148(fp)
 2004308:	10000716 	blt	r2,zero,2004328 <__sbprintf+0xb8>
 200430c:	e0bee204 	addi	r2,fp,-1144
 2004310:	100b883a 	mov	r5,r2
 2004314:	e13ffc17 	ldw	r4,-16(fp)
 2004318:	2008b9c0 	call	2008b9c <_fflush_r>
 200431c:	10000226 	beq	r2,zero,2004328 <__sbprintf+0xb8>
		ret = EOF;
 2004320:	00bfffc4 	movi	r2,-1
 2004324:	e0bee115 	stw	r2,-1148(fp)
	if (fake._flags & __SERR)
 2004328:	e0bee50b 	ldhu	r2,-1132(fp)
 200432c:	10bfffcc 	andi	r2,r2,65535
 2004330:	1080100c 	andi	r2,r2,64
 2004334:	10000326 	beq	r2,zero,2004344 <__sbprintf+0xd4>
		fp->_flags |= __SERR;
 2004338:	8080030b 	ldhu	r2,12(r16)
 200433c:	10801014 	ori	r2,r2,64
 2004340:	8080030d 	sth	r2,12(r16)

#ifndef __SINGLE_THREAD__
	__lock_close_recursive (fake._lock);
#endif
	return (ret);
 2004344:	e0bee117 	ldw	r2,-1148(fp)
}
 2004348:	e6ffff04 	addi	sp,fp,-4
 200434c:	dfc00217 	ldw	ra,8(sp)
 2004350:	df000117 	ldw	fp,4(sp)
 2004354:	dc000017 	ldw	r16,0(sp)
 2004358:	dec00304 	addi	sp,sp,12
 200435c:	f800283a 	ret

02004360 <__vfprintf_internal>:
int
_DEFUN(VFPRINTF, (fp, fmt0, ap),
       FILE * fp         _AND
       _CONST char *fmt0 _AND
       va_list ap)
{
 2004360:	defffa04 	addi	sp,sp,-24
 2004364:	dfc00515 	stw	ra,20(sp)
 2004368:	df000415 	stw	fp,16(sp)
 200436c:	df000404 	addi	fp,sp,16
 2004370:	e13ffd15 	stw	r4,-12(fp)
 2004374:	e17ffe15 	stw	r5,-8(fp)
 2004378:	e1bfff15 	stw	r6,-4(fp)
  int result;
  result = _VFPRINTF_R (_REENT, fp, fmt0, ap);
 200437c:	d0a00517 	ldw	r2,-32748(gp)
 2004380:	e1ffff17 	ldw	r7,-4(fp)
 2004384:	e1bffe17 	ldw	r6,-8(fp)
 2004388:	e17ffd17 	ldw	r5,-12(fp)
 200438c:	1009883a 	mov	r4,r2
 2004390:	20043b00 	call	20043b0 <___vfprintf_internal_r>
 2004394:	e0bffc15 	stw	r2,-16(fp)
  return result;
 2004398:	e0bffc17 	ldw	r2,-16(fp)
}
 200439c:	e037883a 	mov	sp,fp
 20043a0:	dfc00117 	ldw	ra,4(sp)
 20043a4:	df000017 	ldw	fp,0(sp)
 20043a8:	dec00204 	addi	sp,sp,8
 20043ac:	f800283a 	ret

020043b0 <___vfprintf_internal_r>:
_DEFUN(_VFPRINTF_R, (data, fp, fmt0, ap),
       struct _reent *data _AND
       FILE * fp           _AND
       _CONST char *fmt0   _AND
       va_list ap)
{
 20043b0:	deffa404 	addi	sp,sp,-368
 20043b4:	dfc05b15 	stw	ra,364(sp)
 20043b8:	df005a15 	stw	fp,360(sp)
 20043bc:	ddc05915 	stw	r23,356(sp)
 20043c0:	dd805815 	stw	r22,352(sp)
 20043c4:	dd405715 	stw	r21,348(sp)
 20043c8:	dd005615 	stw	r20,344(sp)
 20043cc:	dcc05515 	stw	r19,340(sp)
 20043d0:	dc805415 	stw	r18,336(sp)
 20043d4:	dc405315 	stw	r17,332(sp)
 20043d8:	dc005215 	stw	r16,328(sp)
 20043dc:	df005a04 	addi	fp,sp,360
 20043e0:	e13fe615 	stw	r4,-104(fp)
 20043e4:	e17fe715 	stw	r5,-100(fp)
 20043e8:	e1bfe815 	stw	r6,-96(fp)
 20043ec:	e1ffe915 	stw	r7,-92(fp)
	char *thousands_sep = NULL;
	size_t thsnd_len = 0;
	const char *grouping = NULL;
#endif
#ifdef FLOATING_POINT
	char *decimal_point = _localeconv_r (data)->decimal_point;
 20043f0:	e13fe617 	ldw	r4,-104(fp)
 20043f4:	200a2040 	call	200a204 <_localeconv_r>
 20043f8:	10800017 	ldw	r2,0(r2)
 20043fc:	e0bfbb15 	stw	r2,-276(fp)
	size_t decp_len = strlen (decimal_point);
 2004400:	e13fbb17 	ldw	r4,-276(fp)
 2004404:	200417c0 	call	200417c <strlen>
 2004408:	e0bfbc15 	stw	r2,-272(fp)
	char softsign;		/* temporary negative sign for floats */
	union { int i; _PRINTF_FLOAT_TYPE fp; } _double_ = {0};
 200440c:	e03fc215 	stw	zero,-248(fp)
 2004410:	e03fc315 	stw	zero,-244(fp)
# define _fpvalue (_double_.fp)
	int expt;		/* integer value of exponent */
	int expsize = 0;	/* character count for expstr */
 2004414:	e03faf15 	stw	zero,-324(fp)
	char expstr[MAXEXPLEN];	/* buffer for exponent string */
	int lead;		/* sig figs before decimal or group sep */
#endif /* FLOATING_POINT */
#if defined (FLOATING_POINT) || defined (_WANT_IO_C99_FORMATS)
	int ndig = 0;		/* actual number of digits returned by cvt */
 2004418:	e03fc715 	stw	zero,-228(fp)
	u_quad_t _uquad;	/* integer arguments %[diouxX] */
	enum { OCT, DEC, HEX } base;/* base for [diouxX] conversion */
	int dprec;		/* a copy of prec if [diouxX], 0 otherwise */
	int realsz;		/* field size expanded by dprec */
	int size;		/* size of converted field or string */
	char *xdigs = NULL;	/* digits for [xX] conversion */
 200441c:	e03fb715 	stw	zero,-292(fp)
	char ox[2];		/* space for 0x hex-prefix */
#ifdef _MB_CAPABLE
	wchar_t wc;
	mbstate_t state;        /* mbtowc calls from library must not change state */
#endif
	char *malloc_buf = NULL;/* handy pointer for malloced buffers */
 2004420:	e03fb815 	stw	zero,-288(fp)
	    (u_long)GET_ARG (N, ap, u_int))
#endif

#ifndef STRING_ONLY
	/* Initialize std streams if not dealing with sprintf family.  */
	CHECK_INIT (data, fp);
 2004424:	e0bfe617 	ldw	r2,-104(fp)
 2004428:	e0bfbd15 	stw	r2,-268(fp)
 200442c:	e0bfbd17 	ldw	r2,-268(fp)
 2004430:	10000526 	beq	r2,zero,2004448 <___vfprintf_internal_r+0x98>
 2004434:	e0bfbd17 	ldw	r2,-268(fp)
 2004438:	10800e17 	ldw	r2,56(r2)
 200443c:	1000021e 	bne	r2,zero,2004448 <___vfprintf_internal_r+0x98>
 2004440:	e13fbd17 	ldw	r4,-268(fp)
 2004444:	200901c0 	call	200901c <__sinit>
	_newlib_flockfile_start (fp);

	ORIENT(fp, -1);
 2004448:	e0bfe717 	ldw	r2,-100(fp)
 200444c:	1080030b 	ldhu	r2,12(r2)
 2004450:	10bfffcc 	andi	r2,r2,65535
 2004454:	1088000c 	andi	r2,r2,8192
 2004458:	10000c1e 	bne	r2,zero,200448c <___vfprintf_internal_r+0xdc>
 200445c:	e0bfe717 	ldw	r2,-100(fp)
 2004460:	1080030b 	ldhu	r2,12(r2)
 2004464:	10880014 	ori	r2,r2,8192
 2004468:	1007883a 	mov	r3,r2
 200446c:	e0bfe717 	ldw	r2,-100(fp)
 2004470:	10c0030d 	sth	r3,12(r2)
 2004474:	e0bfe717 	ldw	r2,-100(fp)
 2004478:	10c01917 	ldw	r3,100(r2)
 200447c:	00b7ffc4 	movi	r2,-8193
 2004480:	1886703a 	and	r3,r3,r2
 2004484:	e0bfe717 	ldw	r2,-100(fp)
 2004488:	10c01915 	stw	r3,100(r2)

	/* sorry, fprintf(read_only_file, "") returns EOF, not 0 */
	if (cantwrite (data, fp)) {
 200448c:	e0bfe717 	ldw	r2,-100(fp)
 2004490:	1080030b 	ldhu	r2,12(r2)
 2004494:	10bfffcc 	andi	r2,r2,65535
 2004498:	1080020c 	andi	r2,r2,8
 200449c:	10000326 	beq	r2,zero,20044ac <___vfprintf_internal_r+0xfc>
 20044a0:	e0bfe717 	ldw	r2,-100(fp)
 20044a4:	10800417 	ldw	r2,16(r2)
 20044a8:	1000061e 	bne	r2,zero,20044c4 <___vfprintf_internal_r+0x114>
 20044ac:	e17fe717 	ldw	r5,-100(fp)
 20044b0:	e13fe617 	ldw	r4,-104(fp)
 20044b4:	20067cc0 	call	20067cc <__swsetup_r>
 20044b8:	10000226 	beq	r2,zero,20044c4 <___vfprintf_internal_r+0x114>
		_newlib_flockfile_exit (fp);
		return (EOF);
 20044bc:	00bfffc4 	movi	r2,-1
 20044c0:	0007e206 	br	200644c <___vfprintf_internal_r+0x209c>
	}

#ifdef _UNBUF_STREAM_OPT
	/* optimise fprintf(stderr) (and other unbuffered Unix files) */
	if ((fp->_flags & (__SNBF|__SWR|__SRW)) == (__SNBF|__SWR) &&
 20044c4:	e0bfe717 	ldw	r2,-100(fp)
 20044c8:	1080030b 	ldhu	r2,12(r2)
 20044cc:	10bfffcc 	andi	r2,r2,65535
 20044d0:	1080068c 	andi	r2,r2,26
 20044d4:	10800298 	cmpnei	r2,r2,10
 20044d8:	10000c1e 	bne	r2,zero,200450c <___vfprintf_internal_r+0x15c>
	    fp->_file >= 0) {
 20044dc:	e0bfe717 	ldw	r2,-100(fp)
 20044e0:	1080038b 	ldhu	r2,14(r2)
		return (EOF);
	}

#ifdef _UNBUF_STREAM_OPT
	/* optimise fprintf(stderr) (and other unbuffered Unix files) */
	if ((fp->_flags & (__SNBF|__SWR|__SRW)) == (__SNBF|__SWR) &&
 20044e4:	10bfffcc 	andi	r2,r2,65535
 20044e8:	10a0001c 	xori	r2,r2,32768
 20044ec:	10a00004 	addi	r2,r2,-32768
 20044f0:	10000616 	blt	r2,zero,200450c <___vfprintf_internal_r+0x15c>
	    fp->_file >= 0) {
		_newlib_flockfile_exit (fp);
		return (__sbprintf (data, fp, fmt0, ap));
 20044f4:	e1ffe917 	ldw	r7,-92(fp)
 20044f8:	e1bfe817 	ldw	r6,-96(fp)
 20044fc:	e17fe717 	ldw	r5,-100(fp)
 2004500:	e13fe617 	ldw	r4,-104(fp)
 2004504:	20042700 	call	2004270 <__sbprintf>
 2004508:	0007d006 	br	200644c <___vfprintf_internal_r+0x209c>
		}
		fp->_bf._size = 64;
        }
#endif /* STRING_ONLY */

	fmt = (char *)fmt0;
 200450c:	e57fe817 	ldw	r21,-96(fp)
#ifdef _FVWRITE_IN_STREAMIO
	uio.uio_iov = iovp = iov;
 2004510:	e47fcb04 	addi	r17,fp,-212
 2004514:	e47fc815 	stw	r17,-224(fp)
	uio.uio_resid = 0;
 2004518:	e03fca15 	stw	zero,-216(fp)
	uio.uio_iovcnt = 0;
 200451c:	e03fc915 	stw	zero,-220(fp)
#endif
	ret = 0;
 2004520:	e03fac15 	stw	zero,-336(fp)

	/*
	 * Scan the format for conversions (`%' character).
	 */
	for (;;) {
	        cp = fmt;
 2004524:	a825883a 	mov	r18,r21
                    else if (wc == '%')
                        break;
                    fmt += n;
		}
#else
                while (*fmt != '\0' && *fmt != '%')
 2004528:	00000106 	br	2004530 <___vfprintf_internal_r+0x180>
                    fmt += 1;
 200452c:	ad400044 	addi	r21,r21,1
                    else if (wc == '%')
                        break;
                    fmt += n;
		}
#else
                while (*fmt != '\0' && *fmt != '%')
 2004530:	a8800003 	ldbu	r2,0(r21)
 2004534:	10803fcc 	andi	r2,r2,255
 2004538:	1080201c 	xori	r2,r2,128
 200453c:	10bfe004 	addi	r2,r2,-128
 2004540:	10000626 	beq	r2,zero,200455c <___vfprintf_internal_r+0x1ac>
 2004544:	a8800003 	ldbu	r2,0(r21)
 2004548:	10803fcc 	andi	r2,r2,255
 200454c:	1080201c 	xori	r2,r2,128
 2004550:	10bfe004 	addi	r2,r2,-128
 2004554:	10800958 	cmpnei	r2,r2,37
 2004558:	103ff41e 	bne	r2,zero,200452c <___vfprintf_internal_r+0x17c>
                    fmt += 1;
#endif
		if ((m = fmt - cp) != 0) {
 200455c:	a807883a 	mov	r3,r21
 2004560:	9005883a 	mov	r2,r18
 2004564:	18a1c83a 	sub	r16,r3,r2
 2004568:	80001826 	beq	r16,zero,20045cc <___vfprintf_internal_r+0x21c>
			PRINT (cp, m);
 200456c:	8c800015 	stw	r18,0(r17)
 2004570:	8005883a 	mov	r2,r16
 2004574:	88800115 	stw	r2,4(r17)
 2004578:	e0bfca17 	ldw	r2,-216(fp)
 200457c:	8007883a 	mov	r3,r16
 2004580:	10c5883a 	add	r2,r2,r3
 2004584:	e0bfca15 	stw	r2,-216(fp)
 2004588:	8c400204 	addi	r17,r17,8
 200458c:	e0bfc917 	ldw	r2,-220(fp)
 2004590:	10800044 	addi	r2,r2,1
 2004594:	e0bfc915 	stw	r2,-220(fp)
 2004598:	e0bfc917 	ldw	r2,-220(fp)
 200459c:	10800210 	cmplti	r2,r2,8
 20045a0:	1000071e 	bne	r2,zero,20045c0 <___vfprintf_internal_r+0x210>
 20045a4:	e0bfc804 	addi	r2,fp,-224
 20045a8:	100d883a 	mov	r6,r2
 20045ac:	e17fe717 	ldw	r5,-100(fp)
 20045b0:	e13fe617 	ldw	r4,-104(fp)
 20045b4:	200e5840 	call	200e584 <__sprint_r>
 20045b8:	10074d1e 	bne	r2,zero,20062f0 <___vfprintf_internal_r+0x1f40>
 20045bc:	e47fcb04 	addi	r17,fp,-212
			ret += m;
 20045c0:	e0bfac17 	ldw	r2,-336(fp)
 20045c4:	1405883a 	add	r2,r2,r16
 20045c8:	e0bfac15 	stw	r2,-336(fp)
		}
#ifdef _MB_CAPABLE
		if (n <= 0)
                    goto done;
#else
                if (*fmt == '\0')
 20045cc:	a8800003 	ldbu	r2,0(r21)
 20045d0:	10803fcc 	andi	r2,r2,255
 20045d4:	1080201c 	xori	r2,r2,128
 20045d8:	10bfe004 	addi	r2,r2,-128
 20045dc:	10073626 	beq	r2,zero,20062b8 <___vfprintf_internal_r+0x1f08>
                    goto done;
#endif
		fmt_anchor = fmt;
 20045e0:	e57fbe15 	stw	r21,-264(fp)
		fmt++;		/* skip over '%' */
 20045e4:	ad400044 	addi	r21,r21,1

		flags = 0;
 20045e8:	0027883a 	mov	r19,zero
		dprec = 0;
 20045ec:	e03fb415 	stw	zero,-304(fp)
		width = 0;
 20045f0:	e03fad15 	stw	zero,-332(fp)
		prec = -1;
 20045f4:	00bfffc4 	movi	r2,-1
 20045f8:	e0bfae15 	stw	r2,-328(fp)
		sign = '\0';
 20045fc:	e03fc105 	stb	zero,-252(fp)
#ifdef FLOATING_POINT
		lead = 0;
 2004600:	e03fb015 	stw	zero,-320(fp)
#ifndef _NO_POS_ARGS
		N = arg_index;
		is_pos_arg = 0;
#endif

rflag:		ch = *fmt++;
 2004604:	a805883a 	mov	r2,r21
 2004608:	15400044 	addi	r21,r2,1
 200460c:	10800003 	ldbu	r2,0(r2)
 2004610:	15003fcc 	andi	r20,r2,255
 2004614:	a500201c 	xori	r20,r20,128
 2004618:	a53fe004 	addi	r20,r20,-128
reswitch:	switch (ch) {
 200461c:	a0bff804 	addi	r2,r20,-32
 2004620:	10c01668 	cmpgeui	r3,r2,89
 2004624:	1803491e 	bne	r3,zero,200534c <___vfprintf_internal_r+0xf9c>
 2004628:	100690ba 	slli	r3,r2,2
 200462c:	00808034 	movhi	r2,512
 2004630:	10919004 	addi	r2,r2,17984
 2004634:	1885883a 	add	r2,r3,r2
 2004638:	10800017 	ldw	r2,0(r2)
 200463c:	1000683a 	jmp	r2
 2004640:	020047a4 	muli	r8,zero,286
 2004644:	0200534c 	andi	r8,zero,333
 2004648:	0200534c 	andi	r8,zero,333
 200464c:	020047c4 	movi	r8,287
 2004650:	0200534c 	andi	r8,zero,333
 2004654:	0200534c 	andi	r8,zero,333
 2004658:	0200534c 	andi	r8,zero,333
 200465c:	0200534c 	andi	r8,zero,333
 2004660:	0200534c 	andi	r8,zero,333
 2004664:	0200534c 	andi	r8,zero,333
 2004668:	020047cc 	andi	r8,zero,287
 200466c:	02004800 	call	200480 <__alt_mem_mem_Nios_PI+0x480>
 2004670:	0200534c 	andi	r8,zero,333
 2004674:	020047f8 	rdprs	r8,zero,287
 2004678:	0200480c 	andi	r8,zero,288
 200467c:	0200534c 	andi	r8,zero,333
 2004680:	020048a0 	cmpeqi	r8,zero,290
 2004684:	020048a8 	cmpgeui	r8,zero,290
 2004688:	020048a8 	cmpgeui	r8,zero,290
 200468c:	020048a8 	cmpgeui	r8,zero,290
 2004690:	020048a8 	cmpgeui	r8,zero,290
 2004694:	020048a8 	cmpgeui	r8,zero,290
 2004698:	020048a8 	cmpgeui	r8,zero,290
 200469c:	020048a8 	cmpgeui	r8,zero,290
 20046a0:	020048a8 	cmpgeui	r8,zero,290
 20046a4:	020048a8 	cmpgeui	r8,zero,290
 20046a8:	0200534c 	andi	r8,zero,333
 20046ac:	0200534c 	andi	r8,zero,333
 20046b0:	0200534c 	andi	r8,zero,333
 20046b4:	0200534c 	andi	r8,zero,333
 20046b8:	0200534c 	andi	r8,zero,333
 20046bc:	0200534c 	andi	r8,zero,333
 20046c0:	0200534c 	andi	r8,zero,333
 20046c4:	0200534c 	andi	r8,zero,333
 20046c8:	0200534c 	andi	r8,zero,333
 20046cc:	0200534c 	andi	r8,zero,333
 20046d0:	02004950 	cmplti	r8,zero,293
 20046d4:	02004a50 	cmplti	r8,zero,297
 20046d8:	0200534c 	andi	r8,zero,333
 20046dc:	02004a50 	cmplti	r8,zero,297
 20046e0:	0200534c 	andi	r8,zero,333
 20046e4:	0200534c 	andi	r8,zero,333
 20046e8:	0200534c 	andi	r8,zero,333
 20046ec:	0200534c 	andi	r8,zero,333
 20046f0:	020048e4 	muli	r8,zero,291
 20046f4:	0200534c 	andi	r8,zero,333
 20046f8:	0200534c 	andi	r8,zero,333
 20046fc:	02004dec 	andhi	r8,zero,311
 2004700:	0200534c 	andi	r8,zero,333
 2004704:	0200534c 	andi	r8,zero,333
 2004708:	0200534c 	andi	r8,zero,333
 200470c:	0200534c 	andi	r8,zero,333
 2004710:	0200534c 	andi	r8,zero,333
 2004714:	02004f68 	cmpgeui	r8,zero,317
 2004718:	0200534c 	andi	r8,zero,333
 200471c:	0200534c 	andi	r8,zero,333
 2004720:	02005028 	cmpgeui	r8,zero,320
 2004724:	0200534c 	andi	r8,zero,333
 2004728:	0200534c 	andi	r8,zero,333
 200472c:	0200534c 	andi	r8,zero,333
 2004730:	0200534c 	andi	r8,zero,333
 2004734:	0200534c 	andi	r8,zero,333
 2004738:	0200534c 	andi	r8,zero,333
 200473c:	0200534c 	andi	r8,zero,333
 2004740:	0200534c 	andi	r8,zero,333
 2004744:	0200534c 	andi	r8,zero,333
 2004748:	0200534c 	andi	r8,zero,333
 200474c:	02004928 	cmpgeui	r8,zero,292
 2004750:	02004954 	movui	r8,293
 2004754:	02004a50 	cmplti	r8,zero,297
 2004758:	02004a50 	cmplti	r8,zero,297
 200475c:	02004a50 	cmplti	r8,zero,297
 2004760:	020048ec 	andhi	r8,zero,291
 2004764:	02004954 	movui	r8,293
 2004768:	0200534c 	andi	r8,zero,333
 200476c:	0200534c 	andi	r8,zero,333
 2004770:	020048f4 	movhi	r8,291
 2004774:	0200534c 	andi	r8,zero,333
 2004778:	02004d4c 	andi	r8,zero,309
 200477c:	02004df0 	cmpltui	r8,zero,311
 2004780:	02004e90 	cmplti	r8,zero,314
 2004784:	02004920 	cmpeqi	r8,zero,292
 2004788:	0200534c 	andi	r8,zero,333
 200478c:	02004ed8 	cmpnei	r8,zero,315
 2004790:	0200534c 	andi	r8,zero,333
 2004794:	02004f6c 	andhi	r8,zero,317
 2004798:	0200534c 	andi	r8,zero,333
 200479c:	0200534c 	andi	r8,zero,333
 20047a0:	02005038 	rdprs	r8,zero,320
			/*
			 * ``If the space and + flags both appear, the space
			 * flag will be ignored.''
			 *	-- ANSI X3J11
			 */
			if (!sign)
 20047a4:	e0bfc103 	ldbu	r2,-252(fp)
 20047a8:	10803fcc 	andi	r2,r2,255
 20047ac:	1080201c 	xori	r2,r2,128
 20047b0:	10bfe004 	addi	r2,r2,-128
 20047b4:	103f931e 	bne	r2,zero,2004604 <___vfprintf_internal_r+0x254>
				sign = ' ';
 20047b8:	00800804 	movi	r2,32
 20047bc:	e0bfc105 	stb	r2,-252(fp)
			goto rflag;
 20047c0:	003f9006 	br	2004604 <___vfprintf_internal_r+0x254>
		case '#':
			flags |= ALT;
 20047c4:	9cc00054 	ori	r19,r19,1
			goto rflag;
 20047c8:	003f8e06 	br	2004604 <___vfprintf_internal_r+0x254>
			 * ``A negative field width argument is taken as a
			 * - flag followed by a positive field width.''
			 *	-- ANSI X3J11
			 * They don't exclude field widths read from args.
			 */
			width = GET_ARG (n, ap, int);
 20047cc:	e0bfe917 	ldw	r2,-92(fp)
 20047d0:	10c00104 	addi	r3,r2,4
 20047d4:	e0ffe915 	stw	r3,-92(fp)
 20047d8:	10800017 	ldw	r2,0(r2)
 20047dc:	e0bfad15 	stw	r2,-332(fp)
#ifndef _NO_POS_ARGS
			is_pos_arg = old_is_pos_arg;
#endif
			if (width >= 0)
 20047e0:	e0bfad17 	ldw	r2,-332(fp)
 20047e4:	10000116 	blt	r2,zero,20047ec <___vfprintf_internal_r+0x43c>
				goto rflag;
 20047e8:	003f8606 	br	2004604 <___vfprintf_internal_r+0x254>
			width = -width;
 20047ec:	e0bfad17 	ldw	r2,-332(fp)
 20047f0:	0085c83a 	sub	r2,zero,r2
 20047f4:	e0bfad15 	stw	r2,-332(fp)
			/* FALLTHROUGH */
		case '-':
			flags |= LADJUST;
 20047f8:	9cc00114 	ori	r19,r19,4
			goto rflag;
 20047fc:	003f8106 	br	2004604 <___vfprintf_internal_r+0x254>
		case '+':
			sign = '+';
 2004800:	00800ac4 	movi	r2,43
 2004804:	e0bfc105 	stb	r2,-252(fp)
			goto rflag;
 2004808:	003f7e06 	br	2004604 <___vfprintf_internal_r+0x254>
		case '.':
			if ((ch = *fmt++) == '*') {
 200480c:	a805883a 	mov	r2,r21
 2004810:	15400044 	addi	r21,r2,1
 2004814:	10800003 	ldbu	r2,0(r2)
 2004818:	15003fcc 	andi	r20,r2,255
 200481c:	a500201c 	xori	r20,r20,128
 2004820:	a53fe004 	addi	r20,r20,-128
 2004824:	a0800a98 	cmpnei	r2,r20,42
 2004828:	10000a1e 	bne	r2,zero,2004854 <___vfprintf_internal_r+0x4a4>
						fmt = old_fmt;
						goto rflag;
					}
				}
#endif /* !_NO_POS_ARGS */
				prec = GET_ARG (n, ap, int);
 200482c:	e0bfe917 	ldw	r2,-92(fp)
 2004830:	10c00104 	addi	r3,r2,4
 2004834:	e0ffe915 	stw	r3,-92(fp)
 2004838:	10800017 	ldw	r2,0(r2)
 200483c:	e0bfae15 	stw	r2,-328(fp)
#ifndef _NO_POS_ARGS
				is_pos_arg = old_is_pos_arg;
#endif
				if (prec < 0)
 2004840:	e0bfae17 	ldw	r2,-328(fp)
 2004844:	103f6f0e 	bge	r2,zero,2004604 <___vfprintf_internal_r+0x254>
					prec = -1;
 2004848:	00bfffc4 	movi	r2,-1
 200484c:	e0bfae15 	stw	r2,-328(fp)
				goto rflag;
 2004850:	003f6c06 	br	2004604 <___vfprintf_internal_r+0x254>
			}
			n = 0;
 2004854:	0021883a 	mov	r16,zero
			while (is_digit (ch)) {
 2004858:	00000906 	br	2004880 <___vfprintf_internal_r+0x4d0>
				n = 10 * n + to_digit (ch);
 200485c:	80c002a4 	muli	r3,r16,10
 2004860:	a0bff404 	addi	r2,r20,-48
 2004864:	18a1883a 	add	r16,r3,r2
				ch = *fmt++;
 2004868:	a805883a 	mov	r2,r21
 200486c:	15400044 	addi	r21,r2,1
 2004870:	10800003 	ldbu	r2,0(r2)
 2004874:	15003fcc 	andi	r20,r2,255
 2004878:	a500201c 	xori	r20,r20,128
 200487c:	a53fe004 	addi	r20,r20,-128
				if (prec < 0)
					prec = -1;
				goto rflag;
			}
			n = 0;
			while (is_digit (ch)) {
 2004880:	a0bff404 	addi	r2,r20,-48
 2004884:	108002b0 	cmpltui	r2,r2,10
 2004888:	103ff41e 	bne	r2,zero,200485c <___vfprintf_internal_r+0x4ac>
				n = 10 * n + to_digit (ch);
				ch = *fmt++;
			}
			prec = n < 0 ? -1 : n;
 200488c:	8005883a 	mov	r2,r16
 2004890:	1000010e 	bge	r2,zero,2004898 <___vfprintf_internal_r+0x4e8>
 2004894:	00bfffc4 	movi	r2,-1
 2004898:	e0bfae15 	stw	r2,-328(fp)
			goto reswitch;
 200489c:	003f5f06 	br	200461c <___vfprintf_internal_r+0x26c>
			/*
			 * ``Note that 0 is taken as a flag, not as the
			 * beginning of a field width.''
			 *	-- ANSI X3J11
			 */
			flags |= ZEROPAD;
 20048a0:	9cc02014 	ori	r19,r19,128
			goto rflag;
 20048a4:	003f5706 	br	2004604 <___vfprintf_internal_r+0x254>
		case '1': case '2': case '3': case '4':
		case '5': case '6': case '7': case '8': case '9':
			n = 0;
 20048a8:	0021883a 	mov	r16,zero
			do {
				n = 10 * n + to_digit (ch);
 20048ac:	80c002a4 	muli	r3,r16,10
 20048b0:	a0bff404 	addi	r2,r20,-48
 20048b4:	18a1883a 	add	r16,r3,r2
				ch = *fmt++;
 20048b8:	a805883a 	mov	r2,r21
 20048bc:	15400044 	addi	r21,r2,1
 20048c0:	10800003 	ldbu	r2,0(r2)
 20048c4:	15003fcc 	andi	r20,r2,255
 20048c8:	a500201c 	xori	r20,r20,128
 20048cc:	a53fe004 	addi	r20,r20,-128
			} while (is_digit (ch));
 20048d0:	a0bff404 	addi	r2,r20,-48
 20048d4:	108002b0 	cmpltui	r2,r2,10
 20048d8:	103ff41e 	bne	r2,zero,20048ac <___vfprintf_internal_r+0x4fc>
				}
				else
					goto error;
			}
#endif /* !_NO_POS_ARGS */
			width = n;
 20048dc:	e43fad15 	stw	r16,-332(fp)
			goto reswitch;
 20048e0:	003f4e06 	br	200461c <___vfprintf_internal_r+0x26c>
#ifdef FLOATING_POINT
		case 'L':
			flags |= LONGDBL;
 20048e4:	9cc00214 	ori	r19,r19,8
			goto rflag;
 20048e8:	003f4606 	br	2004604 <___vfprintf_internal_r+0x254>
			if (*fmt == 'h') {
				fmt++;
				flags |= CHARINT;
			} else
#endif
				flags |= SHORTINT;
 20048ec:	9cc01014 	ori	r19,r19,64
			goto rflag;
 20048f0:	003f4406 	br	2004604 <___vfprintf_internal_r+0x254>
		case 'l':
#if defined _WANT_IO_C99_FORMATS || !defined _NO_LONGLONG
			if (*fmt == 'l') {
 20048f4:	a8800003 	ldbu	r2,0(r21)
 20048f8:	10803fcc 	andi	r2,r2,255
 20048fc:	1080201c 	xori	r2,r2,128
 2004900:	10bfe004 	addi	r2,r2,-128
 2004904:	10801b18 	cmpnei	r2,r2,108
 2004908:	1000031e 	bne	r2,zero,2004918 <___vfprintf_internal_r+0x568>
				fmt++;
 200490c:	ad400044 	addi	r21,r21,1
				flags |= QUADINT;
 2004910:	9cc00814 	ori	r19,r19,32
 2004914:	003f3b06 	br	2004604 <___vfprintf_internal_r+0x254>
			} else
#endif
				flags |= LONGINT;
 2004918:	9cc00414 	ori	r19,r19,16
			goto rflag;
 200491c:	003f3906 	br	2004604 <___vfprintf_internal_r+0x254>
		case 'q': /* extension */
			flags |= QUADINT;
 2004920:	9cc00814 	ori	r19,r19,32
			goto rflag;
 2004924:	003f3706 	br	2004604 <___vfprintf_internal_r+0x254>
		    flags |= QUADINT;
		  goto rflag;
		case 'C':
#endif /* _WANT_IO_C99_FORMATS */
		case 'c':
			cp = buf;
 2004928:	e4bfdb04 	addi	r18,fp,-148
				}
			}
			else
#endif /* _MB_CAPABLE */
			{
				*cp = GET_ARG (N, ap, int);
 200492c:	e0bfe917 	ldw	r2,-92(fp)
 2004930:	10c00104 	addi	r3,r2,4
 2004934:	e0ffe915 	stw	r3,-92(fp)
 2004938:	10800017 	ldw	r2,0(r2)
 200493c:	90800005 	stb	r2,0(r18)
				size = 1;
 2004940:	00800044 	movi	r2,1
 2004944:	e0bfb615 	stw	r2,-296(fp)
			}
			sign = '\0';
 2004948:	e03fc105 	stb	zero,-252(fp)
			break;
 200494c:	00028806 	br	2005370 <___vfprintf_internal_r+0xfc0>
		case 'D':  /* extension */
			flags |= LONGINT;
 2004950:	9cc00414 	ori	r19,r19,16
			/*FALLTHROUGH*/
		case 'd':
		case 'i':
			_uquad = SARG ();
 2004954:	9880080c 	andi	r2,r19,32
 2004958:	10000826 	beq	r2,zero,200497c <___vfprintf_internal_r+0x5cc>
 200495c:	e13fe917 	ldw	r4,-92(fp)
 2004960:	20800204 	addi	r2,r4,8
 2004964:	e0bfe915 	stw	r2,-92(fp)
 2004968:	20800017 	ldw	r2,0(r4)
 200496c:	20c00117 	ldw	r3,4(r4)
 2004970:	e0bfea15 	stw	r2,-88(fp)
 2004974:	e0ffeb15 	stw	r3,-84(fp)
 2004978:	00001e06 	br	20049f4 <___vfprintf_internal_r+0x644>
 200497c:	9880040c 	andi	r2,r19,16
 2004980:	10000826 	beq	r2,zero,20049a4 <___vfprintf_internal_r+0x5f4>
 2004984:	e0bfe917 	ldw	r2,-92(fp)
 2004988:	10c00104 	addi	r3,r2,4
 200498c:	e0ffe915 	stw	r3,-92(fp)
 2004990:	10800017 	ldw	r2,0(r2)
 2004994:	e0bfea15 	stw	r2,-88(fp)
 2004998:	1005d7fa 	srai	r2,r2,31
 200499c:	e0bfeb15 	stw	r2,-84(fp)
 20049a0:	00001406 	br	20049f4 <___vfprintf_internal_r+0x644>
 20049a4:	9880100c 	andi	r2,r19,64
 20049a8:	10000b26 	beq	r2,zero,20049d8 <___vfprintf_internal_r+0x628>
 20049ac:	e0bfe917 	ldw	r2,-92(fp)
 20049b0:	10c00104 	addi	r3,r2,4
 20049b4:	e0ffe915 	stw	r3,-92(fp)
 20049b8:	10800017 	ldw	r2,0(r2)
 20049bc:	10bfffcc 	andi	r2,r2,65535
 20049c0:	10a0001c 	xori	r2,r2,32768
 20049c4:	10a00004 	addi	r2,r2,-32768
 20049c8:	e0bfea15 	stw	r2,-88(fp)
 20049cc:	1005d7fa 	srai	r2,r2,31
 20049d0:	e0bfeb15 	stw	r2,-84(fp)
 20049d4:	00000706 	br	20049f4 <___vfprintf_internal_r+0x644>
 20049d8:	e0bfe917 	ldw	r2,-92(fp)
 20049dc:	10c00104 	addi	r3,r2,4
 20049e0:	e0ffe915 	stw	r3,-92(fp)
 20049e4:	10800017 	ldw	r2,0(r2)
 20049e8:	e0bfea15 	stw	r2,-88(fp)
 20049ec:	1005d7fa 	srai	r2,r2,31
 20049f0:	e0bfeb15 	stw	r2,-84(fp)
 20049f4:	e0bfea17 	ldw	r2,-88(fp)
 20049f8:	e0bfb115 	stw	r2,-316(fp)
 20049fc:	e0ffeb17 	ldw	r3,-84(fp)
 2004a00:	e0ffb215 	stw	r3,-312(fp)
#ifndef _NO_LONGLONG
			if ((quad_t)_uquad < 0)
 2004a04:	e0bfb117 	ldw	r2,-316(fp)
 2004a08:	e0ffb217 	ldw	r3,-312(fp)
 2004a0c:	18000d0e 	bge	r3,zero,2004a44 <___vfprintf_internal_r+0x694>
#else
			if ((long) _uquad < 0)
#endif
			{

				_uquad = -_uquad;
 2004a10:	000f883a 	mov	r7,zero
 2004a14:	0011883a 	mov	r8,zero
 2004a18:	e13fb117 	ldw	r4,-316(fp)
 2004a1c:	e17fb217 	ldw	r5,-312(fp)
 2004a20:	3905c83a 	sub	r2,r7,r4
 2004a24:	388d803a 	cmpltu	r6,r7,r2
 2004a28:	4147c83a 	sub	r3,r8,r5
 2004a2c:	1989c83a 	sub	r4,r3,r6
 2004a30:	2007883a 	mov	r3,r4
 2004a34:	e0bfb115 	stw	r2,-316(fp)
 2004a38:	e0ffb215 	stw	r3,-312(fp)
				sign = '-';
 2004a3c:	00800b44 	movi	r2,45
 2004a40:	e0bfc105 	stb	r2,-252(fp)
			}
			base = DEC;
 2004a44:	00800044 	movi	r2,1
 2004a48:	e0bfb305 	stb	r2,-308(fp)
			goto number;
 2004a4c:	0001b706 	br	200512c <___vfprintf_internal_r+0xd7c>
		case 'E':
		case 'f':
		case 'g':
		case 'G':
# ifdef _NO_LONGDBL
			if (flags & LONGDBL) {
 2004a50:	9880020c 	andi	r2,r19,8
 2004a54:	10000826 	beq	r2,zero,2004a78 <___vfprintf_internal_r+0x6c8>
				_fpvalue = (double) GET_ARG (N, ap, _LONG_DOUBLE);
 2004a58:	e13fe917 	ldw	r4,-92(fp)
 2004a5c:	20800204 	addi	r2,r4,8
 2004a60:	e0bfe915 	stw	r2,-92(fp)
 2004a64:	20800017 	ldw	r2,0(r4)
 2004a68:	20c00117 	ldw	r3,4(r4)
 2004a6c:	e0bfc215 	stw	r2,-248(fp)
 2004a70:	e0ffc315 	stw	r3,-244(fp)
 2004a74:	00000706 	br	2004a94 <___vfprintf_internal_r+0x6e4>
			} else {
				_fpvalue = GET_ARG (N, ap, double);
 2004a78:	e13fe917 	ldw	r4,-92(fp)
 2004a7c:	20800204 	addi	r2,r4,8
 2004a80:	e0bfe915 	stw	r2,-92(fp)
 2004a84:	20800017 	ldw	r2,0(r4)
 2004a88:	20c00117 	ldw	r3,4(r4)
 2004a8c:	e0bfc215 	stw	r2,-248(fp)
 2004a90:	e0ffc315 	stw	r3,-244(fp)

			   If the output is infinite or NaN, leading
			   zeros are not permitted.  Otherwise, scanf
			   could not read what printf wrote.
			 */
			if (isinf (_fpvalue)) {
 2004a94:	e0bfc217 	ldw	r2,-248(fp)
 2004a98:	e0ffc317 	ldw	r3,-244(fp)
 2004a9c:	1009883a 	mov	r4,r2
 2004aa0:	180b883a 	mov	r5,r3
 2004aa4:	20016600 	call	2001660 <__fpclassifyd>
 2004aa8:	10800058 	cmpnei	r2,r2,1
 2004aac:	1000161e 	bne	r2,zero,2004b08 <___vfprintf_internal_r+0x758>
				if (_fpvalue < 0)
 2004ab0:	e0bfc217 	ldw	r2,-248(fp)
 2004ab4:	e0ffc317 	ldw	r3,-244(fp)
 2004ab8:	000d883a 	mov	r6,zero
 2004abc:	000f883a 	mov	r7,zero
 2004ac0:	1009883a 	mov	r4,r2
 2004ac4:	180b883a 	mov	r5,r3
 2004ac8:	2002ac40 	call	2002ac4 <__ledf2>
 2004acc:	1000020e 	bge	r2,zero,2004ad8 <___vfprintf_internal_r+0x728>
					sign = '-';
 2004ad0:	00800b44 	movi	r2,45
 2004ad4:	e0bfc105 	stb	r2,-252(fp)
				if (ch <= 'G') /* 'A', 'E', 'F', or 'G' */
 2004ad8:	a0801208 	cmpgei	r2,r20,72
 2004adc:	1000031e 	bne	r2,zero,2004aec <___vfprintf_internal_r+0x73c>
					cp = "INF";
 2004ae0:	048080b4 	movhi	r18,514
 2004ae4:	94b25304 	addi	r18,r18,-14004
 2004ae8:	00000206 	br	2004af4 <___vfprintf_internal_r+0x744>
				else
					cp = "inf";
 2004aec:	048080b4 	movhi	r18,514
 2004af0:	94b25404 	addi	r18,r18,-14000
				size = 3;
 2004af4:	008000c4 	movi	r2,3
 2004af8:	e0bfb615 	stw	r2,-296(fp)
				flags &= ~ZEROPAD;
 2004afc:	00bfdfc4 	movi	r2,-129
 2004b00:	98a6703a 	and	r19,r19,r2
				break;
 2004b04:	00021a06 	br	2005370 <___vfprintf_internal_r+0xfc0>
			}
			if (isnan (_fpvalue)) {
 2004b08:	e0bfc217 	ldw	r2,-248(fp)
 2004b0c:	e0ffc317 	ldw	r3,-244(fp)
 2004b10:	1009883a 	mov	r4,r2
 2004b14:	180b883a 	mov	r5,r3
 2004b18:	20016600 	call	2001660 <__fpclassifyd>
 2004b1c:	10000c1e 	bne	r2,zero,2004b50 <___vfprintf_internal_r+0x7a0>
				if (ch <= 'G') /* 'A', 'E', 'F', or 'G' */
 2004b20:	a0801208 	cmpgei	r2,r20,72
 2004b24:	1000031e 	bne	r2,zero,2004b34 <___vfprintf_internal_r+0x784>
					cp = "NAN";
 2004b28:	048080b4 	movhi	r18,514
 2004b2c:	94b25504 	addi	r18,r18,-13996
 2004b30:	00000206 	br	2004b3c <___vfprintf_internal_r+0x78c>
				else
					cp = "nan";
 2004b34:	048080b4 	movhi	r18,514
 2004b38:	94b25604 	addi	r18,r18,-13992
				size = 3;
 2004b3c:	008000c4 	movi	r2,3
 2004b40:	e0bfb615 	stw	r2,-296(fp)
				flags &= ~ZEROPAD;
 2004b44:	00bfdfc4 	movi	r2,-129
 2004b48:	98a6703a 	and	r19,r19,r2
				break;
 2004b4c:	00020806 	br	2005370 <___vfprintf_internal_r+0xfc0>
				  }
				else
				  cp = buf;
			} else
# endif /* _WANT_IO_C99_FORMATS */
			if (prec == -1) {
 2004b50:	e0bfae17 	ldw	r2,-328(fp)
 2004b54:	10bfffd8 	cmpnei	r2,r2,-1
 2004b58:	1000031e 	bne	r2,zero,2004b68 <___vfprintf_internal_r+0x7b8>
				prec = DEFPREC;
 2004b5c:	00800184 	movi	r2,6
 2004b60:	e0bfae15 	stw	r2,-328(fp)
 2004b64:	00000806 	br	2004b88 <___vfprintf_internal_r+0x7d8>
			} else if ((ch == 'g' || ch == 'G') && prec == 0) {
 2004b68:	a08019e0 	cmpeqi	r2,r20,103
 2004b6c:	1000021e 	bne	r2,zero,2004b78 <___vfprintf_internal_r+0x7c8>
 2004b70:	a08011d8 	cmpnei	r2,r20,71
 2004b74:	1000041e 	bne	r2,zero,2004b88 <___vfprintf_internal_r+0x7d8>
 2004b78:	e0bfae17 	ldw	r2,-328(fp)
 2004b7c:	1000021e 	bne	r2,zero,2004b88 <___vfprintf_internal_r+0x7d8>
				prec = 1;
 2004b80:	00800044 	movi	r2,1
 2004b84:	e0bfae15 	stw	r2,-328(fp)
			}

			flags |= FPT;
 2004b88:	9cc04014 	ori	r19,r19,256

			cp = cvt (data, _fpvalue, prec, flags, &softsign,
 2004b8c:	e0bfc217 	ldw	r2,-248(fp)
 2004b90:	e0ffc317 	ldw	r3,-244(fp)
 2004b94:	dc800515 	stw	r18,20(sp)
 2004b98:	e13fc704 	addi	r4,fp,-228
 2004b9c:	d9000415 	stw	r4,16(sp)
 2004ba0:	dd000315 	stw	r20,12(sp)
 2004ba4:	e13fc404 	addi	r4,fp,-240
 2004ba8:	d9000215 	stw	r4,8(sp)
 2004bac:	e13fc144 	addi	r4,fp,-251
 2004bb0:	d9000115 	stw	r4,4(sp)
 2004bb4:	dcc00015 	stw	r19,0(sp)
 2004bb8:	e1ffae17 	ldw	r7,-328(fp)
 2004bbc:	100b883a 	mov	r5,r2
 2004bc0:	180d883a 	mov	r6,r3
 2004bc4:	e13fe617 	ldw	r4,-104(fp)
 2004bc8:	20064800 	call	2006480 <cvt>
 2004bcc:	1025883a 	mov	r18,r2
				  &expt, ch, &ndig, cp);

			if (ch == 'g' || ch == 'G') {
 2004bd0:	a08019e0 	cmpeqi	r2,r20,103
 2004bd4:	1000021e 	bne	r2,zero,2004be0 <___vfprintf_internal_r+0x830>
 2004bd8:	a08011d8 	cmpnei	r2,r20,71
 2004bdc:	1000091e 	bne	r2,zero,2004c04 <___vfprintf_internal_r+0x854>
				if (expt <= -4 || expt > prec)
 2004be0:	e0bfc417 	ldw	r2,-240(fp)
 2004be4:	10bfff50 	cmplti	r2,r2,-3
 2004be8:	1000031e 	bne	r2,zero,2004bf8 <___vfprintf_internal_r+0x848>
 2004bec:	e0bfc417 	ldw	r2,-240(fp)
 2004bf0:	e0ffae17 	ldw	r3,-328(fp)
 2004bf4:	1880020e 	bge	r3,r2,2004c00 <___vfprintf_internal_r+0x850>
					ch -= 2; /* 'e' or 'E' */
 2004bf8:	a53fff84 	addi	r20,r20,-2
 2004bfc:	00000106 	br	2004c04 <___vfprintf_internal_r+0x854>
				else
					ch = 'g';
 2004c00:	050019c4 	movi	r20,103
			}
# ifdef _WANT_IO_C99_FORMATS
			else if (ch == 'F')
				ch = 'f';
# endif
			if (ch <= 'e') {	/* 'a', 'A', 'e', or 'E' fmt */
 2004c04:	a0801988 	cmpgei	r2,r20,102
 2004c08:	1000171e 	bne	r2,zero,2004c68 <___vfprintf_internal_r+0x8b8>
				--expt;
 2004c0c:	e0bfc417 	ldw	r2,-240(fp)
 2004c10:	10bfffc4 	addi	r2,r2,-1
 2004c14:	e0bfc415 	stw	r2,-240(fp)
				expsize = exponent (expstr, expt, ch);
 2004c18:	e0bfc417 	ldw	r2,-240(fp)
 2004c1c:	e0ffc504 	addi	r3,fp,-236
 2004c20:	a00d883a 	mov	r6,r20
 2004c24:	100b883a 	mov	r5,r2
 2004c28:	1809883a 	mov	r4,r3
 2004c2c:	200668c0 	call	200668c <exponent>
 2004c30:	e0bfaf15 	stw	r2,-324(fp)
				size = expsize + ndig;
 2004c34:	e0bfc717 	ldw	r2,-228(fp)
 2004c38:	e0ffaf17 	ldw	r3,-324(fp)
 2004c3c:	1885883a 	add	r2,r3,r2
 2004c40:	e0bfb615 	stw	r2,-296(fp)
				if (ndig > 1 || flags & ALT)
 2004c44:	e0bfc717 	ldw	r2,-228(fp)
 2004c48:	10800088 	cmpgei	r2,r2,2
 2004c4c:	1000021e 	bne	r2,zero,2004c58 <___vfprintf_internal_r+0x8a8>
 2004c50:	9880004c 	andi	r2,r19,1
 2004c54:	10003526 	beq	r2,zero,2004d2c <___vfprintf_internal_r+0x97c>
					++size;
 2004c58:	e0bfb617 	ldw	r2,-296(fp)
 2004c5c:	10800044 	addi	r2,r2,1
 2004c60:	e0bfb615 	stw	r2,-296(fp)
 2004c64:	00003106 	br	2004d2c <___vfprintf_internal_r+0x97c>
# ifdef _WANT_IO_C99_FORMATS
				flags &= ~GROUPING;
# endif
			} else {
				if (ch == 'f') {		/* f fmt */
 2004c68:	a0801998 	cmpnei	r2,r20,102
 2004c6c:	1000181e 	bne	r2,zero,2004cd0 <___vfprintf_internal_r+0x920>
					if (expt > 0) {
 2004c70:	e0bfc417 	ldw	r2,-240(fp)
 2004c74:	00800c0e 	bge	zero,r2,2004ca8 <___vfprintf_internal_r+0x8f8>
						size = expt;
 2004c78:	e0bfc417 	ldw	r2,-240(fp)
 2004c7c:	e0bfb615 	stw	r2,-296(fp)
						if (prec || flags & ALT)
 2004c80:	e0bfae17 	ldw	r2,-328(fp)
 2004c84:	1000021e 	bne	r2,zero,2004c90 <___vfprintf_internal_r+0x8e0>
 2004c88:	9880004c 	andi	r2,r19,1
 2004c8c:	10002526 	beq	r2,zero,2004d24 <___vfprintf_internal_r+0x974>
							size += prec + 1;
 2004c90:	e0bfae17 	ldw	r2,-328(fp)
 2004c94:	10800044 	addi	r2,r2,1
 2004c98:	e0ffb617 	ldw	r3,-296(fp)
 2004c9c:	1885883a 	add	r2,r3,r2
 2004ca0:	e0bfb615 	stw	r2,-296(fp)
 2004ca4:	00001f06 	br	2004d24 <___vfprintf_internal_r+0x974>
					} else	/* "0.X" */
						size = (prec || flags & ALT)
							  ? prec + 2
							  : 1;
 2004ca8:	e0bfae17 	ldw	r2,-328(fp)
 2004cac:	1000021e 	bne	r2,zero,2004cb8 <___vfprintf_internal_r+0x908>
					if (expt > 0) {
						size = expt;
						if (prec || flags & ALT)
							size += prec + 1;
					} else	/* "0.X" */
