
ProjetMaster1-Display-Test.elf:     file format elf32-littlenios2
ProjetMaster1-Display-Test.elf
architecture: nios2:r1, flags 0x00000112:
EXEC_P, HAS_SYMS, D_PAGED
start address 0x02000248

Program Header:
    LOAD off    0x00001000 vaddr 0x02000000 paddr 0x02000000 align 2**12
         filesz 0x00000020 memsz 0x00000020 flags r-x
    LOAD off    0x00001020 vaddr 0x02000020 paddr 0x02000020 align 2**12
         filesz 0x0001303c memsz 0x0001303c flags r-x
    LOAD off    0x0001405c vaddr 0x0201305c paddr 0x02014b74 align 2**12
         filesz 0x00001b18 memsz 0x00001b18 flags rw-
    LOAD off    0x0001668c vaddr 0x0201668c paddr 0x0201668c align 2**12
         filesz 0x00000000 memsz 0x00000170 flags rw-

Sections:
Idx Name          Size      VMA       LMA       File off  Algn
  0 .entry        00000020  02000000  02000000  00001000  2**5
                  CONTENTS, ALLOC, LOAD, READONLY, CODE
  1 .exceptions   00000228  02000020  02000020  00001020  2**2
                  CONTENTS, ALLOC, LOAD, READONLY, CODE
  2 .text         00012a18  02000248  02000248  00001248  2**2
                  CONTENTS, ALLOC, LOAD, READONLY, CODE
  3 .rodata       000003fc  02012c60  02012c60  00013c60  2**2
                  CONTENTS, ALLOC, LOAD, READONLY, DATA
  4 .rwdata       00001b18  0201305c  02014b74  0001405c  2**2
                  CONTENTS, ALLOC, LOAD, DATA, SMALL_DATA
  5 .bss          00000170  0201668c  0201668c  0001668c  2**2
                  ALLOC, SMALL_DATA
  6 .mem_Nios_PI  00000000  00200000  00200000  00015b74  2**0
                  CONTENTS
  7 .sdram_controller 00000000  020167fc  020167fc  00015b74  2**0
                  CONTENTS
  8 .comment      00000023  00000000  00000000  00015b74  2**0
                  CONTENTS, READONLY
  9 .debug_aranges 00000ee8  00000000  00000000  00015b98  2**3
                  CONTENTS, READONLY, DEBUGGING
 10 .debug_info   00021248  00000000  00000000  00016a80  2**0
                  CONTENTS, READONLY, DEBUGGING
 11 .debug_abbrev 000082c2  00000000  00000000  00037cc8  2**0
                  CONTENTS, READONLY, DEBUGGING
 12 .debug_line   0000ab4a  00000000  00000000  0003ff8a  2**0
                  CONTENTS, READONLY, DEBUGGING
 13 .debug_frame  000023c4  00000000  00000000  0004aad4  2**2
                  CONTENTS, READONLY, DEBUGGING
 14 .debug_str    00003fcb  00000000  00000000  0004ce98  2**0
                  CONTENTS, READONLY, DEBUGGING
 15 .debug_loc    00008a9b  00000000  00000000  00050e63  2**0
                  CONTENTS, READONLY, DEBUGGING
 16 .debug_alt_sim_info 00000030  00000000  00000000  00059900  2**2
                  CONTENTS, READONLY, DEBUGGING
 17 .debug_ranges 00001308  00000000  00000000  00059930  2**3
                  CONTENTS, READONLY, DEBUGGING
 18 .thread_model 00000003  00000000  00000000  0005df46  2**0
                  CONTENTS, READONLY
 19 .cpu          00000003  00000000  00000000  0005df49  2**0
                  CONTENTS, READONLY
 20 .qsys         00000001  00000000  00000000  0005df4c  2**0
                  CONTENTS, READONLY
 21 .simulation_enabled 00000001  00000000  00000000  0005df4d  2**0
                  CONTENTS, READONLY
 22 .sysid_hash   00000004  00000000  00000000  0005df4e  2**0
                  CONTENTS, READONLY
 23 .sysid_base   00000004  00000000  00000000  0005df52  2**0
                  CONTENTS, READONLY
 24 .sysid_time   00000004  00000000  00000000  0005df56  2**0
                  CONTENTS, READONLY
 25 .stderr_dev   00000009  00000000  00000000  0005df5a  2**0
                  CONTENTS, READONLY
 26 .stdin_dev    00000009  00000000  00000000  0005df63  2**0
                  CONTENTS, READONLY
 27 .stdout_dev   00000009  00000000  00000000  0005df6c  2**0
                  CONTENTS, READONLY
 28 .sopc_system_name 00000009  00000000  00000000  0005df75  2**0
                  CONTENTS, READONLY
 29 .quartus_project_dir 00000034  00000000  00000000  0005df7e  2**0
                  CONTENTS, READONLY
 30 .jdi          00005000  00000000  00000000  0005dfb2  2**0
                  CONTENTS, READONLY
 31 .sopcinfo     0006901b  00000000  00000000  00062fb2  2**0
                  CONTENTS, READONLY
SYMBOL TABLE:
02000000 l    d  .entry	00000000 .entry
02000020 l    d  .exceptions	00000000 .exceptions
02000248 l    d  .text	00000000 .text
02012c60 l    d  .rodata	00000000 .rodata
0201305c l    d  .rwdata	00000000 .rwdata
0201668c l    d  .bss	00000000 .bss
00200000 l    d  .mem_Nios_PI	00000000 .mem_Nios_PI
020167fc l    d  .sdram_controller	00000000 .sdram_controller
00000000 l    d  .comment	00000000 .comment
00000000 l    d  .debug_aranges	00000000 .debug_aranges
00000000 l    d  .debug_info	00000000 .debug_info
00000000 l    d  .debug_abbrev	00000000 .debug_abbrev
00000000 l    d  .debug_line	00000000 .debug_line
00000000 l    d  .debug_frame	00000000 .debug_frame
00000000 l    d  .debug_str	00000000 .debug_str
00000000 l    d  .debug_loc	00000000 .debug_loc
00000000 l    d  .debug_alt_sim_info	00000000 .debug_alt_sim_info
00000000 l    d  .debug_ranges	00000000 .debug_ranges
00000000 l    df *ABS*	00000000 ../ProjetMaster1-Display-Test_bsp//obj/HAL/src/crt0.o
02000290 l       .text	00000000 alt_after_alt_main
00000000 l    df *ABS*	00000000 alt_irq_handler.c
00000000 l    df *ABS*	00000000 alt_instruction_exception_entry.c
00000000 l    df *ABS*	00000000 hello_world.c
00000000 l    df *ABS*	00000000 ledf2.c
00000000 l    df *ABS*	00000000 floatsidf.c
00000000 l    df *ABS*	00000000 libgcc2.c
00000000 l    df *ABS*	00000000 libgcc2.c
00000000 l    df *ABS*	00000000 printf.c
00000000 l    df *ABS*	00000000 puts.c
00000000 l    df *ABS*	00000000 strlen.c
00000000 l    df *ABS*	00000000 vfprintf.c
02000a2c l     F .text	000000f0 __sbprintf
02002c3c l     F .text	0000020c cvt
02002e48 l     F .text	00000140 exponent
02012e36 l     O .rodata	00000010 blanks.4403
02012e46 l     O .rodata	00000010 zeroes.4404
00000000 l    df *ABS*	00000000 wsetup.c
00000000 l    df *ABS*	00000000 dtoa.c
02003128 l     F .text	000003b4 quorem
00000000 l    df *ABS*	00000000 fflush.c
00000000 l    df *ABS*	00000000 findfp.c
02005434 l     F .text	000000f4 std
0201668c l     O .bss	00000004 __sfp_lock
02016690 l     O .bss	00000004 __sinit_lock
02005930 l     F .text	00000024 __fp_lock
02005954 l     F .text	00000024 __fp_unlock
00000000 l    df *ABS*	00000000 mallocr.c
00000000 l    df *ABS*	00000000 fvwrite.c
00000000 l    df *ABS*	00000000 fwalk.c
00000000 l    df *ABS*	00000000 impure.c
0201305c l     O .rwdata	00000424 impure_data
00000000 l    df *ABS*	00000000 locale.c
02013480 l     O .rwdata	00000038 lconv
020134b8 l     O .rwdata	00000020 lc_ctype_charset
020134d8 l     O .rwdata	00000020 lc_message_charset
020166a0 l     O .bss	00000004 lc_ctype_cjk_lang
00000000 l    df *ABS*	00000000 makebuf.c
00000000 l    df *ABS*	00000000 mallocr.c
02006c84 l     F .text	000003b4 malloc_extend_top
00000000 l    df *ABS*	00000000 memchr.c
00000000 l    df *ABS*	00000000 memcpy.c
00000000 l    df *ABS*	00000000 memmove.c
00000000 l    df *ABS*	00000000 memset.c
00000000 l    df *ABS*	00000000 mprec.c
02012f9c l     O .rodata	0000000c p05.2768
00000000 l    df *ABS*	00000000 mallocr.c
00000000 l    df *ABS*	00000000 s_fpclassify.c
00000000 l    df *ABS*	00000000 sbrkr.c
00000000 l    df *ABS*	00000000 stdio.c
00000000 l    df *ABS*	00000000 strcmp.c
00000000 l    df *ABS*	00000000 vfprintf.c
0200af80 l     F .text	000000f0 __sbprintf
02012ff2 l     O .rodata	00000010 blanks.4348
02013002 l     O .rodata	00000010 zeroes.4349
00000000 l    df *ABS*	00000000 writer.c
00000000 l    df *ABS*	00000000 closer.c
00000000 l    df *ABS*	00000000 mallocr.c
00000000 l    df *ABS*	00000000 fclose.c
00000000 l    df *ABS*	00000000 fputwc.c
00000000 l    df *ABS*	00000000 fstatr.c
00000000 l    df *ABS*	00000000 int_errno.c
00000000 l    df *ABS*	00000000 isattyr.c
00000000 l    df *ABS*	00000000 lseekr.c
00000000 l    df *ABS*	00000000 readr.c
00000000 l    df *ABS*	00000000 wbuf.c
00000000 l    df *ABS*	00000000 wcrtomb.c
00000000 l    df *ABS*	00000000 wctomb_r.c
00000000 l    df *ABS*	00000000 libgcc2.c
00000000 l    df *ABS*	00000000 libgcc2.c
00000000 l    df *ABS*	00000000 lib2-divmod.c
00000000 l    df *ABS*	00000000 adddf3.c
00000000 l    df *ABS*	00000000 divdf3.c
00000000 l    df *ABS*	00000000 eqdf2.c
00000000 l    df *ABS*	00000000 gedf2.c
00000000 l    df *ABS*	00000000 muldf3.c
00000000 l    df *ABS*	00000000 subdf3.c
00000000 l    df *ABS*	00000000 fixdfsi.c
00000000 l    df *ABS*	00000000 floatunsidf.c
00000000 l    df *ABS*	00000000 alt_close.c
02010070 l     F .text	0000003c alt_get_errno
00000000 l    df *ABS*	00000000 alt_dev.c
0201017c l     F .text	0000002c alt_dev_null_write
00000000 l    df *ABS*	00000000 alt_errno.c
00000000 l    df *ABS*	00000000 alt_fstat.c
020101a8 l     F .text	0000003c alt_get_errno
00000000 l    df *ABS*	00000000 alt_isatty.c
02010294 l     F .text	0000003c alt_get_errno
00000000 l    df *ABS*	00000000 alt_load.c
02010374 l     F .text	00000068 alt_load_section
00000000 l    df *ABS*	00000000 alt_lseek.c
02010460 l     F .text	0000003c alt_get_errno
00000000 l    df *ABS*	00000000 alt_main.c
00000000 l    df *ABS*	00000000 alt_malloc_lock.c
00000000 l    df *ABS*	00000000 alt_read.c
02010634 l     F .text	0000003c alt_get_errno
00000000 l    df *ABS*	00000000 alt_release_fd.c
00000000 l    df *ABS*	00000000 alt_sbrk.c
02014b64 l     O .rwdata	00000004 heap_end
00000000 l    df *ABS*	00000000 alt_write.c
02010880 l     F .text	0000003c alt_get_errno
00000000 l    df *ABS*	00000000 alt_sys_init.c
020109b4 l     F .text	00000034 alt_dev_reg
02013aa8 l     O .rwdata	00001060 jtag_uart
02014b08 l     O .rwdata	0000002c accelerometer_spi_0
00000000 l    df *ABS*	00000000 altera_avalon_jtag_uart_fd.c
00000000 l    df *ABS*	00000000 altera_avalon_jtag_uart_init.c
02010ca4 l     F .text	00000210 altera_avalon_jtag_uart_irq
02010eb4 l     F .text	000000a0 altera_avalon_jtag_uart_timeout
00000000 l    df *ABS*	00000000 altera_avalon_jtag_uart_ioctl.c
00000000 l    df *ABS*	00000000 altera_avalon_jtag_uart_read.c
00000000 l    df *ABS*	00000000 altera_avalon_jtag_uart_write.c
00000000 l    df *ABS*	00000000 altera_avalon_timer_sc.c
020114ec l     F .text	0000007c alt_avalon_timer_sc_irq
00000000 l    df *ABS*	00000000 altera_up_avalon_accelerometer_spi.c
00000000 l    df *ABS*	00000000 alt_alarm_start.c
00000000 l    df *ABS*	00000000 alt_dcache_flush_all.c
00000000 l    df *ABS*	00000000 alt_dev_llist_insert.c
02011b00 l     F .text	0000003c alt_get_errno
00000000 l    df *ABS*	00000000 alt_do_ctors.c
00000000 l    df *ABS*	00000000 alt_do_dtors.c
00000000 l    df *ABS*	00000000 alt_find_dev.c
00000000 l    df *ABS*	00000000 alt_icache_flush_all.c
00000000 l    df *ABS*	00000000 alt_io_redirect.c
02011d64 l     F .text	000000c4 alt_open_fd
00000000 l    df *ABS*	00000000 alt_irq_register.c
00000000 l    df *ABS*	00000000 alt_irq_vars.c
00000000 l    df *ABS*	00000000 alt_open.c
02012024 l     F .text	0000003c alt_get_errno
02012060 l     F .text	000000c4 alt_file_locked
00000000 l    df *ABS*	00000000 alt_tick.c
00000000 l    df *ABS*	00000000 altera_nios2_gen2_irq.c
00000000 l    df *ABS*	00000000 alt_find_file.c
00000000 l    df *ABS*	00000000 alt_get_fd.c
00000000 l    df *ABS*	00000000 alt_icache_flush.c
00000000 l    df *ABS*	00000000 atexit.c
00000000 l    df *ABS*	00000000 exit.c
00000000 l    df *ABS*	00000000 memcmp.c
00000000 l    df *ABS*	00000000 __atexit.c
00000000 l    df *ABS*	00000000 __call_atexit.c
020166d0 l     O .bss	00000004 __atexit_lock
00000000 l    df *ABS*	00000000 alt_exit.c
020166cc g     O .bss	00000004 alt_instruction_exception_handler
02009a88 g     F .text	000000b0 _mprec_log10
02009c08 g     F .text	00000134 __any_on
0200ca68 g     F .text	00000060 _isatty_r
02012f74 g     O .rodata	00000028 __mprec_tinytens
02010570 g     F .text	0000007c alt_main
020007e8 g     F .text	00000118 _puts_r
020166fc g     O .bss	00000100 alt_irq
0200cac8 g     F .text	00000070 _lseek_r
02014b74 g       *ABS*	00000000 __flash_rwdata_start
0200edd0 g     F .text	00000088 .hidden __eqdf2
020167fc g       *ABS*	00000000 __alt_heap_start
02000780 g     F .text	00000068 printf
0200cd50 g     F .text	000000d4 _wcrtomb_r
0200ac10 g     F .text	000000a0 __sseek
020057d8 g     F .text	000000d8 __sinit
0200cba8 g     F .text	00000168 __swbuf_r
020068b4 g     F .text	00000084 _setlocale_r
02005528 g     F .text	000000a4 __sfmoreglue
02010610 g     F .text	00000024 __malloc_unlock
02007ef8 g     F .text	00000208 memmove
020057a4 g     F .text	00000034 _cleanup
020082c4 g     F .text	00000130 _Balloc
0200ee58 g     F .text	000000dc .hidden __gtdf2
0201241c g     F .text	00000024 altera_nios2_gen2_irq_init
02000000 g     F .entry	0000001c __reset
00200000 g       *ABS*	00000000 __alt_mem_mem_Nios_PI
02011728 g     F .text	000000cc alt_up_accelerometer_spi_read_x_axis
02000020 g       *ABS*	00000000 __flash_exceptions_start
0200ca00 g     F .text	00000068 _fstat_r
020166b0 g     O .bss	00000004 errno
0200ab2c g     F .text	00000030 __seofread
02000000 g       *ABS*	00000000 __alt_mem_sdram_controller
020166b8 g     O .bss	00000004 alt_argv
0201cb34 g       *ABS*	00000000 _gp
02013928 g     O .rwdata	00000180 alt_fd_list
02011ca0 g     F .text	00000090 alt_find_dev
02007d70 g     F .text	00000188 memcpy
02005760 g     F .text	00000044 _cleanup_r
020005dc g     F .text	000000dc .hidden __floatsidf
02011e28 g     F .text	0000007c alt_io_redirect
020004e8 g     F .text	000000f4 .hidden __ltdf2
02012c60 g       *ABS*	00000000 __DTOR_END__
02000900 g     F .text	00000038 puts
0201267c g     F .text	0000009c alt_exception_cause_generated_bad_addr
0200a92c g     F .text	00000104 __fpclassifyd
0200996c g     F .text	0000011c __ratio
0200b070 g     F .text	00000050 __vfiprintf_internal
020110ac g     F .text	0000021c altera_avalon_jtag_uart_read
0200071c g     F .text	00000064 _printf_r
0200db80 g     F .text	00000064 .hidden __udivsi3
020102d0 g     F .text	000000a4 isatty
02012e84 g     O .rodata	000000c8 __mprec_tens
02006938 g     F .text	00000024 __locale_charset
020125ec g     F .text	00000090 alt_icache_flush
020166a4 g     O .bss	00000004 __malloc_top_pad
02014b3c g     O .rwdata	00000004 __mb_cur_max
020069c0 g     F .text	00000028 _localeconv_r
0200890c g     F .text	00000058 __i2b
02006124 g     F .text	000005dc __sfvwrite_r
0200aa30 g     F .text	00000060 _sbrk_r
0200cb38 g     F .text	00000070 _read_r
02014b5c g     O .rwdata	00000004 alt_max_fd
0200c5b8 g     F .text	0000012c _fclose_r
020053e0 g     F .text	00000054 fflush
020166a8 g     O .bss	00000004 __malloc_max_sbrked_mem
02011ea4 g     F .text	00000180 alt_irq_register
0200dc3c g     F .text	000008ac .hidden __adddf3
02009528 g     F .text	00000204 __b2d
0200d550 g     F .text	00000538 .hidden __umoddi3
0201049c g     F .text	000000d4 lseek
02014b38 g     O .rwdata	00000004 _global_impure_ptr
02009d3c g     F .text	00000bf0 _realloc_r
020167fc g       *ABS*	00000000 __bss_end
02012314 g     F .text	00000108 alt_tick
0200cfd8 g     F .text	00000578 .hidden __udivdi3
0200c910 g     F .text	00000088 _fputwc_r
02012f4c g     O .rodata	00000028 __mprec_bigtens
02008604 g     F .text	0000018c __s2b
0200ffc8 g     F .text	000000a8 .hidden __floatunsidf
020090a4 g     F .text	00000114 __mcmp
02005978 g     F .text	00000040 __fp_lock_all
02012278 g     F .text	0000009c alt_alarm_stop
020166c0 g     O .bss	00000004 alt_irq_active
020000fc g     F .exceptions	000000d8 alt_irq_handler
02013900 g     O .rwdata	00000028 alt_dev_null
02011ab8 g     F .text	00000048 alt_dcache_flush_all
02008790 g     F .text	00000090 __hi0bits
0200ff48 g     F .text	00000080 .hidden __fixdfsi
02014b74 g       *ABS*	00000000 __ram_rwdata_end
02014b54 g     O .rwdata	00000008 alt_dev_list
020108bc g     F .text	000000f8 write
0201305c g       *ABS*	00000000 __ram_rodata_end
020101e4 g     F .text	000000b0 fstat
020004e8 g     F .text	000000f4 .hidden __ledf2
02008d34 g     F .text	00000178 __pow5mult
0200b0c0 g     F .text	000012c4 ___vfiprintf_internal_r
02016694 g     O .bss	00000004 __nlocale_changed
0200dbe4 g     F .text	00000058 .hidden __umodsi3
020167fc g       *ABS*	00000000 end
02010bf0 g     F .text	000000b4 altera_avalon_jtag_uart_init
020001d4 g     F .exceptions	00000074 alt_instruction_exception_entry
02012c60 g       *ABS*	00000000 __CTOR_LIST__
04000000 g       *ABS*	00000000 __alt_stack_pointer
02011568 g     F .text	00000074 alt_avalon_timer_sc_init
020006b8 g     F .text	00000064 .hidden __clzsi2
020112c8 g     F .text	00000224 altera_avalon_jtag_uart_write
020058b0 g     F .text	00000020 __sfp_lock_acquire
02007bb4 g     F .text	000001bc memchr
02000b6c g     F .text	000020d0 ___vfprintf_internal_r
020059f8 g     F .text	00000560 _free_r
0200695c g     F .text	00000020 __locale_mb_cur_max
02012a40 g     F .text	000001ec __call_exitprocs
02016698 g     O .bss	00000004 __mlocale_changed
02014b44 g     O .rwdata	00000004 __malloc_sbrk_base
02000248 g     F .text	0000004c _start
020166c4 g     O .bss	00000004 _alt_tick_rate
02008eac g     F .text	000001f8 __lshift
020166c8 g     O .bss	00000004 _alt_nticks
02010670 g     F .text	000000fc read
02010a20 g     F .text	0000006c alt_sys_init
02011618 g     F .text	00000044 alt_up_accelerometer_spi_read_address_register
020128d0 g     F .text	00000170 __register_exitproc
02008964 g     F .text	000003d0 __multiply
02010f54 g     F .text	00000068 altera_avalon_jtag_uart_close
0201305c g       *ABS*	00000000 __ram_rwdata_start
02012c60 g       *ABS*	00000000 __ram_rodata_start
020166d4 g     O .bss	00000028 __malloc_current_mallinfo
0200972c g     F .text	00000240 __d2b
02010a8c g     F .text	00000060 altera_avalon_jtag_uart_read_fd
02012548 g     F .text	000000a4 alt_get_fd
020117f4 g     F .text	000000cc alt_up_accelerometer_spi_read_y_axis
0200c3f4 g     F .text	00000060 _close_r
0201279c g     F .text	00000134 memcmp
02010b4c g     F .text	00000050 altera_avalon_jtag_uart_close_fd
020167fc g       *ABS*	00000000 __alt_stack_base
02010b9c g     F .text	00000054 altera_avalon_jtag_uart_ioctl_fd
02002f88 g     F .text	000001a0 __swsetup_r
0200e4e8 g     F .text	000008e8 .hidden __divdf3
020055cc g     F .text	00000194 __sfp
02009b38 g     F .text	000000d0 __copybits
020134f8 g     O .rwdata	00000408 __malloc_av_
02005910 g     F .text	00000020 __sinit_lock_release
0200ef34 g     F .text	00000718 .hidden __muldf3
0200aa90 g     F .text	0000009c __sread
02012440 g     F .text	00000108 alt_find_file
02011b3c g     F .text	000000a4 alt_dev_llist_insert
020105ec g     F .text	00000024 __malloc_lock
020107d0 g     F .text	000000b0 sbrk
02005358 g     F .text	00000088 _fflush_r
0200c454 g     F .text	00000164 _calloc_r
0201668c g       *ABS*	00000000 __bss_start
02008100 g     F .text	000001c4 memset
02000294 g     F .text	00000254 main
020166bc g     O .bss	00000004 alt_envp
020166ac g     O .bss	00000004 __malloc_max_total_mem
02010aec g     F .text	00000060 altera_avalon_jtag_uart_write_fd
0200cd10 g     F .text	00000040 __swbuf
0200acb0 g     F .text	00000054 __sclose
04000000 g       *ABS*	00000000 __alt_heap_limit
0200c6e4 g     F .text	00000038 fclose
020034dc g     F .text	00001b78 _dtoa_r
02007038 g     F .text	00000b7c _malloc_r
0200cf60 g     F .text	00000078 __ascii_wctomb
02014b60 g     O .rwdata	00000004 alt_errno
02006700 g     F .text	000000d8 _fwalk
0200da88 g     F .text	00000084 .hidden __divsi3
02005f58 g     F .text	000001cc _malloc_trim_r
02012c60 g       *ABS*	00000000 __CTOR_END__
0200ad04 g     F .text	00000140 strcmp
02012c60 g       *ABS*	00000000 __flash_rodata_start
02012c60 g       *ABS*	00000000 __DTOR_LIST__
0200edd0 g     F .text	00000088 .hidden __nedf2
020109e8 g     F .text	00000038 alt_irq_init
0201076c g     F .text	00000064 alt_release_fd
02012cd3 g     O .rodata	00000100 .hidden __clz_tab
0201669c g     O .bss	00000004 _PathLocale
02012718 g     F .text	0000003c atexit
0200c384 g     F .text	00000070 _write_r
020069e8 g     F .text	00000040 setlocale
02014b34 g     O .rwdata	00000004 _impure_ptr
020166b4 g     O .bss	00000004 alt_argc
02005054 g     F .text	00000304 __sflush_r
02011c40 g     F .text	00000060 _do_dtors
020069a0 g     F .text	00000020 __locale_cjk_lang
02000020 g       .exceptions	00000000 alt_irq_entry
0200945c g     F .text	000000cc __ulp
020059b8 g     F .text	00000040 __fp_unlock_all
02014b4c g     O .rwdata	00000008 alt_fs_list
02000020 g       *ABS*	00000000 __ram_exceptions_start
020115dc g     F .text	0000003c alt_up_accelerometer_spi_open_dev
02006a28 g     F .text	00000030 localeconv
02014b74 g       *ABS*	00000000 _edata
020167fc g       *ABS*	00000000 _end
0200c71c g     F .text	000001f4 __fputwc
02000248 g       *ABS*	00000000 __ram_exceptions_end
02010fbc g     F .text	000000f0 altera_avalon_jtag_uart_ioctl
0200ab5c g     F .text	000000b4 __swrite
02014b40 g     O .rwdata	00000004 __malloc_trim_threshold
0200697c g     F .text	00000024 __locale_msgcharset
02012754 g     F .text	00000048 exit
020067d8 g     F .text	000000dc _fwalk_reent
020091b8 g     F .text	000002a4 __mdiff
0200db0c g     F .text	00000074 .hidden __modsi3
020118c0 g     F .text	000000cc alt_up_accelerometer_spi_read_z_axis
04000000 g       *ABS*	00000000 __alt_data_end
02000020 g     F .exceptions	00000000 alt_exception
020058d0 g     F .text	00000020 __sfp_lock_release
02012c2c g     F .text	00000034 _exit
0201198c g     F .text	0000012c alt_alarm_start
0201165c g     F .text	00000068 alt_up_accelerometer_spi_read
020116c4 g     F .text	00000064 alt_up_accelerometer_spi_write
02006a58 g     F .text	0000022c __smakebuf_r
02000938 g     F .text	000000f4 strlen
02012124 g     F .text	00000154 open
0200ee58 g     F .text	000000dc .hidden __gedf2
02014b48 g     O .rwdata	00000004 __wctomb
0200ae44 g     F .text	0000013c __sprint_r
02011d30 g     F .text	00000034 alt_icache_flush_all
02014b68 g     O .rwdata	00000004 alt_priority_mask
02000b1c g     F .text	00000050 __vfprintf_internal
0200cefc g     F .text	00000064 _wctomb_r
0200f64c g     F .text	000008fc .hidden __subdf3
02008820 g     F .text	000000ec __lo0bits
02014b6c g     O .rwdata	00000008 alt_alarm_list
02011be0 g     F .text	00000060 _do_ctors
0200ce24 g     F .text	000000d8 wcrtomb
020100ac g     F .text	000000d0 close
020103dc g     F .text	00000084 alt_load
0200c998 g     F .text	00000068 fputwc
020058f0 g     F .text	00000020 __sinit_lock_acquire
02008470 g     F .text	00000194 __multadd
020083f4 g     F .text	0000007c _Bfree



Disassembly of section .entry:

02000000 <__reset>:
#if NIOS2_ICACHE_SIZE > 0 && defined(ALT_ALLOW_CODE_AT_RESET) && (!defined(ALT_SIM_OPTIMIZE) || defined(NIOS2_ECC_PRESENT))
    /* Assume the instruction cache size is always a power of two. */
#if NIOS2_ICACHE_SIZE > 0x8000
    movhi r2, %hi(NIOS2_ICACHE_SIZE)
#else
    movui r2, NIOS2_ICACHE_SIZE
 2000000:	00840014 	movui	r2,4096
#endif

0:
    initi r2
 2000004:	1001483a 	initi	r2
    addi r2, r2, -NIOS2_ICACHE_LINE_SIZE
 2000008:	10bff804 	addi	r2,r2,-32
    bgt r2, zero, 0b
 200000c:	00bffd16 	blt	zero,r2,2000004 <__reset+0x4>
 * Jump to the _start entry point in the .text section if reset code
 * is allowed or if optimizing for RTL simulation.
 */
#if defined(ALT_ALLOW_CODE_AT_RESET) || defined(ALT_SIM_OPTIMIZE)
    /* Jump to the _start entry point in the .text section. */
    movhi r1, %hi(_start)
 2000010:	00408034 	movhi	at,512
    ori r1, r1, %lo(_start)
 2000014:	08409214 	ori	at,at,584
    jmp r1
 2000018:	0800683a 	jmp	at
 200001c:	00000000 	call	0 <__alt_mem_mem_Nios_PI-0x200000>

Disassembly of section .exceptions:

02000020 <alt_exception>:

#else /* ALT_EXCEPTION_STACK disabled */
        /* 
         * Reserve space on normal stack for registers about to be pushed.
         */
        addi  sp, sp, -76
 2000020:	deffed04 	addi	sp,sp,-76
         * documentation for details).
         *
         * Leave a gap in the stack frame at 4(sp) for the muldiv handler to
         * store zero into.
         */
        stw   ra,  0(sp)
 2000024:	dfc00015 	stw	ra,0(sp)
        stw   r1,   8(sp)
 2000028:	d8400215 	stw	at,8(sp)
        stw   r2,  12(sp)
 200002c:	d8800315 	stw	r2,12(sp)
        stw   r3,  16(sp)
 2000030:	d8c00415 	stw	r3,16(sp)
        stw   r4,  20(sp)
 2000034:	d9000515 	stw	r4,20(sp)
        stw   r5,  24(sp)
 2000038:	d9400615 	stw	r5,24(sp)
        stw   r6,  28(sp)
 200003c:	d9800715 	stw	r6,28(sp)
        stw   r7,  32(sp)
 2000040:	d9c00815 	stw	r7,32(sp)
        rdctl r5, estatus   /* Read early to avoid usage stall */
 2000044:	000b307a 	rdctl	r5,estatus
        stw   r8,  36(sp)
 2000048:	da000915 	stw	r8,36(sp)
        stw   r9,  40(sp)
 200004c:	da400a15 	stw	r9,40(sp)
        stw   r10, 44(sp)
 2000050:	da800b15 	stw	r10,44(sp)
        stw   r11, 48(sp)
 2000054:	dac00c15 	stw	r11,48(sp)
        stw   r12, 52(sp)
 2000058:	db000d15 	stw	r12,52(sp)
        stw   r13, 56(sp)
 200005c:	db400e15 	stw	r13,56(sp)
        stw   r14, 60(sp)
 2000060:	db800f15 	stw	r14,60(sp)
        stw   r15, 64(sp)
 2000064:	dbc01015 	stw	r15,64(sp)
        /*
         * ea-4 contains the address of the instruction being executed
         * when the exception occured. For interrupt exceptions, we will
         * will be re-issue the isntruction. Store it in 72(sp)
         */
        stw   r5,  68(sp)  /* estatus */
 2000068:	d9401115 	stw	r5,68(sp)
        addi  r15, ea, -4  /* instruction that caused exception */
 200006c:	ebffff04 	addi	r15,ea,-4
        stw   r15,  72(sp)
 2000070:	dbc01215 	stw	r15,72(sp)
#else
        /*
         * Test to see if the exception was a software exception or caused 
         * by an external interrupt, and vector accordingly.
         */
        rdctl r4, ipending
 2000074:	0009313a 	rdctl	r4,ipending
        andi  r2, r5, 1
 2000078:	2880004c 	andi	r2,r5,1
        beq   r2, zero, .Lnot_irq
 200007c:	10000326 	beq	r2,zero,200008c <alt_exception+0x6c>
        beq   r4, zero, .Lnot_irq
 2000080:	20000226 	beq	r4,zero,200008c <alt_exception+0x6c>
        /*
         * Now that all necessary registers have been preserved, call 
         * alt_irq_handler() to process the interrupts.
         */

        call alt_irq_handler
 2000084:	20000fc0 	call	20000fc <alt_irq_handler>

        .section .exceptions.irqreturn, "xa"

        br    .Lexception_exit
 2000088:	00000706 	br	20000a8 <alt_exception+0x88>
         * upon completion, so we write ea (address of instruction *after*
         * the one where the exception occured) into 72(sp). The actual
         * instruction that caused the exception is written in r2, which these
         * handlers will utilize.
         */
        stw ea, 72(sp) /* EA is PC+4 so will skip over instruction causing exception */
 200008c:	df401215 	stw	ea,72(sp)
.Lunknown_16bit:
        addi.n r4, r4, 2 /* Need PC+2 to skip over instruction causing exception */
        stw r4, 72(sp)

#else /* CDX is not Enabled and all instructions are 32bits */
        ldw r2, -4(ea) /* Instruction value that caused exception */
 2000090:	e8bfff17 	ldw	r2,-4(ea)
         * debugger is present) or go into an infinite loop since the
         * handling behavior is undefined; in that case we will not return here.
         */

        /* Load exception-causing address as first argument (r4) */
        addi   r4, ea, -4
 2000094:	e93fff04 	addi	r4,ea,-4

        /* Call the instruction-exception entry */
        call   alt_instruction_exception_entry
 2000098:	20001d40 	call	20001d4 <alt_instruction_exception_entry>
         * instruction
         *
         * Return code was 0: Skip. The instruction after the exception is
         * already stored in 72(sp).
         */
        bne   r2, r0, .Lexception_exit
 200009c:	1000021e 	bne	r2,zero,20000a8 <alt_exception+0x88>

        /*
         * Otherwise, modify 72(sp) to re-issue the instruction that caused the
         * exception.
         */
        addi  r15, ea, -4  /* instruction that caused exception */
 20000a0:	ebffff04 	addi	r15,ea,-4
        stw   r15,  72(sp)
 20000a4:	dbc01215 	stw	r15,72(sp)
        /* 
         * Restore the saved registers, so that all general purpose registers 
         * have been restored to their state at the time the interrupt occured.
         */

        ldw   r5,  68(sp)
 20000a8:	d9401117 	ldw	r5,68(sp)
        ldw   ea,  72(sp)  /* This becomes the PC once eret is executed */
 20000ac:	df401217 	ldw	ea,72(sp)
        ldw   ra,   0(sp)
 20000b0:	dfc00017 	ldw	ra,0(sp)

        wrctl estatus, r5
 20000b4:	2801707a 	wrctl	estatus,r5

        ldw   r1,   8(sp)
 20000b8:	d8400217 	ldw	at,8(sp)
        ldw   r2,  12(sp)
 20000bc:	d8800317 	ldw	r2,12(sp)
        ldw   r3,  16(sp)
 20000c0:	d8c00417 	ldw	r3,16(sp)
        ldw   r4,  20(sp)
 20000c4:	d9000517 	ldw	r4,20(sp)
        ldw   r5,  24(sp)
 20000c8:	d9400617 	ldw	r5,24(sp)
        ldw   r6,  28(sp)
 20000cc:	d9800717 	ldw	r6,28(sp)
        ldw   r7,  32(sp)
 20000d0:	d9c00817 	ldw	r7,32(sp)

#if defined(ALT_EXCEPTION_STACK) && defined(ALT_STACK_CHECK)
        ldw   et, %gprel(alt_exception_old_stack_limit)(gp)
#endif

        ldw   r8,  36(sp)
 20000d4:	da000917 	ldw	r8,36(sp)
        ldw   r9,  40(sp)
 20000d8:	da400a17 	ldw	r9,40(sp)
        ldw   r10, 44(sp)
 20000dc:	da800b17 	ldw	r10,44(sp)
        ldw   r11, 48(sp)
 20000e0:	dac00c17 	ldw	r11,48(sp)
        ldw   r12, 52(sp)
 20000e4:	db000d17 	ldw	r12,52(sp)
        ldw   r13, 56(sp)
 20000e8:	db400e17 	ldw	r13,56(sp)
        ldw   r14, 60(sp)
 20000ec:	db800f17 	ldw	r14,60(sp)
        ldw   r15, 64(sp)
 20000f0:	dbc01017 	ldw	r15,64(sp)
        stw   et, %gprel(alt_stack_limit_value)(gp)
        stw   zero, %gprel(alt_exception_old_stack_limit)(gp)
#endif /* ALT_STACK_CHECK */
        ldw   sp,  76(sp)
#else /* ALT_EXCEPTION_STACK disabled */
        addi  sp, sp, 76
 20000f4:	dec01304 	addi	sp,sp,76

        /*
         * Return to the interrupted instruction.
         */

        eret
 20000f8:	ef80083a 	eret

020000fc <alt_irq_handler>:
 * instruction is present if the macro ALT_CI_INTERRUPT_VECTOR defined.
 */

void alt_irq_handler (void) __attribute__ ((section (".exceptions")));
void alt_irq_handler (void)
{
 20000fc:	defff904 	addi	sp,sp,-28
 2000100:	dfc00615 	stw	ra,24(sp)
 2000104:	df000515 	stw	fp,20(sp)
 2000108:	df000504 	addi	fp,sp,20
  
  /*
   * Notify the operating system that we are at interrupt level.
   */ 
  
  ALT_OS_INT_ENTER();
 200010c:	0001883a 	nop
#ifndef NIOS2_EIC_PRESENT
static ALT_INLINE alt_u32 ALT_ALWAYS_INLINE alt_irq_pending (void)
{
  alt_u32 active;

  NIOS2_READ_IPENDING (active);
 2000110:	0005313a 	rdctl	r2,ipending
 2000114:	e0bffe15 	stw	r2,-8(fp)

  return active;
 2000118:	e0bffe17 	ldw	r2,-8(fp)
   * Consider the case where the high priority interupt is asserted during
   * the interrupt entry sequence for a lower priority interrupt to see why
   * this is the case.
   */

  active = alt_irq_pending ();
 200011c:	e0bffb15 	stw	r2,-20(fp)

  do
  {
    i = 0;
 2000120:	e03ffd15 	stw	zero,-12(fp)
    mask = 1;
 2000124:	00800044 	movi	r2,1
 2000128:	e0bffc15 	stw	r2,-16(fp)
     * called to clear the interrupt condition.
     */

    do
    {
      if (active & mask)
 200012c:	e0fffb17 	ldw	r3,-20(fp)
 2000130:	e0bffc17 	ldw	r2,-16(fp)
 2000134:	1884703a 	and	r2,r3,r2
 2000138:	10001526 	beq	r2,zero,2000190 <alt_irq_handler+0x94>
      { 
#ifdef ALT_ENHANCED_INTERRUPT_API_PRESENT
        alt_irq[i].handler(alt_irq[i].context); 
#else
        alt_irq[i].handler(alt_irq[i].context, i); 
 200013c:	00808074 	movhi	r2,513
 2000140:	1099bf04 	addi	r2,r2,26364
 2000144:	e0fffd17 	ldw	r3,-12(fp)
 2000148:	180690fa 	slli	r3,r3,3
 200014c:	10c5883a 	add	r2,r2,r3
 2000150:	10c00017 	ldw	r3,0(r2)
 2000154:	00808074 	movhi	r2,513
 2000158:	1099bf04 	addi	r2,r2,26364
 200015c:	e13ffd17 	ldw	r4,-12(fp)
 2000160:	200890fa 	slli	r4,r4,3
 2000164:	1105883a 	add	r2,r2,r4
 2000168:	10800104 	addi	r2,r2,4
 200016c:	10800017 	ldw	r2,0(r2)
 2000170:	e17ffd17 	ldw	r5,-12(fp)
 2000174:	1009883a 	mov	r4,r2
 2000178:	183ee83a 	callr	r3
#endif
        break;
 200017c:	0001883a 	nop
#ifndef NIOS2_EIC_PRESENT
static ALT_INLINE alt_u32 ALT_ALWAYS_INLINE alt_irq_pending (void)
{
  alt_u32 active;

  NIOS2_READ_IPENDING (active);
 2000180:	0005313a 	rdctl	r2,ipending
 2000184:	e0bfff15 	stw	r2,-4(fp)

  return active;
 2000188:	e0bfff17 	ldw	r2,-4(fp)
 200018c:	00000706 	br	20001ac <alt_irq_handler+0xb0>
      }
      mask <<= 1;
 2000190:	e0bffc17 	ldw	r2,-16(fp)
 2000194:	1085883a 	add	r2,r2,r2
 2000198:	e0bffc15 	stw	r2,-16(fp)
      i++;
 200019c:	e0bffd17 	ldw	r2,-12(fp)
 20001a0:	10800044 	addi	r2,r2,1
 20001a4:	e0bffd15 	stw	r2,-12(fp)

    } while (1);
 20001a8:	003fe006 	br	200012c <alt_irq_handler+0x30>

    active = alt_irq_pending ();
 20001ac:	e0bffb15 	stw	r2,-20(fp)
    
  } while (active);
 20001b0:	e0bffb17 	ldw	r2,-20(fp)
 20001b4:	103fda1e 	bne	r2,zero,2000120 <alt_irq_handler+0x24>

  /*
   * Notify the operating system that interrupt processing is complete.
   */ 

  ALT_OS_INT_EXIT();
 20001b8:	0001883a 	nop
}
 20001bc:	0001883a 	nop
 20001c0:	e037883a 	mov	sp,fp
 20001c4:	dfc00117 	ldw	ra,4(sp)
 20001c8:	df000017 	ldw	fp,0(sp)
 20001cc:	dec00204 	addi	sp,sp,8
 20001d0:	f800283a 	ret

020001d4 <alt_instruction_exception_entry>:
 * that handler if it has been registered. Absent a handler, it will
 * break break or hang as discussed below.
 */
int 
alt_instruction_exception_entry (alt_u32 exception_pc)
{
 20001d4:	defffb04 	addi	sp,sp,-20
 20001d8:	dfc00415 	stw	ra,16(sp)
 20001dc:	df000315 	stw	fp,12(sp)
 20001e0:	df000304 	addi	fp,sp,12
 20001e4:	e13fff15 	stw	r4,-4(fp)
 * NIOS2_EXCEPTION_CAUSE_NOT_PRESENT. Your handling routine should
 * check the validity of the cause argument before proceeding.
 */
#ifdef NIOS2_HAS_EXTRA_EXCEPTION_INFO
  /* Get exception cause & "badaddr" */
  NIOS2_READ_EXCEPTION(cause);
 20001e8:	000531fa 	rdctl	r2,exception
 20001ec:	e0bffd15 	stw	r2,-12(fp)
  cause = ( (cause & NIOS2_EXCEPTION_REG_CAUSE_MASK) >>
 20001f0:	e0bffd17 	ldw	r2,-12(fp)
 20001f4:	10801f0c 	andi	r2,r2,124
 20001f8:	1004d0ba 	srli	r2,r2,2
 20001fc:	e0bffd15 	stw	r2,-12(fp)
              NIOS2_EXCEPTION_REG_CAUSE_OFST );

  NIOS2_READ_BADADDR(badaddr);
 2000200:	0005333a 	rdctl	r2,badaddr
 2000204:	e0bffe15 	stw	r2,-8(fp)
#else
  cause = NIOS2_EXCEPTION_CAUSE_NOT_PRESENT;
  badaddr = 0;
#endif /* NIOS2_HAS_EXTRA_EXCEPTION_INFO */

  if(alt_instruction_exception_handler) {
 2000208:	d0a6e617 	ldw	r2,-25704(gp)
 200020c:	10000726 	beq	r2,zero,200022c <alt_instruction_exception_entry+0x58>
     * Call handler. Its return value indicates whether the exception-causing
     * instruction should be re-issued. The code that called us,
     * alt_eceptions_entry.S, will look at this value and adjust the ea
     * register as necessary
     */
    return alt_instruction_exception_handler(cause, exception_pc, badaddr);
 2000210:	d0a6e617 	ldw	r2,-25704(gp)
 2000214:	e0fffd17 	ldw	r3,-12(fp)
 2000218:	e1bffe17 	ldw	r6,-8(fp)
 200021c:	e17fff17 	ldw	r5,-4(fp)
 2000220:	1809883a 	mov	r4,r3
 2000224:	103ee83a 	callr	r2
 2000228:	00000206 	br	2000234 <alt_instruction_exception_entry+0x60>
   *    (a peripheral which negates its interrupt output before its
   *    interrupt handler has been executed will cause spurious interrupts)
   */
  else {
#ifdef NIOS2_HAS_DEBUG_STUB
    NIOS2_BREAK();
 200022c:	003da03a 	break	0
      ;
#endif /* NIOS2_HAS_DEBUG_STUB */
  }

  /* We should not get here. Remove compiler warning. */
  return NIOS2_EXCEPTION_RETURN_REISSUE_INST;
 2000230:	0005883a 	mov	r2,zero
}
 2000234:	e037883a 	mov	sp,fp
 2000238:	dfc00117 	ldw	ra,4(sp)
 200023c:	df000017 	ldw	fp,0(sp)
 2000240:	dec00204 	addi	sp,sp,8
 2000244:	f800283a 	ret

Disassembly of section .text:

02000248 <_start>:

    /* Assume the data cache size is always a power of two. */
#if NIOS2_DCACHE_SIZE > 0x8000
    movhi r2, %hi(NIOS2_DCACHE_SIZE)
#else
    movui r2, NIOS2_DCACHE_SIZE
 2000248:	00820014 	movui	r2,2048
#endif

0:
    initd 0(r2)
 200024c:	10000033 	initd	0(r2)
#ifdef NIOS2_ECC_PRESENT
    addi r2, r2, -4
#else
    addi r2, r2, -NIOS2_DCACHE_LINE_SIZE
 2000250:	10bff804 	addi	r2,r2,-32
#endif
    bgt r2, zero, 0b
 2000254:	00bffd16 	blt	zero,r2,200024c <_start+0x4>

    /*
     * Now that the caches are initialized, set up the stack pointer and global pointer.
     * The values provided by the linker are assumed to be correctly aligned.
     */
    movhi sp, %hi(__alt_stack_pointer)
 2000258:	06c10034 	movhi	sp,1024
    ori sp, sp, %lo(__alt_stack_pointer)
 200025c:	dec00014 	ori	sp,sp,0
    movhi gp, %hi(_gp)
 2000260:	06808074 	movhi	gp,513
    ori gp, gp, %lo(_gp)
 2000264:	d6b2cd14 	ori	gp,gp,52020
 */
#ifndef ALT_SIM_OPTIMIZE
    /* Log that the BSS is about to be cleared. */
    ALT_LOG_PUTS(alt_log_msg_bss)

    movhi r2, %hi(__bss_start)
 2000268:	00808074 	movhi	r2,513
    ori r2, r2, %lo(__bss_start)
 200026c:	1099a314 	ori	r2,r2,26252

    movhi r3, %hi(__bss_end)
 2000270:	00c08074 	movhi	r3,513
    ori r3, r3, %lo(__bss_end)
 2000274:	18d9ff14 	ori	r3,r3,26620

    beq r2, r3, 1f
 2000278:	10c00326 	beq	r2,r3,2000288 <_start+0x40>

0:
    stw zero, (r2)
 200027c:	10000015 	stw	zero,0(r2)
    addi r2, r2, 4
 2000280:	10800104 	addi	r2,r2,4
    bltu r2, r3, 0b
 2000284:	10fffd36 	bltu	r2,r3,200027c <_start+0x34>
     * section aren't defined until alt_load() has been called).
     */
    mov   et, zero
#endif

    call alt_load
 2000288:	20103dc0 	call	20103dc <alt_load>

    /* Log that alt_main is about to be called. */
    ALT_LOG_PUTS(alt_log_msg_alt_main)

    /* Call the C entry point. It should never return. */
    call alt_main
 200028c:	20105700 	call	2010570 <alt_main>

02000290 <alt_after_alt_main>:

    /* Wait in infinite loop in case alt_main does return. */
alt_after_alt_main:
    br alt_after_alt_main
 2000290:	003fff06 	br	2000290 <alt_after_alt_main>

02000294 <main>:
#else
    #define DEBUG_PRINT
#endif

int main()
{
 2000294:	defff704 	addi	sp,sp,-36
 2000298:	dfc00815 	stw	ra,32(sp)
 200029c:	df000715 	stw	fp,28(sp)
 20002a0:	df000704 	addi	fp,sp,28
	int x_axis,x_prev, y_axis, y_prev;

	//Accelerometer part: definition of it (by his name, and the definition of the value that he is returning X_value and Y_value)
	// just to check if the accelerometer is 'alive'

	const char * accel_name =ACCELEROMETER_SPI_0_NAME;
 20002a4:	00808074 	movhi	r2,513
 20002a8:	108b1804 	addi	r2,r2,11360
 20002ac:	e0bffc15 	stw	r2,-16(fp)
	alt_up_accelerometer_spi_dev * accel_spi = NULL;
 20002b0:	e03ffd15 	stw	zero,-12(fp)

	accel_spi = alt_up_accelerometer_spi_open_dev(accel_name);
 20002b4:	e13ffc17 	ldw	r4,-16(fp)
 20002b8:	20115dc0 	call	20115dc <alt_up_accelerometer_spi_open_dev>
 20002bc:	e0bffd15 	stw	r2,-12(fp)
	if(accel_spi == NULL){
 20002c0:	e0bffd17 	ldw	r2,-12(fp)
 20002c4:	1000031e 	bne	r2,zero,20002d4 <main+0x40>
		printf("Accelerometer device not found.\n");
 20002c8:	01008074 	movhi	r4,513
 20002cc:	210b1f04 	addi	r4,r4,11388
 20002d0:	20009000 	call	2000900 <puts>
	}

  IOWR(MTL_IP_BASE,13,4);
 20002d4:	00c00104 	movi	r3,4
 20002d8:	008000b4 	movhi	r2,2
 20002dc:	10800d04 	addi	r2,r2,52
 20002e0:	10c00035 	stwio	r3,0(r2)
  int val = IORD(GPIO_BASE,0);
 20002e4:	00800834 	movhi	r2,32
 20002e8:	10810004 	addi	r2,r2,1024
 20002ec:	10800037 	ldwio	r2,0(r2)
 20002f0:	e0bff915 	stw	r2,-28(fp)
  while(!val)
 20002f4:	00001806 	br	2000358 <main+0xc4>
  {
	  val = IORD(GPIO_BASE,0);
 20002f8:	00800834 	movhi	r2,32
 20002fc:	10810004 	addi	r2,r2,1024
 2000300:	10800037 	ldwio	r2,0(r2)
 2000304:	e0bff915 	stw	r2,-28(fp)
	  printf("gpio value : %d\n",val);
 2000308:	e17ff917 	ldw	r5,-28(fp)
 200030c:	01008074 	movhi	r4,513
 2000310:	210b2704 	addi	r4,r4,11420
 2000314:	20007800 	call	2000780 <printf>
  int delay;
  for (delay = 0; delay < 5*5E4;delay++);
 2000318:	e03ffa15 	stw	zero,-24(fp)
 200031c:	00000306 	br	200032c <main+0x98>
 2000320:	e0bffa17 	ldw	r2,-24(fp)
 2000324:	10800044 	addi	r2,r2,1
 2000328:	e0bffa15 	stw	r2,-24(fp)
 200032c:	e13ffa17 	ldw	r4,-24(fp)
 2000330:	20005dc0 	call	20005dc <__floatsidf>
 2000334:	1011883a 	mov	r8,r2
 2000338:	1813883a 	mov	r9,r3
 200033c:	000d883a 	mov	r6,zero
 2000340:	01d043f4 	movhi	r7,16655
 2000344:	39e12004 	addi	r7,r7,-31616
 2000348:	4009883a 	mov	r4,r8
 200034c:	480b883a 	mov	r5,r9
 2000350:	20004e80 	call	20004e8 <__ledf2>
 2000354:	103ff216 	blt	r2,zero,2000320 <main+0x8c>
		printf("Accelerometer device not found.\n");
	}

  IOWR(MTL_IP_BASE,13,4);
  int val = IORD(GPIO_BASE,0);
  while(!val)
 2000358:	e0bff917 	ldw	r2,-28(fp)
 200035c:	103fe626 	beq	r2,zero,20002f8 <main+0x64>
	  val = IORD(GPIO_BASE,0);
	  printf("gpio value : %d\n",val);
  int delay;
  for (delay = 0; delay < 5*5E4;delay++);
  }
  IOWR(MTL_IP_BASE,13,2);
 2000360:	00c00084 	movi	r3,2
 2000364:	008000b4 	movhi	r2,2
 2000368:	10800d04 	addi	r2,r2,52
 200036c:	10c00035 	stwio	r3,0(r2)

  printf("Hello from Nios II!\n");
 2000370:	01008074 	movhi	r4,513
 2000374:	210b2c04 	addi	r4,r4,11440
 2000378:	20009000 	call	2000900 <puts>
  int x = 200;
 200037c:	00803204 	movi	r2,200
 2000380:	e0bffe15 	stw	r2,-8(fp)
  int y = 180;
 2000384:	00802d04 	movi	r2,180
 2000388:	e0bfff15 	stw	r2,-4(fp)
  IOWR(MTL_IP_BASE,11,(y<<10)+x);
 200038c:	e0bfff17 	ldw	r2,-4(fp)
 2000390:	100692ba 	slli	r3,r2,10
 2000394:	e0bffe17 	ldw	r2,-8(fp)
 2000398:	1887883a 	add	r3,r3,r2
 200039c:	008000b4 	movhi	r2,2
 20003a0:	10800b04 	addi	r2,r2,44
 20003a4:	10c00035 	stwio	r3,0(r2)
  IOWR(MTL_IP_BASE,12,2);
 20003a8:	00c00084 	movi	r3,2
 20003ac:	008000b4 	movhi	r2,2
 20003b0:	10800c04 	addi	r2,r2,48
 20003b4:	10c00035 	stwio	r3,0(r2)
  IOWR(MTL_IP_BASE,13,2);
 20003b8:	00c00084 	movi	r3,2
 20003bc:	008000b4 	movhi	r2,2
 20003c0:	10800d04 	addi	r2,r2,52
 20003c4:	10c00035 	stwio	r3,0(r2)
  int delay;
  for (delay = 0; delay < 5*5E5;delay++);
 20003c8:	e03ffb15 	stw	zero,-20(fp)
 20003cc:	00000306 	br	20003dc <main+0x148>
 20003d0:	e0bffb17 	ldw	r2,-20(fp)
 20003d4:	10800044 	addi	r2,r2,1
 20003d8:	e0bffb15 	stw	r2,-20(fp)
 20003dc:	e13ffb17 	ldw	r4,-20(fp)
 20003e0:	20005dc0 	call	20005dc <__floatsidf>
 20003e4:	1011883a 	mov	r8,r2
 20003e8:	1813883a 	mov	r9,r3
 20003ec:	000d883a 	mov	r6,zero
 20003f0:	01d050f4 	movhi	r7,16707
 20003f4:	39c4b404 	addi	r7,r7,4816
 20003f8:	4009883a 	mov	r4,r8
 20003fc:	480b883a 	mov	r5,r9
 2000400:	20004e80 	call	20004e8 <__ledf2>
 2000404:	103ff216 	blt	r2,zero,20003d0 <main+0x13c>
  printf("Switch display");
 2000408:	01008074 	movhi	r4,513
 200040c:	210b3104 	addi	r4,r4,11460
 2000410:	20007800 	call	2000780 <printf>
  IOWR(MTL_IP_BASE,13,3);
 2000414:	00c000c4 	movi	r3,3
 2000418:	008000b4 	movhi	r2,2
 200041c:	10800d04 	addi	r2,r2,52
 2000420:	10c00035 	stwio	r3,0(r2)
  for (delay = 0; delay < 5*5E5;delay++);
 2000424:	e03ffb15 	stw	zero,-20(fp)
 2000428:	00000306 	br	2000438 <main+0x1a4>
 200042c:	e0bffb17 	ldw	r2,-20(fp)
 2000430:	10800044 	addi	r2,r2,1
 2000434:	e0bffb15 	stw	r2,-20(fp)
 2000438:	e13ffb17 	ldw	r4,-20(fp)
 200043c:	20005dc0 	call	20005dc <__floatsidf>
 2000440:	1011883a 	mov	r8,r2
 2000444:	1813883a 	mov	r9,r3
 2000448:	000d883a 	mov	r6,zero
 200044c:	01d050f4 	movhi	r7,16707
 2000450:	39c4b404 	addi	r7,r7,4816
 2000454:	4009883a 	mov	r4,r8
 2000458:	480b883a 	mov	r5,r9
 200045c:	20004e80 	call	20004e8 <__ledf2>
 2000460:	103ff216 	blt	r2,zero,200042c <main+0x198>
    printf("Switch display");
 2000464:	01008074 	movhi	r4,513
 2000468:	210b3104 	addi	r4,r4,11460
 200046c:	20007800 	call	2000780 <printf>
    IOWR(MTL_IP_BASE,13,4);
 2000470:	00c00104 	movi	r3,4
 2000474:	008000b4 	movhi	r2,2
 2000478:	10800d04 	addi	r2,r2,52
 200047c:	10c00035 	stwio	r3,0(r2)
  for (delay = 0; delay < 5*5E5;delay++);
 2000480:	e03ffb15 	stw	zero,-20(fp)
 2000484:	00000306 	br	2000494 <main+0x200>
 2000488:	e0bffb17 	ldw	r2,-20(fp)
 200048c:	10800044 	addi	r2,r2,1
 2000490:	e0bffb15 	stw	r2,-20(fp)
 2000494:	e13ffb17 	ldw	r4,-20(fp)
 2000498:	20005dc0 	call	20005dc <__floatsidf>
 200049c:	1011883a 	mov	r8,r2
 20004a0:	1813883a 	mov	r9,r3
 20004a4:	000d883a 	mov	r6,zero
 20004a8:	01d050f4 	movhi	r7,16707
 20004ac:	39c4b404 	addi	r7,r7,4816
 20004b0:	4009883a 	mov	r4,r8
 20004b4:	480b883a 	mov	r5,r9
 20004b8:	20004e80 	call	20004e8 <__ledf2>
 20004bc:	103ff216 	blt	r2,zero,2000488 <main+0x1f4>
  IOWR(MTL_IP_BASE,12,2);
 20004c0:	00c00084 	movi	r3,2
 20004c4:	008000b4 	movhi	r2,2
 20004c8:	10800c04 	addi	r2,r2,48
 20004cc:	10c00035 	stwio	r3,0(r2)
//  		gesture_detected = 0;
//  		for (delay = 0; delay < 5E5;delay++);
  		//OSTimeDlyHMSM(0, 0, 0, 500);


  return 0;
 20004d0:	0005883a 	mov	r2,zero
}
 20004d4:	e037883a 	mov	sp,fp
 20004d8:	dfc00117 	ldw	ra,4(sp)
 20004dc:	df000017 	ldw	fp,0(sp)
 20004e0:	dec00204 	addi	sp,sp,8
 20004e4:	f800283a 	ret

020004e8 <__ledf2>:
 20004e8:	2804d53a 	srli	r2,r5,20
 20004ec:	3810d53a 	srli	r8,r7,20
 20004f0:	00c00434 	movhi	r3,16
 20004f4:	18ffffc4 	addi	r3,r3,-1
 20004f8:	1081ffcc 	andi	r2,r2,2047
 20004fc:	0241ffc4 	movi	r9,2047
 2000500:	28d4703a 	and	r10,r5,r3
 2000504:	4201ffcc 	andi	r8,r8,2047
 2000508:	38c6703a 	and	r3,r7,r3
 200050c:	280ad7fa 	srli	r5,r5,31
 2000510:	380ed7fa 	srli	r7,r7,31
 2000514:	12401f26 	beq	r2,r9,2000594 <__ledf2+0xac>
 2000518:	0241ffc4 	movi	r9,2047
 200051c:	42401426 	beq	r8,r9,2000570 <__ledf2+0x88>
 2000520:	1000091e 	bne	r2,zero,2000548 <__ledf2+0x60>
 2000524:	2296b03a 	or	r11,r4,r10
 2000528:	5813003a 	cmpeq	r9,r11,zero
 200052c:	29403fcc 	andi	r5,r5,255
 2000530:	40000a1e 	bne	r8,zero,200055c <__ledf2+0x74>
 2000534:	30d8b03a 	or	r12,r6,r3
 2000538:	6000081e 	bne	r12,zero,200055c <__ledf2+0x74>
 200053c:	0005883a 	mov	r2,zero
 2000540:	5800111e 	bne	r11,zero,2000588 <__ledf2+0xa0>
 2000544:	f800283a 	ret
 2000548:	29403fcc 	andi	r5,r5,255
 200054c:	40000c1e 	bne	r8,zero,2000580 <__ledf2+0x98>
 2000550:	30d2b03a 	or	r9,r6,r3
 2000554:	48000c26 	beq	r9,zero,2000588 <__ledf2+0xa0>
 2000558:	0013883a 	mov	r9,zero
 200055c:	39c03fcc 	andi	r7,r7,255
 2000560:	48000826 	beq	r9,zero,2000584 <__ledf2+0x9c>
 2000564:	38001126 	beq	r7,zero,20005ac <__ledf2+0xc4>
 2000568:	00800044 	movi	r2,1
 200056c:	f800283a 	ret
 2000570:	30d2b03a 	or	r9,r6,r3
 2000574:	483fea26 	beq	r9,zero,2000520 <__ledf2+0x38>
 2000578:	00800084 	movi	r2,2
 200057c:	f800283a 	ret
 2000580:	39c03fcc 	andi	r7,r7,255
 2000584:	39400726 	beq	r7,r5,20005a4 <__ledf2+0xbc>
 2000588:	2800081e 	bne	r5,zero,20005ac <__ledf2+0xc4>
 200058c:	00800044 	movi	r2,1
 2000590:	f800283a 	ret
 2000594:	2292b03a 	or	r9,r4,r10
 2000598:	483fdf26 	beq	r9,zero,2000518 <__ledf2+0x30>
 200059c:	00800084 	movi	r2,2
 20005a0:	f800283a 	ret
 20005a4:	4080030e 	bge	r8,r2,20005b4 <__ledf2+0xcc>
 20005a8:	383fef26 	beq	r7,zero,2000568 <__ledf2+0x80>
 20005ac:	00bfffc4 	movi	r2,-1
 20005b0:	f800283a 	ret
 20005b4:	123feb16 	blt	r2,r8,2000564 <__ledf2+0x7c>
 20005b8:	1abff336 	bltu	r3,r10,2000588 <__ledf2+0xa0>
 20005bc:	50c00326 	beq	r10,r3,20005cc <__ledf2+0xe4>
 20005c0:	50c0042e 	bgeu	r10,r3,20005d4 <__ledf2+0xec>
 20005c4:	283fe81e 	bne	r5,zero,2000568 <__ledf2+0x80>
 20005c8:	003ff806 	br	20005ac <__ledf2+0xc4>
 20005cc:	313fee36 	bltu	r6,r4,2000588 <__ledf2+0xa0>
 20005d0:	21bffc36 	bltu	r4,r6,20005c4 <__ledf2+0xdc>
 20005d4:	0005883a 	mov	r2,zero
 20005d8:	f800283a 	ret

020005dc <__floatsidf>:
 20005dc:	defffd04 	addi	sp,sp,-12
 20005e0:	dfc00215 	stw	ra,8(sp)
 20005e4:	dc400115 	stw	r17,4(sp)
 20005e8:	dc000015 	stw	r16,0(sp)
 20005ec:	20002b26 	beq	r4,zero,200069c <__floatsidf+0xc0>
 20005f0:	2023883a 	mov	r17,r4
 20005f4:	2020d7fa 	srli	r16,r4,31
 20005f8:	20002d16 	blt	r4,zero,20006b0 <__floatsidf+0xd4>
 20005fc:	8809883a 	mov	r4,r17
 2000600:	20006b80 	call	20006b8 <__clzsi2>
 2000604:	01410784 	movi	r5,1054
 2000608:	288bc83a 	sub	r5,r5,r2
 200060c:	01010cc4 	movi	r4,1075
 2000610:	2149c83a 	sub	r4,r4,r5
 2000614:	00c007c4 	movi	r3,31
 2000618:	1900160e 	bge	r3,r4,2000674 <__floatsidf+0x98>
 200061c:	00c104c4 	movi	r3,1043
 2000620:	1947c83a 	sub	r3,r3,r5
 2000624:	88c6983a 	sll	r3,r17,r3
 2000628:	00800434 	movhi	r2,16
 200062c:	10bfffc4 	addi	r2,r2,-1
 2000630:	1886703a 	and	r3,r3,r2
 2000634:	2941ffcc 	andi	r5,r5,2047
 2000638:	800d883a 	mov	r6,r16
 200063c:	0005883a 	mov	r2,zero
 2000640:	280a953a 	slli	r5,r5,20
 2000644:	31803fcc 	andi	r6,r6,255
 2000648:	01000434 	movhi	r4,16
 200064c:	300c97fa 	slli	r6,r6,31
 2000650:	213fffc4 	addi	r4,r4,-1
 2000654:	1906703a 	and	r3,r3,r4
 2000658:	1946b03a 	or	r3,r3,r5
 200065c:	1986b03a 	or	r3,r3,r6
 2000660:	dfc00217 	ldw	ra,8(sp)
 2000664:	dc400117 	ldw	r17,4(sp)
 2000668:	dc000017 	ldw	r16,0(sp)
 200066c:	dec00304 	addi	sp,sp,12
 2000670:	f800283a 	ret
 2000674:	00c002c4 	movi	r3,11
 2000678:	1887c83a 	sub	r3,r3,r2
 200067c:	88c6d83a 	srl	r3,r17,r3
 2000680:	8904983a 	sll	r2,r17,r4
 2000684:	01000434 	movhi	r4,16
 2000688:	213fffc4 	addi	r4,r4,-1
 200068c:	2941ffcc 	andi	r5,r5,2047
 2000690:	1906703a 	and	r3,r3,r4
 2000694:	800d883a 	mov	r6,r16
 2000698:	003fe906 	br	2000640 <__floatsidf+0x64>
 200069c:	000d883a 	mov	r6,zero
 20006a0:	000b883a 	mov	r5,zero
 20006a4:	0007883a 	mov	r3,zero
 20006a8:	0005883a 	mov	r2,zero
 20006ac:	003fe406 	br	2000640 <__floatsidf+0x64>
 20006b0:	0123c83a 	sub	r17,zero,r4
 20006b4:	003fd106 	br	20005fc <__floatsidf+0x20>

020006b8 <__clzsi2>:
 20006b8:	00bfffd4 	movui	r2,65535
 20006bc:	11000536 	bltu	r2,r4,20006d4 <__clzsi2+0x1c>
 20006c0:	00803fc4 	movi	r2,255
 20006c4:	11000f36 	bltu	r2,r4,2000704 <__clzsi2+0x4c>
 20006c8:	00800804 	movi	r2,32
 20006cc:	0007883a 	mov	r3,zero
 20006d0:	00000506 	br	20006e8 <__clzsi2+0x30>
 20006d4:	00804034 	movhi	r2,256
 20006d8:	10bfffc4 	addi	r2,r2,-1
 20006dc:	11000c2e 	bgeu	r2,r4,2000710 <__clzsi2+0x58>
 20006e0:	00800204 	movi	r2,8
 20006e4:	00c00604 	movi	r3,24
 20006e8:	20c8d83a 	srl	r4,r4,r3
 20006ec:	00c08074 	movhi	r3,513
 20006f0:	18cb34c4 	addi	r3,r3,11475
 20006f4:	1909883a 	add	r4,r3,r4
 20006f8:	20c00003 	ldbu	r3,0(r4)
 20006fc:	10c5c83a 	sub	r2,r2,r3
 2000700:	f800283a 	ret
 2000704:	00800604 	movi	r2,24
 2000708:	00c00204 	movi	r3,8
 200070c:	003ff606 	br	20006e8 <__clzsi2+0x30>
 2000710:	00800404 	movi	r2,16
 2000714:	1007883a 	mov	r3,r2
 2000718:	003ff306 	br	20006e8 <__clzsi2+0x30>

0200071c <_printf_r>:

int
_DEFUN(_printf_r, (ptr, fmt),
       struct _reent *ptr _AND
       const char *__restrict fmt _DOTS)
{
 200071c:	defff804 	addi	sp,sp,-32
 2000720:	dfc00515 	stw	ra,20(sp)
 2000724:	df000415 	stw	fp,16(sp)
 2000728:	df000404 	addi	fp,sp,16
 200072c:	e13ffe15 	stw	r4,-8(fp)
 2000730:	e17fff15 	stw	r5,-4(fp)
 2000734:	e1800215 	stw	r6,8(fp)
 2000738:	e1c00315 	stw	r7,12(fp)
  int ret;
  va_list ap;

  _REENT_SMALL_CHECK_INIT (ptr);
  _FILE_INIT_DEV_WRITE (_stdout_r (ptr));						/* AlteraSpecific */
  va_start (ap, fmt);
 200073c:	e0800204 	addi	r2,fp,8
 2000740:	e0bffd15 	stw	r2,-12(fp)
/*ret =   _vfprintf_r          (ptr, _stdout_r (ptr), fmt, ap);	*/	/*1.16.0*/	/* AlteraSpecific */
/*ret = ___vfprintf_internal_r (ptr, _stdout_r (ptr), fmt, ap);	*/	/*1.16  */	/* AlteraSpecific */
/*ret =   _vfprintf_r          (ptr, _stdout_r (ptr), fmt, ap);	*/	/*1.18.0*/	/* AlteraSpecific */
/*ret =   _vfprintf_r          (ptr, _stdout_r (ptr), fmt, ap);	*/	/* try1 */	/* AlteraSpecific */
  ret = ___vfprintf_internal_r (ptr, _stdout_r (ptr), fmt, ap);		/* try2 */	/* AlteraSpecific */
 2000744:	e0bffe17 	ldw	r2,-8(fp)
 2000748:	10800217 	ldw	r2,8(r2)
 200074c:	e0fffd17 	ldw	r3,-12(fp)
 2000750:	180f883a 	mov	r7,r3
 2000754:	e1bfff17 	ldw	r6,-4(fp)
 2000758:	100b883a 	mov	r5,r2
 200075c:	e13ffe17 	ldw	r4,-8(fp)
 2000760:	2000b6c0 	call	2000b6c <___vfprintf_internal_r>
 2000764:	e0bffc15 	stw	r2,-16(fp)
  va_end (ap);
  return ret;
 2000768:	e0bffc17 	ldw	r2,-16(fp)
}
 200076c:	e037883a 	mov	sp,fp
 2000770:	dfc00117 	ldw	ra,4(sp)
 2000774:	df000017 	ldw	fp,0(sp)
 2000778:	dec00404 	addi	sp,sp,16
 200077c:	f800283a 	ret

02000780 <printf>:
#ifndef _REENT_ONLY

int
_DEFUN(printf, (fmt),
       const char *__restrict fmt _DOTS)
{
 2000780:	defff704 	addi	sp,sp,-36
 2000784:	dfc00515 	stw	ra,20(sp)
 2000788:	df000415 	stw	fp,16(sp)
 200078c:	df000404 	addi	fp,sp,16
 2000790:	e13fff15 	stw	r4,-4(fp)
 2000794:	e1400215 	stw	r5,8(fp)
 2000798:	e1800315 	stw	r6,12(fp)
 200079c:	e1c00415 	stw	r7,16(fp)
  int ret;
  va_list ap;
  struct _reent *ptr = _REENT;
 20007a0:	d0a00017 	ldw	r2,-32768(gp)
 20007a4:	e0bffc15 	stw	r2,-16(fp)

  _REENT_SMALL_CHECK_INIT (ptr);
  _FILE_INIT_DEV_WRITE (_stdout_r (_REENT));					/* AlteraSpecific. Mirror changes here in iprintf.c */
  va_start (ap, fmt);
 20007a8:	e0800204 	addi	r2,fp,8
 20007ac:	e0bffe15 	stw	r2,-8(fp)
/*ret =  _vfprintf_r        (ptr, _stdout_r    (ptr), fmt, ap);	*/ /*1.16.0*/	/* AlteraSpecific */
/*ret = __vfprintf_internal (     _stdout_r (_REENT), fmt, ap);	*/ /*1.16  */	/* AlteraSpecific */
/*ret =  _vfprintf_r        (ptr, _stdout_r    (ptr), fmt, ap);	*/ /*1.18.0*/	/* AlteraSpecific */
/*ret =  _vfprintf_r        (ptr, _stdout_r    (ptr), fmt, ap); */ /* try1 */	/* AlteraSpecific */
  ret = __vfprintf_internal (     _stdout_r (_REENT), fmt, ap);    /* try2 */	/* AlteraSpecific */
 20007b0:	d0a00017 	ldw	r2,-32768(gp)
 20007b4:	10800217 	ldw	r2,8(r2)
 20007b8:	e0fffe17 	ldw	r3,-8(fp)
 20007bc:	180d883a 	mov	r6,r3
 20007c0:	e17fff17 	ldw	r5,-4(fp)
 20007c4:	1009883a 	mov	r4,r2
 20007c8:	2000b1c0 	call	2000b1c <__vfprintf_internal>
 20007cc:	e0bffd15 	stw	r2,-12(fp)
  va_end (ap);
  return ret;
 20007d0:	e0bffd17 	ldw	r2,-12(fp)
}
 20007d4:	e037883a 	mov	sp,fp
 20007d8:	dfc00117 	ldw	ra,4(sp)
 20007dc:	df000017 	ldw	fp,0(sp)
 20007e0:	dec00504 	addi	sp,sp,20
 20007e4:	f800283a 	ret

020007e8 <_puts_r>:

int
_DEFUN(_puts_r, (ptr, s),
       struct _reent *ptr _AND
       _CONST char * s)
{
 20007e8:	defff104 	addi	sp,sp,-60
 20007ec:	dfc00e15 	stw	ra,56(sp)
 20007f0:	df000d15 	stw	fp,52(sp)
 20007f4:	df000d04 	addi	fp,sp,52
 20007f8:	e13ffe15 	stw	r4,-8(fp)
 20007fc:	e17fff15 	stw	r5,-4(fp)
#ifdef _FVWRITE_IN_STREAMIO
  int result;
  size_t c = strlen (s);
 2000800:	e13fff17 	ldw	r4,-4(fp)
 2000804:	20009380 	call	2000938 <strlen>
 2000808:	e0bff315 	stw	r2,-52(fp)
  struct __suio uio;
  struct __siov iov[2];
  FILE *fp;

  iov[0].iov_base = s;
 200080c:	e0bfff17 	ldw	r2,-4(fp)
 2000810:	e0bffa15 	stw	r2,-24(fp)
  iov[0].iov_len = c;
 2000814:	e0bff317 	ldw	r2,-52(fp)
 2000818:	e0bffb15 	stw	r2,-20(fp)
  iov[1].iov_base = "\n";
 200081c:	00808074 	movhi	r2,513
 2000820:	108b7504 	addi	r2,r2,11732
 2000824:	e0bffc15 	stw	r2,-16(fp)
  iov[1].iov_len = 1;
 2000828:	00800044 	movi	r2,1
 200082c:	e0bffd15 	stw	r2,-12(fp)
  uio.uio_resid = c + 1;
 2000830:	e0bff317 	ldw	r2,-52(fp)
 2000834:	10800044 	addi	r2,r2,1
 2000838:	e0bff915 	stw	r2,-28(fp)
  uio.uio_iov = &iov[0];
 200083c:	e0bffa04 	addi	r2,fp,-24
 2000840:	e0bff715 	stw	r2,-36(fp)
  uio.uio_iovcnt = 2;
 2000844:	00800084 	movi	r2,2
 2000848:	e0bff815 	stw	r2,-32(fp)

  CHECK_STD_INIT (ptr);
 200084c:	e0bffe17 	ldw	r2,-8(fp)
 2000850:	e0bff415 	stw	r2,-48(fp)
 2000854:	e0bff417 	ldw	r2,-48(fp)
 2000858:	10000526 	beq	r2,zero,2000870 <_puts_r+0x88>
 200085c:	e0bff417 	ldw	r2,-48(fp)
 2000860:	10800e17 	ldw	r2,56(r2)
 2000864:	1000021e 	bne	r2,zero,2000870 <_puts_r+0x88>
 2000868:	e13ff417 	ldw	r4,-48(fp)
 200086c:	20057d80 	call	20057d8 <__sinit>
  fp = _stdout_r (ptr);
 2000870:	e0bffe17 	ldw	r2,-8(fp)
 2000874:	10800217 	ldw	r2,8(r2)
 2000878:	e0bff515 	stw	r2,-44(fp)
  _newlib_flockfile_start (fp);
  ORIENT (fp, -1);
 200087c:	e0bff517 	ldw	r2,-44(fp)
 2000880:	1080030b 	ldhu	r2,12(r2)
 2000884:	10bfffcc 	andi	r2,r2,65535
 2000888:	1088000c 	andi	r2,r2,8192
 200088c:	10000c1e 	bne	r2,zero,20008c0 <_puts_r+0xd8>
 2000890:	e0bff517 	ldw	r2,-44(fp)
 2000894:	1080030b 	ldhu	r2,12(r2)
 2000898:	10880014 	ori	r2,r2,8192
 200089c:	1007883a 	mov	r3,r2
 20008a0:	e0bff517 	ldw	r2,-44(fp)
 20008a4:	10c0030d 	sth	r3,12(r2)
 20008a8:	e0bff517 	ldw	r2,-44(fp)
 20008ac:	10c01917 	ldw	r3,100(r2)
 20008b0:	00b7ffc4 	movi	r2,-8193
 20008b4:	1886703a 	and	r3,r3,r2
 20008b8:	e0bff517 	ldw	r2,-44(fp)
 20008bc:	10c01915 	stw	r3,100(r2)
  result = (__sfvwrite_r (ptr, fp, &uio) ? EOF : '\n');
 20008c0:	e0bff704 	addi	r2,fp,-36
 20008c4:	100d883a 	mov	r6,r2
 20008c8:	e17ff517 	ldw	r5,-44(fp)
 20008cc:	e13ffe17 	ldw	r4,-8(fp)
 20008d0:	20061240 	call	2006124 <__sfvwrite_r>
 20008d4:	10000226 	beq	r2,zero,20008e0 <_puts_r+0xf8>
 20008d8:	00bfffc4 	movi	r2,-1
 20008dc:	00000106 	br	20008e4 <_puts_r+0xfc>
 20008e0:	00800284 	movi	r2,10
 20008e4:	e0bff615 	stw	r2,-40(fp)
  _newlib_flockfile_end (fp);
  return result;
 20008e8:	e0bff617 	ldw	r2,-40(fp)

err:
  _newlib_flockfile_end (fp);
  return result;
#endif
}
 20008ec:	e037883a 	mov	sp,fp
 20008f0:	dfc00117 	ldw	ra,4(sp)
 20008f4:	df000017 	ldw	fp,0(sp)
 20008f8:	dec00204 	addi	sp,sp,8
 20008fc:	f800283a 	ret

02000900 <puts>:
#ifndef _REENT_ONLY

int
_DEFUN(puts, (s),
       char _CONST * s)
{
 2000900:	defffd04 	addi	sp,sp,-12
 2000904:	dfc00215 	stw	ra,8(sp)
 2000908:	df000115 	stw	fp,4(sp)
 200090c:	df000104 	addi	fp,sp,4
 2000910:	e13fff15 	stw	r4,-4(fp)
  return _puts_r (_REENT, s);
 2000914:	d0a00017 	ldw	r2,-32768(gp)
 2000918:	e17fff17 	ldw	r5,-4(fp)
 200091c:	1009883a 	mov	r4,r2
 2000920:	20007e80 	call	20007e8 <_puts_r>
}
 2000924:	e037883a 	mov	sp,fp
 2000928:	dfc00117 	ldw	ra,4(sp)
 200092c:	df000017 	ldw	fp,0(sp)
 2000930:	dec00204 	addi	sp,sp,8
 2000934:	f800283a 	ret

02000938 <strlen>:
#endif

size_t
_DEFUN (strlen, (str),
	_CONST char *str)
{
 2000938:	defffc04 	addi	sp,sp,-16
 200093c:	df000315 	stw	fp,12(sp)
 2000940:	df000304 	addi	fp,sp,12
 2000944:	e13fff15 	stw	r4,-4(fp)
  _CONST char *start = str;
 2000948:	e0bfff17 	ldw	r2,-4(fp)
 200094c:	e0bffe15 	stw	r2,-8(fp)

#if !defined(PREFER_SIZE_OVER_SPEED) && !defined(__OPTIMIZE_SIZE__)
  unsigned long *aligned_addr;

  /* Align the pointer, so we can search a word at a time.  */
  while (UNALIGNED (str))
 2000950:	00000d06 	br	2000988 <strlen+0x50>
    {
      if (!*str)
 2000954:	e0bfff17 	ldw	r2,-4(fp)
 2000958:	10800003 	ldbu	r2,0(r2)
 200095c:	10803fcc 	andi	r2,r2,255
 2000960:	1080201c 	xori	r2,r2,128
 2000964:	10bfe004 	addi	r2,r2,-128
 2000968:	1000041e 	bne	r2,zero,200097c <strlen+0x44>
	return str - start;
 200096c:	e0ffff17 	ldw	r3,-4(fp)
 2000970:	e0bffe17 	ldw	r2,-8(fp)
 2000974:	1885c83a 	sub	r2,r3,r2
 2000978:	00002806 	br	2000a1c <strlen+0xe4>
      str++;
 200097c:	e0bfff17 	ldw	r2,-4(fp)
 2000980:	10800044 	addi	r2,r2,1
 2000984:	e0bfff15 	stw	r2,-4(fp)

#if !defined(PREFER_SIZE_OVER_SPEED) && !defined(__OPTIMIZE_SIZE__)
  unsigned long *aligned_addr;

  /* Align the pointer, so we can search a word at a time.  */
  while (UNALIGNED (str))
 2000988:	e0bfff17 	ldw	r2,-4(fp)
 200098c:	108000cc 	andi	r2,r2,3
 2000990:	103ff01e 	bne	r2,zero,2000954 <strlen+0x1c>
      str++;
    }

  /* If the string is word-aligned, we can check for the presence of
     a null in each word-sized block.  */
  aligned_addr = (unsigned long *)str;
 2000994:	e0bfff17 	ldw	r2,-4(fp)
 2000998:	e0bffd15 	stw	r2,-12(fp)
  while (!DETECTNULL (*aligned_addr))
 200099c:	00000306 	br	20009ac <strlen+0x74>
    aligned_addr++;
 20009a0:	e0bffd17 	ldw	r2,-12(fp)
 20009a4:	10800104 	addi	r2,r2,4
 20009a8:	e0bffd15 	stw	r2,-12(fp)
    }

  /* If the string is word-aligned, we can check for the presence of
     a null in each word-sized block.  */
  aligned_addr = (unsigned long *)str;
  while (!DETECTNULL (*aligned_addr))
 20009ac:	e0bffd17 	ldw	r2,-12(fp)
 20009b0:	10c00017 	ldw	r3,0(r2)
 20009b4:	00bfbff4 	movhi	r2,65279
 20009b8:	10bfbfc4 	addi	r2,r2,-257
 20009bc:	1887883a 	add	r3,r3,r2
 20009c0:	e0bffd17 	ldw	r2,-12(fp)
 20009c4:	10800017 	ldw	r2,0(r2)
 20009c8:	0084303a 	nor	r2,zero,r2
 20009cc:	1886703a 	and	r3,r3,r2
 20009d0:	00a02074 	movhi	r2,32897
 20009d4:	10a02004 	addi	r2,r2,-32640
 20009d8:	1884703a 	and	r2,r3,r2
 20009dc:	103ff026 	beq	r2,zero,20009a0 <strlen+0x68>
    aligned_addr++;

  /* Once a null is detected, we check each byte in that block for a
     precise position of the null.  */
  str = (char *) aligned_addr;
 20009e0:	e0bffd17 	ldw	r2,-12(fp)
 20009e4:	e0bfff15 	stw	r2,-4(fp)

#endif /* not PREFER_SIZE_OVER_SPEED */

  while (*str)
 20009e8:	00000306 	br	20009f8 <strlen+0xc0>
    str++;
 20009ec:	e0bfff17 	ldw	r2,-4(fp)
 20009f0:	10800044 	addi	r2,r2,1
 20009f4:	e0bfff15 	stw	r2,-4(fp)
     precise position of the null.  */
  str = (char *) aligned_addr;

#endif /* not PREFER_SIZE_OVER_SPEED */

  while (*str)
 20009f8:	e0bfff17 	ldw	r2,-4(fp)
 20009fc:	10800003 	ldbu	r2,0(r2)
 2000a00:	10803fcc 	andi	r2,r2,255
 2000a04:	1080201c 	xori	r2,r2,128
 2000a08:	10bfe004 	addi	r2,r2,-128
 2000a0c:	103ff71e 	bne	r2,zero,20009ec <strlen+0xb4>
    str++;
  return str - start;
 2000a10:	e0ffff17 	ldw	r3,-4(fp)
 2000a14:	e0bffe17 	ldw	r2,-8(fp)
 2000a18:	1885c83a 	sub	r2,r3,r2
}
 2000a1c:	e037883a 	mov	sp,fp
 2000a20:	df000017 	ldw	fp,0(sp)
 2000a24:	dec00104 	addi	sp,sp,4
 2000a28:	f800283a 	ret

02000a2c <__sbprintf>:
_DEFUN(__sbprintf, (rptr, fp, fmt, ap),
       struct _reent *rptr _AND
       register FILE *fp   _AND
       _CONST char *fmt  _AND
       va_list ap)
{
 2000a2c:	defedf04 	addi	sp,sp,-1156
 2000a30:	dfc12015 	stw	ra,1152(sp)
 2000a34:	df011f15 	stw	fp,1148(sp)
 2000a38:	dc011e15 	stw	r16,1144(sp)
 2000a3c:	df011f04 	addi	fp,sp,1148
 2000a40:	e13ffc15 	stw	r4,-16(fp)
 2000a44:	2821883a 	mov	r16,r5
 2000a48:	e1bffd15 	stw	r6,-12(fp)
 2000a4c:	e1fffe15 	stw	r7,-8(fp)
	int ret;
	FILE fake;
	unsigned char buf[BUFSIZ];

	/* copy the important variables */
	fake._flags = fp->_flags & ~__SNBF;
 2000a50:	80c0030b 	ldhu	r3,12(r16)
 2000a54:	00bfff44 	movi	r2,-3
 2000a58:	1884703a 	and	r2,r3,r2
 2000a5c:	e0bee50d 	sth	r2,-1132(fp)
	fake._flags2 = fp->_flags2;
 2000a60:	80801917 	ldw	r2,100(r16)
 2000a64:	e0befb15 	stw	r2,-1044(fp)
	fake._file = fp->_file;
 2000a68:	8080038b 	ldhu	r2,14(r16)
 2000a6c:	e0bee58d 	sth	r2,-1130(fp)
	fake._cookie = fp->_cookie;
 2000a70:	80800717 	ldw	r2,28(r16)
 2000a74:	e0bee915 	stw	r2,-1116(fp)
	fake._write = fp->_write;
 2000a78:	80800917 	ldw	r2,36(r16)
 2000a7c:	e0beeb15 	stw	r2,-1108(fp)

	/* set up the buffer */
	fake._bf._base = fake._p = buf;
 2000a80:	e0befc04 	addi	r2,fp,-1040
 2000a84:	e0bee215 	stw	r2,-1144(fp)
 2000a88:	e0bee217 	ldw	r2,-1144(fp)
 2000a8c:	e0bee615 	stw	r2,-1128(fp)
	fake._bf._size = fake._w = sizeof (buf);
 2000a90:	00810004 	movi	r2,1024
 2000a94:	e0bee415 	stw	r2,-1136(fp)
 2000a98:	e0bee417 	ldw	r2,-1136(fp)
 2000a9c:	e0bee715 	stw	r2,-1124(fp)
	fake._lbfsize = 0;	/* not actually used, but Just In Case */
 2000aa0:	e03ee815 	stw	zero,-1120(fp)
#ifndef __SINGLE_THREAD__
	__lock_init_recursive (fake._lock);
#endif

	/* do the work, then copy any error status */
	ret = _VFPRINTF_R (rptr, &fake, fmt, ap);
 2000aa4:	e0bee204 	addi	r2,fp,-1144
 2000aa8:	e1fffe17 	ldw	r7,-8(fp)
 2000aac:	e1bffd17 	ldw	r6,-12(fp)
 2000ab0:	100b883a 	mov	r5,r2
 2000ab4:	e13ffc17 	ldw	r4,-16(fp)
 2000ab8:	2000b6c0 	call	2000b6c <___vfprintf_internal_r>
 2000abc:	e0bee115 	stw	r2,-1148(fp)
	if (ret >= 0 && _fflush_r (rptr, &fake))
 2000ac0:	e0bee117 	ldw	r2,-1148(fp)
 2000ac4:	10000716 	blt	r2,zero,2000ae4 <__sbprintf+0xb8>
 2000ac8:	e0bee204 	addi	r2,fp,-1144
 2000acc:	100b883a 	mov	r5,r2
 2000ad0:	e13ffc17 	ldw	r4,-16(fp)
 2000ad4:	20053580 	call	2005358 <_fflush_r>
 2000ad8:	10000226 	beq	r2,zero,2000ae4 <__sbprintf+0xb8>
		ret = EOF;
 2000adc:	00bfffc4 	movi	r2,-1
 2000ae0:	e0bee115 	stw	r2,-1148(fp)
	if (fake._flags & __SERR)
 2000ae4:	e0bee50b 	ldhu	r2,-1132(fp)
 2000ae8:	10bfffcc 	andi	r2,r2,65535
 2000aec:	1080100c 	andi	r2,r2,64
 2000af0:	10000326 	beq	r2,zero,2000b00 <__sbprintf+0xd4>
		fp->_flags |= __SERR;
 2000af4:	8080030b 	ldhu	r2,12(r16)
 2000af8:	10801014 	ori	r2,r2,64
 2000afc:	8080030d 	sth	r2,12(r16)

#ifndef __SINGLE_THREAD__
	__lock_close_recursive (fake._lock);
#endif
	return (ret);
 2000b00:	e0bee117 	ldw	r2,-1148(fp)
}
 2000b04:	e6ffff04 	addi	sp,fp,-4
 2000b08:	dfc00217 	ldw	ra,8(sp)
 2000b0c:	df000117 	ldw	fp,4(sp)
 2000b10:	dc000017 	ldw	r16,0(sp)
 2000b14:	dec00304 	addi	sp,sp,12
 2000b18:	f800283a 	ret

02000b1c <__vfprintf_internal>:
int
_DEFUN(VFPRINTF, (fp, fmt0, ap),
       FILE * fp         _AND
       _CONST char *fmt0 _AND
       va_list ap)
{
 2000b1c:	defffa04 	addi	sp,sp,-24
 2000b20:	dfc00515 	stw	ra,20(sp)
 2000b24:	df000415 	stw	fp,16(sp)
 2000b28:	df000404 	addi	fp,sp,16
 2000b2c:	e13ffd15 	stw	r4,-12(fp)
 2000b30:	e17ffe15 	stw	r5,-8(fp)
 2000b34:	e1bfff15 	stw	r6,-4(fp)
  int result;
  result = _VFPRINTF_R (_REENT, fp, fmt0, ap);
 2000b38:	d0a00017 	ldw	r2,-32768(gp)
 2000b3c:	e1ffff17 	ldw	r7,-4(fp)
 2000b40:	e1bffe17 	ldw	r6,-8(fp)
 2000b44:	e17ffd17 	ldw	r5,-12(fp)
 2000b48:	1009883a 	mov	r4,r2
 2000b4c:	2000b6c0 	call	2000b6c <___vfprintf_internal_r>
 2000b50:	e0bffc15 	stw	r2,-16(fp)
  return result;
 2000b54:	e0bffc17 	ldw	r2,-16(fp)
}
 2000b58:	e037883a 	mov	sp,fp
 2000b5c:	dfc00117 	ldw	ra,4(sp)
 2000b60:	df000017 	ldw	fp,0(sp)
 2000b64:	dec00204 	addi	sp,sp,8
 2000b68:	f800283a 	ret

02000b6c <___vfprintf_internal_r>:
_DEFUN(_VFPRINTF_R, (data, fp, fmt0, ap),
       struct _reent *data _AND
       FILE * fp           _AND
       _CONST char *fmt0   _AND
       va_list ap)
{
 2000b6c:	deffa404 	addi	sp,sp,-368
 2000b70:	dfc05b15 	stw	ra,364(sp)
 2000b74:	df005a15 	stw	fp,360(sp)
 2000b78:	ddc05915 	stw	r23,356(sp)
 2000b7c:	dd805815 	stw	r22,352(sp)
 2000b80:	dd405715 	stw	r21,348(sp)
 2000b84:	dd005615 	stw	r20,344(sp)
 2000b88:	dcc05515 	stw	r19,340(sp)
 2000b8c:	dc805415 	stw	r18,336(sp)
 2000b90:	dc405315 	stw	r17,332(sp)
 2000b94:	dc005215 	stw	r16,328(sp)
 2000b98:	df005a04 	addi	fp,sp,360
 2000b9c:	e13fe615 	stw	r4,-104(fp)
 2000ba0:	e17fe715 	stw	r5,-100(fp)
 2000ba4:	e1bfe815 	stw	r6,-96(fp)
 2000ba8:	e1ffe915 	stw	r7,-92(fp)
	char *thousands_sep = NULL;
	size_t thsnd_len = 0;
	const char *grouping = NULL;
#endif
#ifdef FLOATING_POINT
	char *decimal_point = _localeconv_r (data)->decimal_point;
 2000bac:	e13fe617 	ldw	r4,-104(fp)
 2000bb0:	20069c00 	call	20069c0 <_localeconv_r>
 2000bb4:	10800017 	ldw	r2,0(r2)
 2000bb8:	e0bfbb15 	stw	r2,-276(fp)
	size_t decp_len = strlen (decimal_point);
 2000bbc:	e13fbb17 	ldw	r4,-276(fp)
 2000bc0:	20009380 	call	2000938 <strlen>
 2000bc4:	e0bfbc15 	stw	r2,-272(fp)
	char softsign;		/* temporary negative sign for floats */
	union { int i; _PRINTF_FLOAT_TYPE fp; } _double_ = {0};
 2000bc8:	e03fc215 	stw	zero,-248(fp)
 2000bcc:	e03fc315 	stw	zero,-244(fp)
# define _fpvalue (_double_.fp)
	int expt;		/* integer value of exponent */
	int expsize = 0;	/* character count for expstr */
 2000bd0:	e03faf15 	stw	zero,-324(fp)
	char expstr[MAXEXPLEN];	/* buffer for exponent string */
	int lead;		/* sig figs before decimal or group sep */
#endif /* FLOATING_POINT */
#if defined (FLOATING_POINT) || defined (_WANT_IO_C99_FORMATS)
	int ndig = 0;		/* actual number of digits returned by cvt */
 2000bd4:	e03fc715 	stw	zero,-228(fp)
	u_quad_t _uquad;	/* integer arguments %[diouxX] */
	enum { OCT, DEC, HEX } base;/* base for [diouxX] conversion */
	int dprec;		/* a copy of prec if [diouxX], 0 otherwise */
	int realsz;		/* field size expanded by dprec */
	int size;		/* size of converted field or string */
	char *xdigs = NULL;	/* digits for [xX] conversion */
 2000bd8:	e03fb715 	stw	zero,-292(fp)
	char ox[2];		/* space for 0x hex-prefix */
#ifdef _MB_CAPABLE
	wchar_t wc;
	mbstate_t state;        /* mbtowc calls from library must not change state */
#endif
	char *malloc_buf = NULL;/* handy pointer for malloced buffers */
 2000bdc:	e03fb815 	stw	zero,-288(fp)
	    (u_long)GET_ARG (N, ap, u_int))
#endif

#ifndef STRING_ONLY
	/* Initialize std streams if not dealing with sprintf family.  */
	CHECK_INIT (data, fp);
 2000be0:	e0bfe617 	ldw	r2,-104(fp)
 2000be4:	e0bfbd15 	stw	r2,-268(fp)
 2000be8:	e0bfbd17 	ldw	r2,-268(fp)
 2000bec:	10000526 	beq	r2,zero,2000c04 <___vfprintf_internal_r+0x98>
 2000bf0:	e0bfbd17 	ldw	r2,-268(fp)
 2000bf4:	10800e17 	ldw	r2,56(r2)
 2000bf8:	1000021e 	bne	r2,zero,2000c04 <___vfprintf_internal_r+0x98>
 2000bfc:	e13fbd17 	ldw	r4,-268(fp)
 2000c00:	20057d80 	call	20057d8 <__sinit>
	_newlib_flockfile_start (fp);

	ORIENT(fp, -1);
 2000c04:	e0bfe717 	ldw	r2,-100(fp)
 2000c08:	1080030b 	ldhu	r2,12(r2)
 2000c0c:	10bfffcc 	andi	r2,r2,65535
 2000c10:	1088000c 	andi	r2,r2,8192
 2000c14:	10000c1e 	bne	r2,zero,2000c48 <___vfprintf_internal_r+0xdc>
 2000c18:	e0bfe717 	ldw	r2,-100(fp)
 2000c1c:	1080030b 	ldhu	r2,12(r2)
 2000c20:	10880014 	ori	r2,r2,8192
 2000c24:	1007883a 	mov	r3,r2
 2000c28:	e0bfe717 	ldw	r2,-100(fp)
 2000c2c:	10c0030d 	sth	r3,12(r2)
 2000c30:	e0bfe717 	ldw	r2,-100(fp)
 2000c34:	10c01917 	ldw	r3,100(r2)
 2000c38:	00b7ffc4 	movi	r2,-8193
 2000c3c:	1886703a 	and	r3,r3,r2
 2000c40:	e0bfe717 	ldw	r2,-100(fp)
 2000c44:	10c01915 	stw	r3,100(r2)

	/* sorry, fprintf(read_only_file, "") returns EOF, not 0 */
	if (cantwrite (data, fp)) {
 2000c48:	e0bfe717 	ldw	r2,-100(fp)
 2000c4c:	1080030b 	ldhu	r2,12(r2)
 2000c50:	10bfffcc 	andi	r2,r2,65535
 2000c54:	1080020c 	andi	r2,r2,8
 2000c58:	10000326 	beq	r2,zero,2000c68 <___vfprintf_internal_r+0xfc>
 2000c5c:	e0bfe717 	ldw	r2,-100(fp)
 2000c60:	10800417 	ldw	r2,16(r2)
 2000c64:	1000061e 	bne	r2,zero,2000c80 <___vfprintf_internal_r+0x114>
 2000c68:	e17fe717 	ldw	r5,-100(fp)
 2000c6c:	e13fe617 	ldw	r4,-104(fp)
 2000c70:	2002f880 	call	2002f88 <__swsetup_r>
 2000c74:	10000226 	beq	r2,zero,2000c80 <___vfprintf_internal_r+0x114>
		_newlib_flockfile_exit (fp);
		return (EOF);
 2000c78:	00bfffc4 	movi	r2,-1
 2000c7c:	0007e206 	br	2002c08 <___vfprintf_internal_r+0x209c>
	}

#ifdef _UNBUF_STREAM_OPT
	/* optimise fprintf(stderr) (and other unbuffered Unix files) */
	if ((fp->_flags & (__SNBF|__SWR|__SRW)) == (__SNBF|__SWR) &&
 2000c80:	e0bfe717 	ldw	r2,-100(fp)
 2000c84:	1080030b 	ldhu	r2,12(r2)
 2000c88:	10bfffcc 	andi	r2,r2,65535
 2000c8c:	1080068c 	andi	r2,r2,26
 2000c90:	10800298 	cmpnei	r2,r2,10
 2000c94:	10000c1e 	bne	r2,zero,2000cc8 <___vfprintf_internal_r+0x15c>
	    fp->_file >= 0) {
 2000c98:	e0bfe717 	ldw	r2,-100(fp)
 2000c9c:	1080038b 	ldhu	r2,14(r2)
		return (EOF);
	}

#ifdef _UNBUF_STREAM_OPT
	/* optimise fprintf(stderr) (and other unbuffered Unix files) */
	if ((fp->_flags & (__SNBF|__SWR|__SRW)) == (__SNBF|__SWR) &&
 2000ca0:	10bfffcc 	andi	r2,r2,65535
 2000ca4:	10a0001c 	xori	r2,r2,32768
 2000ca8:	10a00004 	addi	r2,r2,-32768
 2000cac:	10000616 	blt	r2,zero,2000cc8 <___vfprintf_internal_r+0x15c>
	    fp->_file >= 0) {
		_newlib_flockfile_exit (fp);
		return (__sbprintf (data, fp, fmt0, ap));
 2000cb0:	e1ffe917 	ldw	r7,-92(fp)
 2000cb4:	e1bfe817 	ldw	r6,-96(fp)
 2000cb8:	e17fe717 	ldw	r5,-100(fp)
 2000cbc:	e13fe617 	ldw	r4,-104(fp)
 2000cc0:	2000a2c0 	call	2000a2c <__sbprintf>
 2000cc4:	0007d006 	br	2002c08 <___vfprintf_internal_r+0x209c>
		}
		fp->_bf._size = 64;
        }
#endif /* STRING_ONLY */

	fmt = (char *)fmt0;
 2000cc8:	e57fe817 	ldw	r21,-96(fp)
#ifdef _FVWRITE_IN_STREAMIO
	uio.uio_iov = iovp = iov;
 2000ccc:	e47fcb04 	addi	r17,fp,-212
 2000cd0:	e47fc815 	stw	r17,-224(fp)
	uio.uio_resid = 0;
 2000cd4:	e03fca15 	stw	zero,-216(fp)
	uio.uio_iovcnt = 0;
 2000cd8:	e03fc915 	stw	zero,-220(fp)
#endif
	ret = 0;
 2000cdc:	e03fac15 	stw	zero,-336(fp)

	/*
	 * Scan the format for conversions (`%' character).
	 */
	for (;;) {
	        cp = fmt;
 2000ce0:	a825883a 	mov	r18,r21
                    else if (wc == '%')
                        break;
                    fmt += n;
		}
#else
                while (*fmt != '\0' && *fmt != '%')
 2000ce4:	00000106 	br	2000cec <___vfprintf_internal_r+0x180>
                    fmt += 1;
 2000ce8:	ad400044 	addi	r21,r21,1
                    else if (wc == '%')
                        break;
                    fmt += n;
		}
#else
                while (*fmt != '\0' && *fmt != '%')
 2000cec:	a8800003 	ldbu	r2,0(r21)
 2000cf0:	10803fcc 	andi	r2,r2,255
 2000cf4:	1080201c 	xori	r2,r2,128
 2000cf8:	10bfe004 	addi	r2,r2,-128
 2000cfc:	10000626 	beq	r2,zero,2000d18 <___vfprintf_internal_r+0x1ac>
 2000d00:	a8800003 	ldbu	r2,0(r21)
 2000d04:	10803fcc 	andi	r2,r2,255
 2000d08:	1080201c 	xori	r2,r2,128
 2000d0c:	10bfe004 	addi	r2,r2,-128
 2000d10:	10800958 	cmpnei	r2,r2,37
 2000d14:	103ff41e 	bne	r2,zero,2000ce8 <___vfprintf_internal_r+0x17c>
                    fmt += 1;
#endif
		if ((m = fmt - cp) != 0) {
 2000d18:	a807883a 	mov	r3,r21
 2000d1c:	9005883a 	mov	r2,r18
 2000d20:	18a1c83a 	sub	r16,r3,r2
 2000d24:	80001826 	beq	r16,zero,2000d88 <___vfprintf_internal_r+0x21c>
			PRINT (cp, m);
 2000d28:	8c800015 	stw	r18,0(r17)
 2000d2c:	8005883a 	mov	r2,r16
 2000d30:	88800115 	stw	r2,4(r17)
 2000d34:	e0bfca17 	ldw	r2,-216(fp)
 2000d38:	8007883a 	mov	r3,r16
 2000d3c:	10c5883a 	add	r2,r2,r3
 2000d40:	e0bfca15 	stw	r2,-216(fp)
 2000d44:	8c400204 	addi	r17,r17,8
 2000d48:	e0bfc917 	ldw	r2,-220(fp)
 2000d4c:	10800044 	addi	r2,r2,1
 2000d50:	e0bfc915 	stw	r2,-220(fp)
 2000d54:	e0bfc917 	ldw	r2,-220(fp)
 2000d58:	10800210 	cmplti	r2,r2,8
 2000d5c:	1000071e 	bne	r2,zero,2000d7c <___vfprintf_internal_r+0x210>
 2000d60:	e0bfc804 	addi	r2,fp,-224
 2000d64:	100d883a 	mov	r6,r2
 2000d68:	e17fe717 	ldw	r5,-100(fp)
 2000d6c:	e13fe617 	ldw	r4,-104(fp)
 2000d70:	200ae440 	call	200ae44 <__sprint_r>
 2000d74:	10074d1e 	bne	r2,zero,2002aac <___vfprintf_internal_r+0x1f40>
 2000d78:	e47fcb04 	addi	r17,fp,-212
			ret += m;
 2000d7c:	e0bfac17 	ldw	r2,-336(fp)
 2000d80:	1405883a 	add	r2,r2,r16
 2000d84:	e0bfac15 	stw	r2,-336(fp)
		}
#ifdef _MB_CAPABLE
		if (n <= 0)
                    goto done;
#else
                if (*fmt == '\0')
 2000d88:	a8800003 	ldbu	r2,0(r21)
 2000d8c:	10803fcc 	andi	r2,r2,255
 2000d90:	1080201c 	xori	r2,r2,128
 2000d94:	10bfe004 	addi	r2,r2,-128
 2000d98:	10073626 	beq	r2,zero,2002a74 <___vfprintf_internal_r+0x1f08>
                    goto done;
#endif
		fmt_anchor = fmt;
 2000d9c:	e57fbe15 	stw	r21,-264(fp)
		fmt++;		/* skip over '%' */
 2000da0:	ad400044 	addi	r21,r21,1

		flags = 0;
 2000da4:	0027883a 	mov	r19,zero
		dprec = 0;
 2000da8:	e03fb415 	stw	zero,-304(fp)
		width = 0;
 2000dac:	e03fad15 	stw	zero,-332(fp)
		prec = -1;
 2000db0:	00bfffc4 	movi	r2,-1
 2000db4:	e0bfae15 	stw	r2,-328(fp)
		sign = '\0';
 2000db8:	e03fc105 	stb	zero,-252(fp)
#ifdef FLOATING_POINT
		lead = 0;
 2000dbc:	e03fb015 	stw	zero,-320(fp)
#ifndef _NO_POS_ARGS
		N = arg_index;
		is_pos_arg = 0;
#endif

rflag:		ch = *fmt++;
 2000dc0:	a805883a 	mov	r2,r21
 2000dc4:	15400044 	addi	r21,r2,1
 2000dc8:	10800003 	ldbu	r2,0(r2)
 2000dcc:	15003fcc 	andi	r20,r2,255
 2000dd0:	a500201c 	xori	r20,r20,128
 2000dd4:	a53fe004 	addi	r20,r20,-128
reswitch:	switch (ch) {
 2000dd8:	a0bff804 	addi	r2,r20,-32
 2000ddc:	10c01668 	cmpgeui	r3,r2,89
 2000de0:	1803491e 	bne	r3,zero,2001b08 <___vfprintf_internal_r+0xf9c>
 2000de4:	100690ba 	slli	r3,r2,2
 2000de8:	00808034 	movhi	r2,512
 2000dec:	10837f04 	addi	r2,r2,3580
 2000df0:	1885883a 	add	r2,r3,r2
 2000df4:	10800017 	ldw	r2,0(r2)
 2000df8:	1000683a 	jmp	r2
 2000dfc:	02000f60 	cmpeqi	r8,zero,61
 2000e00:	02001b08 	cmpgei	r8,zero,108
 2000e04:	02001b08 	cmpgei	r8,zero,108
 2000e08:	02000f80 	call	2000f8 <__alt_mem_mem_Nios_PI+0xf8>
 2000e0c:	02001b08 	cmpgei	r8,zero,108
 2000e10:	02001b08 	cmpgei	r8,zero,108
 2000e14:	02001b08 	cmpgei	r8,zero,108
 2000e18:	02001b08 	cmpgei	r8,zero,108
 2000e1c:	02001b08 	cmpgei	r8,zero,108
 2000e20:	02001b08 	cmpgei	r8,zero,108
 2000e24:	02000f88 	cmpgei	r8,zero,62
 2000e28:	02000fbc 	xorhi	r8,zero,62
 2000e2c:	02001b08 	cmpgei	r8,zero,108
 2000e30:	02000fb4 	movhi	r8,62
 2000e34:	02000fc8 	cmpgei	r8,zero,63
 2000e38:	02001b08 	cmpgei	r8,zero,108
 2000e3c:	0200105c 	xori	r8,zero,65
 2000e40:	02001064 	muli	r8,zero,65
 2000e44:	02001064 	muli	r8,zero,65
 2000e48:	02001064 	muli	r8,zero,65
 2000e4c:	02001064 	muli	r8,zero,65
 2000e50:	02001064 	muli	r8,zero,65
 2000e54:	02001064 	muli	r8,zero,65
 2000e58:	02001064 	muli	r8,zero,65
 2000e5c:	02001064 	muli	r8,zero,65
 2000e60:	02001064 	muli	r8,zero,65
 2000e64:	02001b08 	cmpgei	r8,zero,108
 2000e68:	02001b08 	cmpgei	r8,zero,108
 2000e6c:	02001b08 	cmpgei	r8,zero,108
 2000e70:	02001b08 	cmpgei	r8,zero,108
 2000e74:	02001b08 	cmpgei	r8,zero,108
 2000e78:	02001b08 	cmpgei	r8,zero,108
 2000e7c:	02001b08 	cmpgei	r8,zero,108
 2000e80:	02001b08 	cmpgei	r8,zero,108
 2000e84:	02001b08 	cmpgei	r8,zero,108
 2000e88:	02001b08 	cmpgei	r8,zero,108
 2000e8c:	0200110c 	andi	r8,zero,68
 2000e90:	0200120c 	andi	r8,zero,72
 2000e94:	02001b08 	cmpgei	r8,zero,108
 2000e98:	0200120c 	andi	r8,zero,72
 2000e9c:	02001b08 	cmpgei	r8,zero,108
 2000ea0:	02001b08 	cmpgei	r8,zero,108
 2000ea4:	02001b08 	cmpgei	r8,zero,108
 2000ea8:	02001b08 	cmpgei	r8,zero,108
 2000eac:	020010a0 	cmpeqi	r8,zero,66
 2000eb0:	02001b08 	cmpgei	r8,zero,108
 2000eb4:	02001b08 	cmpgei	r8,zero,108
 2000eb8:	020015a8 	cmpgeui	r8,zero,86
 2000ebc:	02001b08 	cmpgei	r8,zero,108
 2000ec0:	02001b08 	cmpgei	r8,zero,108
 2000ec4:	02001b08 	cmpgei	r8,zero,108
 2000ec8:	02001b08 	cmpgei	r8,zero,108
 2000ecc:	02001b08 	cmpgei	r8,zero,108
 2000ed0:	02001724 	muli	r8,zero,92
 2000ed4:	02001b08 	cmpgei	r8,zero,108
 2000ed8:	02001b08 	cmpgei	r8,zero,108
 2000edc:	020017e4 	muli	r8,zero,95
 2000ee0:	02001b08 	cmpgei	r8,zero,108
 2000ee4:	02001b08 	cmpgei	r8,zero,108
 2000ee8:	02001b08 	cmpgei	r8,zero,108
 2000eec:	02001b08 	cmpgei	r8,zero,108
 2000ef0:	02001b08 	cmpgei	r8,zero,108
 2000ef4:	02001b08 	cmpgei	r8,zero,108
 2000ef8:	02001b08 	cmpgei	r8,zero,108
 2000efc:	02001b08 	cmpgei	r8,zero,108
 2000f00:	02001b08 	cmpgei	r8,zero,108
 2000f04:	02001b08 	cmpgei	r8,zero,108
 2000f08:	020010e4 	muli	r8,zero,67
 2000f0c:	02001110 	cmplti	r8,zero,68
 2000f10:	0200120c 	andi	r8,zero,72
 2000f14:	0200120c 	andi	r8,zero,72
 2000f18:	0200120c 	andi	r8,zero,72
 2000f1c:	020010a8 	cmpgeui	r8,zero,66
 2000f20:	02001110 	cmplti	r8,zero,68
 2000f24:	02001b08 	cmpgei	r8,zero,108
 2000f28:	02001b08 	cmpgei	r8,zero,108
 2000f2c:	020010b0 	cmpltui	r8,zero,66
 2000f30:	02001b08 	cmpgei	r8,zero,108
 2000f34:	02001508 	cmpgei	r8,zero,84
 2000f38:	020015ac 	andhi	r8,zero,86
 2000f3c:	0200164c 	andi	r8,zero,89
 2000f40:	020010dc 	xori	r8,zero,67
 2000f44:	02001b08 	cmpgei	r8,zero,108
 2000f48:	02001694 	movui	r8,90
 2000f4c:	02001b08 	cmpgei	r8,zero,108
 2000f50:	02001728 	cmpgeui	r8,zero,92
 2000f54:	02001b08 	cmpgei	r8,zero,108
 2000f58:	02001b08 	cmpgei	r8,zero,108
 2000f5c:	020017f4 	movhi	r8,95
			/*
			 * ``If the space and + flags both appear, the space
			 * flag will be ignored.''
			 *	-- ANSI X3J11
			 */
			if (!sign)
 2000f60:	e0bfc103 	ldbu	r2,-252(fp)
 2000f64:	10803fcc 	andi	r2,r2,255
 2000f68:	1080201c 	xori	r2,r2,128
 2000f6c:	10bfe004 	addi	r2,r2,-128
 2000f70:	103f931e 	bne	r2,zero,2000dc0 <___vfprintf_internal_r+0x254>
				sign = ' ';
 2000f74:	00800804 	movi	r2,32
 2000f78:	e0bfc105 	stb	r2,-252(fp)
			goto rflag;
 2000f7c:	003f9006 	br	2000dc0 <___vfprintf_internal_r+0x254>
		case '#':
			flags |= ALT;
 2000f80:	9cc00054 	ori	r19,r19,1
			goto rflag;
 2000f84:	003f8e06 	br	2000dc0 <___vfprintf_internal_r+0x254>
			 * ``A negative field width argument is taken as a
			 * - flag followed by a positive field width.''
			 *	-- ANSI X3J11
			 * They don't exclude field widths read from args.
			 */
			width = GET_ARG (n, ap, int);
 2000f88:	e0bfe917 	ldw	r2,-92(fp)
 2000f8c:	10c00104 	addi	r3,r2,4
 2000f90:	e0ffe915 	stw	r3,-92(fp)
 2000f94:	10800017 	ldw	r2,0(r2)
 2000f98:	e0bfad15 	stw	r2,-332(fp)
#ifndef _NO_POS_ARGS
			is_pos_arg = old_is_pos_arg;
#endif
			if (width >= 0)
 2000f9c:	e0bfad17 	ldw	r2,-332(fp)
 2000fa0:	10000116 	blt	r2,zero,2000fa8 <___vfprintf_internal_r+0x43c>
				goto rflag;
 2000fa4:	003f8606 	br	2000dc0 <___vfprintf_internal_r+0x254>
			width = -width;
 2000fa8:	e0bfad17 	ldw	r2,-332(fp)
 2000fac:	0085c83a 	sub	r2,zero,r2
 2000fb0:	e0bfad15 	stw	r2,-332(fp)
			/* FALLTHROUGH */
		case '-':
			flags |= LADJUST;
 2000fb4:	9cc00114 	ori	r19,r19,4
			goto rflag;
 2000fb8:	003f8106 	br	2000dc0 <___vfprintf_internal_r+0x254>
		case '+':
			sign = '+';
 2000fbc:	00800ac4 	movi	r2,43
 2000fc0:	e0bfc105 	stb	r2,-252(fp)
			goto rflag;
 2000fc4:	003f7e06 	br	2000dc0 <___vfprintf_internal_r+0x254>
		case '.':
			if ((ch = *fmt++) == '*') {
 2000fc8:	a805883a 	mov	r2,r21
 2000fcc:	15400044 	addi	r21,r2,1
 2000fd0:	10800003 	ldbu	r2,0(r2)
 2000fd4:	15003fcc 	andi	r20,r2,255
 2000fd8:	a500201c 	xori	r20,r20,128
 2000fdc:	a53fe004 	addi	r20,r20,-128
 2000fe0:	a0800a98 	cmpnei	r2,r20,42
 2000fe4:	10000a1e 	bne	r2,zero,2001010 <___vfprintf_internal_r+0x4a4>
						fmt = old_fmt;
						goto rflag;
					}
				}
#endif /* !_NO_POS_ARGS */
				prec = GET_ARG (n, ap, int);
 2000fe8:	e0bfe917 	ldw	r2,-92(fp)
 2000fec:	10c00104 	addi	r3,r2,4
 2000ff0:	e0ffe915 	stw	r3,-92(fp)
 2000ff4:	10800017 	ldw	r2,0(r2)
 2000ff8:	e0bfae15 	stw	r2,-328(fp)
#ifndef _NO_POS_ARGS
				is_pos_arg = old_is_pos_arg;
#endif
				if (prec < 0)
 2000ffc:	e0bfae17 	ldw	r2,-328(fp)
 2001000:	103f6f0e 	bge	r2,zero,2000dc0 <___vfprintf_internal_r+0x254>
					prec = -1;
 2001004:	00bfffc4 	movi	r2,-1
 2001008:	e0bfae15 	stw	r2,-328(fp)
				goto rflag;
 200100c:	003f6c06 	br	2000dc0 <___vfprintf_internal_r+0x254>
			}
			n = 0;
 2001010:	0021883a 	mov	r16,zero
			while (is_digit (ch)) {
 2001014:	00000906 	br	200103c <___vfprintf_internal_r+0x4d0>
				n = 10 * n + to_digit (ch);
 2001018:	80c002a4 	muli	r3,r16,10
 200101c:	a0bff404 	addi	r2,r20,-48
 2001020:	18a1883a 	add	r16,r3,r2
				ch = *fmt++;
 2001024:	a805883a 	mov	r2,r21
 2001028:	15400044 	addi	r21,r2,1
 200102c:	10800003 	ldbu	r2,0(r2)
 2001030:	15003fcc 	andi	r20,r2,255
 2001034:	a500201c 	xori	r20,r20,128
 2001038:	a53fe004 	addi	r20,r20,-128
				if (prec < 0)
					prec = -1;
				goto rflag;
			}
			n = 0;
			while (is_digit (ch)) {
 200103c:	a0bff404 	addi	r2,r20,-48
 2001040:	108002b0 	cmpltui	r2,r2,10
 2001044:	103ff41e 	bne	r2,zero,2001018 <___vfprintf_internal_r+0x4ac>
				n = 10 * n + to_digit (ch);
				ch = *fmt++;
			}
			prec = n < 0 ? -1 : n;
 2001048:	8005883a 	mov	r2,r16
 200104c:	1000010e 	bge	r2,zero,2001054 <___vfprintf_internal_r+0x4e8>
 2001050:	00bfffc4 	movi	r2,-1
 2001054:	e0bfae15 	stw	r2,-328(fp)
			goto reswitch;
 2001058:	003f5f06 	br	2000dd8 <___vfprintf_internal_r+0x26c>
			/*
			 * ``Note that 0 is taken as a flag, not as the
			 * beginning of a field width.''
			 *	-- ANSI X3J11
			 */
			flags |= ZEROPAD;
 200105c:	9cc02014 	ori	r19,r19,128
			goto rflag;
 2001060:	003f5706 	br	2000dc0 <___vfprintf_internal_r+0x254>
		case '1': case '2': case '3': case '4':
		case '5': case '6': case '7': case '8': case '9':
			n = 0;
 2001064:	0021883a 	mov	r16,zero
			do {
				n = 10 * n + to_digit (ch);
 2001068:	80c002a4 	muli	r3,r16,10
 200106c:	a0bff404 	addi	r2,r20,-48
 2001070:	18a1883a 	add	r16,r3,r2
				ch = *fmt++;
 2001074:	a805883a 	mov	r2,r21
 2001078:	15400044 	addi	r21,r2,1
 200107c:	10800003 	ldbu	r2,0(r2)
 2001080:	15003fcc 	andi	r20,r2,255
 2001084:	a500201c 	xori	r20,r20,128
 2001088:	a53fe004 	addi	r20,r20,-128
			} while (is_digit (ch));
 200108c:	a0bff404 	addi	r2,r20,-48
 2001090:	108002b0 	cmpltui	r2,r2,10
 2001094:	103ff41e 	bne	r2,zero,2001068 <___vfprintf_internal_r+0x4fc>
				}
				else
					goto error;
			}
#endif /* !_NO_POS_ARGS */
			width = n;
 2001098:	e43fad15 	stw	r16,-332(fp)
			goto reswitch;
 200109c:	003f4e06 	br	2000dd8 <___vfprintf_internal_r+0x26c>
#ifdef FLOATING_POINT
		case 'L':
			flags |= LONGDBL;
 20010a0:	9cc00214 	ori	r19,r19,8
			goto rflag;
 20010a4:	003f4606 	br	2000dc0 <___vfprintf_internal_r+0x254>
			if (*fmt == 'h') {
				fmt++;
				flags |= CHARINT;
			} else
#endif
				flags |= SHORTINT;
 20010a8:	9cc01014 	ori	r19,r19,64
			goto rflag;
 20010ac:	003f4406 	br	2000dc0 <___vfprintf_internal_r+0x254>
		case 'l':
#if defined _WANT_IO_C99_FORMATS || !defined _NO_LONGLONG
			if (*fmt == 'l') {
 20010b0:	a8800003 	ldbu	r2,0(r21)
 20010b4:	10803fcc 	andi	r2,r2,255
 20010b8:	1080201c 	xori	r2,r2,128
 20010bc:	10bfe004 	addi	r2,r2,-128
 20010c0:	10801b18 	cmpnei	r2,r2,108
 20010c4:	1000031e 	bne	r2,zero,20010d4 <___vfprintf_internal_r+0x568>
				fmt++;
 20010c8:	ad400044 	addi	r21,r21,1
				flags |= QUADINT;
 20010cc:	9cc00814 	ori	r19,r19,32
 20010d0:	003f3b06 	br	2000dc0 <___vfprintf_internal_r+0x254>
			} else
#endif
				flags |= LONGINT;
 20010d4:	9cc00414 	ori	r19,r19,16
			goto rflag;
 20010d8:	003f3906 	br	2000dc0 <___vfprintf_internal_r+0x254>
		case 'q': /* extension */
			flags |= QUADINT;
 20010dc:	9cc00814 	ori	r19,r19,32
			goto rflag;
 20010e0:	003f3706 	br	2000dc0 <___vfprintf_internal_r+0x254>
		    flags |= QUADINT;
		  goto rflag;
		case 'C':
#endif /* _WANT_IO_C99_FORMATS */
		case 'c':
			cp = buf;
 20010e4:	e4bfdb04 	addi	r18,fp,-148
				}
			}
			else
#endif /* _MB_CAPABLE */
			{
				*cp = GET_ARG (N, ap, int);
 20010e8:	e0bfe917 	ldw	r2,-92(fp)
 20010ec:	10c00104 	addi	r3,r2,4
 20010f0:	e0ffe915 	stw	r3,-92(fp)
 20010f4:	10800017 	ldw	r2,0(r2)
 20010f8:	90800005 	stb	r2,0(r18)
				size = 1;
 20010fc:	00800044 	movi	r2,1
 2001100:	e0bfb615 	stw	r2,-296(fp)
			}
			sign = '\0';
 2001104:	e03fc105 	stb	zero,-252(fp)
			break;
 2001108:	00028806 	br	2001b2c <___vfprintf_internal_r+0xfc0>
		case 'D':  /* extension */
			flags |= LONGINT;
 200110c:	9cc00414 	ori	r19,r19,16
			/*FALLTHROUGH*/
		case 'd':
		case 'i':
			_uquad = SARG ();
 2001110:	9880080c 	andi	r2,r19,32
 2001114:	10000826 	beq	r2,zero,2001138 <___vfprintf_internal_r+0x5cc>
 2001118:	e13fe917 	ldw	r4,-92(fp)
 200111c:	20800204 	addi	r2,r4,8
 2001120:	e0bfe915 	stw	r2,-92(fp)
 2001124:	20800017 	ldw	r2,0(r4)
 2001128:	20c00117 	ldw	r3,4(r4)
 200112c:	e0bfea15 	stw	r2,-88(fp)
 2001130:	e0ffeb15 	stw	r3,-84(fp)
 2001134:	00001e06 	br	20011b0 <___vfprintf_internal_r+0x644>
 2001138:	9880040c 	andi	r2,r19,16
 200113c:	10000826 	beq	r2,zero,2001160 <___vfprintf_internal_r+0x5f4>
 2001140:	e0bfe917 	ldw	r2,-92(fp)
 2001144:	10c00104 	addi	r3,r2,4
 2001148:	e0ffe915 	stw	r3,-92(fp)
 200114c:	10800017 	ldw	r2,0(r2)
 2001150:	e0bfea15 	stw	r2,-88(fp)
 2001154:	1005d7fa 	srai	r2,r2,31
 2001158:	e0bfeb15 	stw	r2,-84(fp)
 200115c:	00001406 	br	20011b0 <___vfprintf_internal_r+0x644>
 2001160:	9880100c 	andi	r2,r19,64
 2001164:	10000b26 	beq	r2,zero,2001194 <___vfprintf_internal_r+0x628>
 2001168:	e0bfe917 	ldw	r2,-92(fp)
 200116c:	10c00104 	addi	r3,r2,4
 2001170:	e0ffe915 	stw	r3,-92(fp)
 2001174:	10800017 	ldw	r2,0(r2)
 2001178:	10bfffcc 	andi	r2,r2,65535
 200117c:	10a0001c 	xori	r2,r2,32768
 2001180:	10a00004 	addi	r2,r2,-32768
 2001184:	e0bfea15 	stw	r2,-88(fp)
 2001188:	1005d7fa 	srai	r2,r2,31
 200118c:	e0bfeb15 	stw	r2,-84(fp)
 2001190:	00000706 	br	20011b0 <___vfprintf_internal_r+0x644>
 2001194:	e0bfe917 	ldw	r2,-92(fp)
 2001198:	10c00104 	addi	r3,r2,4
 200119c:	e0ffe915 	stw	r3,-92(fp)
 20011a0:	10800017 	ldw	r2,0(r2)
 20011a4:	e0bfea15 	stw	r2,-88(fp)
 20011a8:	1005d7fa 	srai	r2,r2,31
 20011ac:	e0bfeb15 	stw	r2,-84(fp)
 20011b0:	e0bfea17 	ldw	r2,-88(fp)
 20011b4:	e0bfb115 	stw	r2,-316(fp)
 20011b8:	e0ffeb17 	ldw	r3,-84(fp)
 20011bc:	e0ffb215 	stw	r3,-312(fp)
#ifndef _NO_LONGLONG
			if ((quad_t)_uquad < 0)
 20011c0:	e0bfb117 	ldw	r2,-316(fp)
 20011c4:	e0ffb217 	ldw	r3,-312(fp)
 20011c8:	18000d0e 	bge	r3,zero,2001200 <___vfprintf_internal_r+0x694>
#else
			if ((long) _uquad < 0)
#endif
			{

				_uquad = -_uquad;
 20011cc:	000f883a 	mov	r7,zero
 20011d0:	0011883a 	mov	r8,zero
 20011d4:	e13fb117 	ldw	r4,-316(fp)
 20011d8:	e17fb217 	ldw	r5,-312(fp)
 20011dc:	3905c83a 	sub	r2,r7,r4
 20011e0:	388d803a 	cmpltu	r6,r7,r2
 20011e4:	4147c83a 	sub	r3,r8,r5
 20011e8:	1989c83a 	sub	r4,r3,r6
 20011ec:	2007883a 	mov	r3,r4
 20011f0:	e0bfb115 	stw	r2,-316(fp)
 20011f4:	e0ffb215 	stw	r3,-312(fp)
				sign = '-';
 20011f8:	00800b44 	movi	r2,45
 20011fc:	e0bfc105 	stb	r2,-252(fp)
			}
			base = DEC;
 2001200:	00800044 	movi	r2,1
 2001204:	e0bfb305 	stb	r2,-308(fp)
			goto number;
 2001208:	0001b706 	br	20018e8 <___vfprintf_internal_r+0xd7c>
		case 'E':
		case 'f':
		case 'g':
		case 'G':
# ifdef _NO_LONGDBL
			if (flags & LONGDBL) {
 200120c:	9880020c 	andi	r2,r19,8
 2001210:	10000826 	beq	r2,zero,2001234 <___vfprintf_internal_r+0x6c8>
				_fpvalue = (double) GET_ARG (N, ap, _LONG_DOUBLE);
 2001214:	e13fe917 	ldw	r4,-92(fp)
 2001218:	20800204 	addi	r2,r4,8
 200121c:	e0bfe915 	stw	r2,-92(fp)
 2001220:	20800017 	ldw	r2,0(r4)
 2001224:	20c00117 	ldw	r3,4(r4)
 2001228:	e0bfc215 	stw	r2,-248(fp)
 200122c:	e0ffc315 	stw	r3,-244(fp)
 2001230:	00000706 	br	2001250 <___vfprintf_internal_r+0x6e4>
			} else {
				_fpvalue = GET_ARG (N, ap, double);
 2001234:	e13fe917 	ldw	r4,-92(fp)
 2001238:	20800204 	addi	r2,r4,8
 200123c:	e0bfe915 	stw	r2,-92(fp)
 2001240:	20800017 	ldw	r2,0(r4)
 2001244:	20c00117 	ldw	r3,4(r4)
 2001248:	e0bfc215 	stw	r2,-248(fp)
 200124c:	e0ffc315 	stw	r3,-244(fp)

			   If the output is infinite or NaN, leading
			   zeros are not permitted.  Otherwise, scanf
			   could not read what printf wrote.
			 */
			if (isinf (_fpvalue)) {
 2001250:	e0bfc217 	ldw	r2,-248(fp)
 2001254:	e0ffc317 	ldw	r3,-244(fp)
 2001258:	1009883a 	mov	r4,r2
 200125c:	180b883a 	mov	r5,r3
 2001260:	200a92c0 	call	200a92c <__fpclassifyd>
 2001264:	10800058 	cmpnei	r2,r2,1
 2001268:	1000161e 	bne	r2,zero,20012c4 <___vfprintf_internal_r+0x758>
				if (_fpvalue < 0)
 200126c:	e0bfc217 	ldw	r2,-248(fp)
 2001270:	e0ffc317 	ldw	r3,-244(fp)
 2001274:	000d883a 	mov	r6,zero
 2001278:	000f883a 	mov	r7,zero
 200127c:	1009883a 	mov	r4,r2
 2001280:	180b883a 	mov	r5,r3
 2001284:	20004e80 	call	20004e8 <__ledf2>
 2001288:	1000020e 	bge	r2,zero,2001294 <___vfprintf_internal_r+0x728>
					sign = '-';
 200128c:	00800b44 	movi	r2,45
 2001290:	e0bfc105 	stb	r2,-252(fp)
				if (ch <= 'G') /* 'A', 'E', 'F', or 'G' */
 2001294:	a0801208 	cmpgei	r2,r20,72
 2001298:	1000031e 	bne	r2,zero,20012a8 <___vfprintf_internal_r+0x73c>
					cp = "INF";
 200129c:	04808074 	movhi	r18,513
 20012a0:	948b7604 	addi	r18,r18,11736
 20012a4:	00000206 	br	20012b0 <___vfprintf_internal_r+0x744>
				else
					cp = "inf";
 20012a8:	04808074 	movhi	r18,513
 20012ac:	948b7704 	addi	r18,r18,11740
				size = 3;
 20012b0:	008000c4 	movi	r2,3
 20012b4:	e0bfb615 	stw	r2,-296(fp)
				flags &= ~ZEROPAD;
 20012b8:	00bfdfc4 	movi	r2,-129
 20012bc:	98a6703a 	and	r19,r19,r2
				break;
 20012c0:	00021a06 	br	2001b2c <___vfprintf_internal_r+0xfc0>
			}
			if (isnan (_fpvalue)) {
 20012c4:	e0bfc217 	ldw	r2,-248(fp)
 20012c8:	e0ffc317 	ldw	r3,-244(fp)
 20012cc:	1009883a 	mov	r4,r2
 20012d0:	180b883a 	mov	r5,r3
 20012d4:	200a92c0 	call	200a92c <__fpclassifyd>
 20012d8:	10000c1e 	bne	r2,zero,200130c <___vfprintf_internal_r+0x7a0>
				if (ch <= 'G') /* 'A', 'E', 'F', or 'G' */
 20012dc:	a0801208 	cmpgei	r2,r20,72
 20012e0:	1000031e 	bne	r2,zero,20012f0 <___vfprintf_internal_r+0x784>
					cp = "NAN";
 20012e4:	04808074 	movhi	r18,513
 20012e8:	948b7804 	addi	r18,r18,11744
 20012ec:	00000206 	br	20012f8 <___vfprintf_internal_r+0x78c>
				else
					cp = "nan";
 20012f0:	04808074 	movhi	r18,513
 20012f4:	948b7904 	addi	r18,r18,11748
				size = 3;
 20012f8:	008000c4 	movi	r2,3
 20012fc:	e0bfb615 	stw	r2,-296(fp)
				flags &= ~ZEROPAD;
 2001300:	00bfdfc4 	movi	r2,-129
 2001304:	98a6703a 	and	r19,r19,r2
				break;
 2001308:	00020806 	br	2001b2c <___vfprintf_internal_r+0xfc0>
				  }
				else
				  cp = buf;
			} else
# endif /* _WANT_IO_C99_FORMATS */
			if (prec == -1) {
 200130c:	e0bfae17 	ldw	r2,-328(fp)
 2001310:	10bfffd8 	cmpnei	r2,r2,-1
 2001314:	1000031e 	bne	r2,zero,2001324 <___vfprintf_internal_r+0x7b8>
				prec = DEFPREC;
 2001318:	00800184 	movi	r2,6
 200131c:	e0bfae15 	stw	r2,-328(fp)
 2001320:	00000806 	br	2001344 <___vfprintf_internal_r+0x7d8>
			} else if ((ch == 'g' || ch == 'G') && prec == 0) {
 2001324:	a08019e0 	cmpeqi	r2,r20,103
 2001328:	1000021e 	bne	r2,zero,2001334 <___vfprintf_internal_r+0x7c8>
 200132c:	a08011d8 	cmpnei	r2,r20,71
 2001330:	1000041e 	bne	r2,zero,2001344 <___vfprintf_internal_r+0x7d8>
 2001334:	e0bfae17 	ldw	r2,-328(fp)
 2001338:	1000021e 	bne	r2,zero,2001344 <___vfprintf_internal_r+0x7d8>
				prec = 1;
 200133c:	00800044 	movi	r2,1
 2001340:	e0bfae15 	stw	r2,-328(fp)
			}

			flags |= FPT;
 2001344:	9cc04014 	ori	r19,r19,256

			cp = cvt (data, _fpvalue, prec, flags, &softsign,
 2001348:	e0bfc217 	ldw	r2,-248(fp)
 200134c:	e0ffc317 	ldw	r3,-244(fp)
 2001350:	dc800515 	stw	r18,20(sp)
 2001354:	e13fc704 	addi	r4,fp,-228
 2001358:	d9000415 	stw	r4,16(sp)
 200135c:	dd000315 	stw	r20,12(sp)
 2001360:	e13fc404 	addi	r4,fp,-240
 2001364:	d9000215 	stw	r4,8(sp)
 2001368:	e13fc144 	addi	r4,fp,-251
 200136c:	d9000115 	stw	r4,4(sp)
 2001370:	dcc00015 	stw	r19,0(sp)
 2001374:	e1ffae17 	ldw	r7,-328(fp)
 2001378:	100b883a 	mov	r5,r2
 200137c:	180d883a 	mov	r6,r3
 2001380:	e13fe617 	ldw	r4,-104(fp)
 2001384:	2002c3c0 	call	2002c3c <cvt>
 2001388:	1025883a 	mov	r18,r2
				  &expt, ch, &ndig, cp);

			if (ch == 'g' || ch == 'G') {
 200138c:	a08019e0 	cmpeqi	r2,r20,103
 2001390:	1000021e 	bne	r2,zero,200139c <___vfprintf_internal_r+0x830>
 2001394:	a08011d8 	cmpnei	r2,r20,71
 2001398:	1000091e 	bne	r2,zero,20013c0 <___vfprintf_internal_r+0x854>
				if (expt <= -4 || expt > prec)
 200139c:	e0bfc417 	ldw	r2,-240(fp)
 20013a0:	10bfff50 	cmplti	r2,r2,-3
 20013a4:	1000031e 	bne	r2,zero,20013b4 <___vfprintf_internal_r+0x848>
 20013a8:	e0bfc417 	ldw	r2,-240(fp)
 20013ac:	e0ffae17 	ldw	r3,-328(fp)
 20013b0:	1880020e 	bge	r3,r2,20013bc <___vfprintf_internal_r+0x850>
					ch -= 2; /* 'e' or 'E' */
 20013b4:	a53fff84 	addi	r20,r20,-2
 20013b8:	00000106 	br	20013c0 <___vfprintf_internal_r+0x854>
				else
					ch = 'g';
 20013bc:	050019c4 	movi	r20,103
			}
# ifdef _WANT_IO_C99_FORMATS
			else if (ch == 'F')
				ch = 'f';
# endif
			if (ch <= 'e') {	/* 'a', 'A', 'e', or 'E' fmt */
 20013c0:	a0801988 	cmpgei	r2,r20,102
 20013c4:	1000171e 	bne	r2,zero,2001424 <___vfprintf_internal_r+0x8b8>
				--expt;
 20013c8:	e0bfc417 	ldw	r2,-240(fp)
 20013cc:	10bfffc4 	addi	r2,r2,-1
 20013d0:	e0bfc415 	stw	r2,-240(fp)
				expsize = exponent (expstr, expt, ch);
 20013d4:	e0bfc417 	ldw	r2,-240(fp)
 20013d8:	e0ffc504 	addi	r3,fp,-236
 20013dc:	a00d883a 	mov	r6,r20
 20013e0:	100b883a 	mov	r5,r2
 20013e4:	1809883a 	mov	r4,r3
 20013e8:	2002e480 	call	2002e48 <exponent>
 20013ec:	e0bfaf15 	stw	r2,-324(fp)
				size = expsize + ndig;
 20013f0:	e0bfc717 	ldw	r2,-228(fp)
 20013f4:	e0ffaf17 	ldw	r3,-324(fp)
 20013f8:	1885883a 	add	r2,r3,r2
 20013fc:	e0bfb615 	stw	r2,-296(fp)
				if (ndig > 1 || flags & ALT)
 2001400:	e0bfc717 	ldw	r2,-228(fp)
 2001404:	10800088 	cmpgei	r2,r2,2
 2001408:	1000021e 	bne	r2,zero,2001414 <___vfprintf_internal_r+0x8a8>
 200140c:	9880004c 	andi	r2,r19,1
 2001410:	10003526 	beq	r2,zero,20014e8 <___vfprintf_internal_r+0x97c>
					++size;
 2001414:	e0bfb617 	ldw	r2,-296(fp)
 2001418:	10800044 	addi	r2,r2,1
 200141c:	e0bfb615 	stw	r2,-296(fp)
 2001420:	00003106 	br	20014e8 <___vfprintf_internal_r+0x97c>
# ifdef _WANT_IO_C99_FORMATS
				flags &= ~GROUPING;
# endif
			} else {
				if (ch == 'f') {		/* f fmt */
 2001424:	a0801998 	cmpnei	r2,r20,102
 2001428:	1000181e 	bne	r2,zero,200148c <___vfprintf_internal_r+0x920>
					if (expt > 0) {
 200142c:	e0bfc417 	ldw	r2,-240(fp)
 2001430:	00800c0e 	bge	zero,r2,2001464 <___vfprintf_internal_r+0x8f8>
						size = expt;
 2001434:	e0bfc417 	ldw	r2,-240(fp)
 2001438:	e0bfb615 	stw	r2,-296(fp)
						if (prec || flags & ALT)
 200143c:	e0bfae17 	ldw	r2,-328(fp)
 2001440:	1000021e 	bne	r2,zero,200144c <___vfprintf_internal_r+0x8e0>
 2001444:	9880004c 	andi	r2,r19,1
 2001448:	10002526 	beq	r2,zero,20014e0 <___vfprintf_internal_r+0x974>
							size += prec + 1;
 200144c:	e0bfae17 	ldw	r2,-328(fp)
 2001450:	10800044 	addi	r2,r2,1
 2001454:	e0ffb617 	ldw	r3,-296(fp)
 2001458:	1885883a 	add	r2,r3,r2
 200145c:	e0bfb615 	stw	r2,-296(fp)
 2001460:	00001f06 	br	20014e0 <___vfprintf_internal_r+0x974>
					} else	/* "0.X" */
						size = (prec || flags & ALT)
							  ? prec + 2
							  : 1;
 2001464:	e0bfae17 	ldw	r2,-328(fp)
 2001468:	1000021e 	bne	r2,zero,2001474 <___vfprintf_internal_r+0x908>
					if (expt > 0) {
						size = expt;
						if (prec || flags & ALT)
							size += prec + 1;
					} else	/* "0.X" */
						size = (prec || flags & ALT)
 200146c:	9880004c 	andi	r2,r19,1
 2001470:	10000326 	beq	r2,zero,2001480 <___vfprintf_internal_r+0x914>
							  ? prec + 2
							  : 1;
 2001474:	e0bfae17 	ldw	r2,-328(fp)
 2001478:	10800084 	addi	r2,r2,2
 200147c:	00000106 	br	2001484 <___vfprintf_internal_r+0x918>
 2001480:	00800044 	movi	r2,1
					if (expt > 0) {
						size = expt;
						if (prec || flags & ALT)
							size += prec + 1;
					} else	/* "0.X" */
						size = (prec || flags & ALT)
 2001484:	e0bfb615 	stw	r2,-296(fp)
 2001488:	00001506 	br	20014e0 <___vfprintf_internal_r+0x974>
							  ? prec + 2
							  : 1;
				} else if (expt >= ndig) { /* fixed g fmt */
 200148c:	e0ffc417 	ldw	r3,-240(fp)
 2001490:	e0bfc717 	ldw	r2,-228(fp)
 2001494:	18800816 	blt	r3,r2,20014b8 <___vfprintf_internal_r+0x94c>
					size = expt;
 2001498:	e0bfc417 	ldw	r2,-240(fp)
 200149c:	e0bfb615 	stw	r2,-296(fp)
					if (flags & ALT)
 20014a0:	9880004c 	andi	r2,r19,1
 20014a4:	10000e26 	beq	r2,zero,20014e0 <___vfprintf_internal_r+0x974>
						++size;
 20014a8:	e0bfb617 	ldw	r2,-296(fp)
 20014ac:	10800044 	addi	r2,r2,1
 20014b0:	e0bfb615 	stw	r2,-296(fp)
 20014b4:	00000a06 	br	20014e0 <___vfprintf_internal_r+0x974>
				} else
					size = ndig + (expt > 0 ?
 20014b8:	e0bfc417 	ldw	r2,-240(fp)
						1 : 2 - expt);
 20014bc:	00800416 	blt	zero,r2,20014d0 <___vfprintf_internal_r+0x964>
 20014c0:	e0bfc417 	ldw	r2,-240(fp)
 20014c4:	00c00084 	movi	r3,2
 20014c8:	1885c83a 	sub	r2,r3,r2
 20014cc:	00000106 	br	20014d4 <___vfprintf_internal_r+0x968>
 20014d0:	00800044 	movi	r2,1
				} else if (expt >= ndig) { /* fixed g fmt */
					size = expt;
					if (flags & ALT)
						++size;
				} else
					size = ndig + (expt > 0 ?
 20014d4:	e0ffc717 	ldw	r3,-228(fp)
 20014d8:	10c5883a 	add	r2,r2,r3
 20014dc:	e0bfb615 	stw	r2,-296(fp)
							nrepeats++;
					}
					size += (nseps + nrepeats) * thsnd_len;
				} else
# endif
					lead = expt;
 20014e0:	e0bfc417 	ldw	r2,-240(fp)
 20014e4:	e0bfb015 	stw	r2,-320(fp)
			}

			if (softsign)
 20014e8:	e0bfc143 	ldbu	r2,-251(fp)
 20014ec:	10803fcc 	andi	r2,r2,255
 20014f0:	1080201c 	xori	r2,r2,128
 20014f4:	10bfe004 	addi	r2,r2,-128
 20014f8:	10018b26 	beq	r2,zero,2001b28 <___vfprintf_internal_r+0xfbc>
				sign = '-';
 20014fc:	00800b44 	movi	r2,45
 2001500:	e0bfc105 	stb	r2,-252(fp)
			break;
 2001504:	00018806 	br	2001b28 <___vfprintf_internal_r+0xfbc>
			flags &= ~LONGINT;
			goto string;
#endif
		case 'n':
#ifndef _NO_LONGLONG
			if (flags & QUADINT)
 2001508:	9880080c 	andi	r2,r19,32
 200150c:	10000d26 	beq	r2,zero,2001544 <___vfprintf_internal_r+0x9d8>
				*GET_ARG (N, ap, quad_ptr_t) = ret;
 2001510:	e0bfe917 	ldw	r2,-92(fp)
 2001514:	10c00104 	addi	r3,r2,4
 2001518:	e0ffe915 	stw	r3,-92(fp)
 200151c:	10800017 	ldw	r2,0(r2)
 2001520:	e0ffac17 	ldw	r3,-336(fp)
 2001524:	e0fff015 	stw	r3,-64(fp)
 2001528:	1807d7fa 	srai	r3,r3,31
 200152c:	e0fff115 	stw	r3,-60(fp)
 2001530:	e0fff017 	ldw	r3,-64(fp)
 2001534:	10c00015 	stw	r3,0(r2)
 2001538:	e0fff117 	ldw	r3,-60(fp)
 200153c:	10c00115 	stw	r3,4(r2)
			else if (flags & CHARINT)
				*GET_ARG (N, ap, char_ptr_t) = ret;
#endif
			else
				*GET_ARG (N, ap, int_ptr_t) = ret;
			continue;	/* no output */
 2001540:	00054b06 	br	2002a70 <___vfprintf_internal_r+0x1f04>
#ifndef _NO_LONGLONG
			if (flags & QUADINT)
				*GET_ARG (N, ap, quad_ptr_t) = ret;
			else
#endif
			if (flags & LONGINT)
 2001544:	9880040c 	andi	r2,r19,16
 2001548:	10000726 	beq	r2,zero,2001568 <___vfprintf_internal_r+0x9fc>
				*GET_ARG (N, ap, long_ptr_t) = ret;
 200154c:	e0bfe917 	ldw	r2,-92(fp)
 2001550:	10c00104 	addi	r3,r2,4
 2001554:	e0ffe915 	stw	r3,-92(fp)
 2001558:	10800017 	ldw	r2,0(r2)
 200155c:	e0ffac17 	ldw	r3,-336(fp)
 2001560:	10c00015 	stw	r3,0(r2)
			else if (flags & CHARINT)
				*GET_ARG (N, ap, char_ptr_t) = ret;
#endif
			else
				*GET_ARG (N, ap, int_ptr_t) = ret;
			continue;	/* no output */
 2001564:	00054206 	br	2002a70 <___vfprintf_internal_r+0x1f04>
				*GET_ARG (N, ap, quad_ptr_t) = ret;
			else
#endif
			if (flags & LONGINT)
				*GET_ARG (N, ap, long_ptr_t) = ret;
			else if (flags & SHORTINT)
 2001568:	9880100c 	andi	r2,r19,64
 200156c:	10000726 	beq	r2,zero,200158c <___vfprintf_internal_r+0xa20>
				*GET_ARG (N, ap, short_ptr_t) = ret;
 2001570:	e0bfe917 	ldw	r2,-92(fp)
 2001574:	10c00104 	addi	r3,r2,4
 2001578:	e0ffe915 	stw	r3,-92(fp)
 200157c:	10800017 	ldw	r2,0(r2)
 2001580:	e0ffac17 	ldw	r3,-336(fp)
 2001584:	10c0000d 	sth	r3,0(r2)
			else if (flags & CHARINT)
				*GET_ARG (N, ap, char_ptr_t) = ret;
#endif
			else
				*GET_ARG (N, ap, int_ptr_t) = ret;
			continue;	/* no output */
 2001588:	00053906 	br	2002a70 <___vfprintf_internal_r+0x1f04>
#ifdef _WANT_IO_C99_FORMATS
			else if (flags & CHARINT)
				*GET_ARG (N, ap, char_ptr_t) = ret;
#endif
			else
				*GET_ARG (N, ap, int_ptr_t) = ret;
 200158c:	e0bfe917 	ldw	r2,-92(fp)
 2001590:	10c00104 	addi	r3,r2,4
 2001594:	e0ffe915 	stw	r3,-92(fp)
 2001598:	10800017 	ldw	r2,0(r2)
 200159c:	e0ffac17 	ldw	r3,-336(fp)
 20015a0:	10c00015 	stw	r3,0(r2)
			continue;	/* no output */
 20015a4:	00053206 	br	2002a70 <___vfprintf_internal_r+0x1f04>
		case 'O': /* extension */
			flags |= LONGINT;
 20015a8:	9cc00414 	ori	r19,r19,16
			/*FALLTHROUGH*/
		case 'o':
			_uquad = UARG ();
 20015ac:	9880080c 	andi	r2,r19,32
 20015b0:	10000626 	beq	r2,zero,20015cc <___vfprintf_internal_r+0xa60>
 20015b4:	e0bfe917 	ldw	r2,-92(fp)
 20015b8:	10c00204 	addi	r3,r2,8
 20015bc:	e0ffe915 	stw	r3,-92(fp)
 20015c0:	15800017 	ldw	r22,0(r2)
 20015c4:	15c00117 	ldw	r23,4(r2)
 20015c8:	00001c06 	br	200163c <___vfprintf_internal_r+0xad0>
 20015cc:	9880040c 	andi	r2,r19,16
 20015d0:	10000726 	beq	r2,zero,20015f0 <___vfprintf_internal_r+0xa84>
 20015d4:	e0bfe917 	ldw	r2,-92(fp)
 20015d8:	10c00104 	addi	r3,r2,4
 20015dc:	e0ffe915 	stw	r3,-92(fp)
 20015e0:	10800017 	ldw	r2,0(r2)
 20015e4:	102d883a 	mov	r22,r2
 20015e8:	002f883a 	mov	r23,zero
 20015ec:	00001306 	br	200163c <___vfprintf_internal_r+0xad0>
 20015f0:	9880100c 	andi	r2,r19,64
 20015f4:	10000b26 	beq	r2,zero,2001624 <___vfprintf_internal_r+0xab8>
 20015f8:	e0bfe917 	ldw	r2,-92(fp)
 20015fc:	10c00104 	addi	r3,r2,4
 2001600:	e0ffe915 	stw	r3,-92(fp)
 2001604:	10800017 	ldw	r2,0(r2)
 2001608:	e0bff215 	stw	r2,-56(fp)
 200160c:	e03ff315 	stw	zero,-52(fp)
 2001610:	e0bff217 	ldw	r2,-56(fp)
 2001614:	15bfffcc 	andi	r22,r2,65535
 2001618:	e0fff317 	ldw	r3,-52(fp)
 200161c:	182e703a 	and	r23,r3,zero
 2001620:	00000606 	br	200163c <___vfprintf_internal_r+0xad0>
 2001624:	e0bfe917 	ldw	r2,-92(fp)
 2001628:	10c00104 	addi	r3,r2,4
 200162c:	e0ffe915 	stw	r3,-92(fp)
 2001630:	10800017 	ldw	r2,0(r2)
 2001634:	102d883a 	mov	r22,r2
 2001638:	002f883a 	mov	r23,zero
 200163c:	e5bfb115 	stw	r22,-316(fp)
 2001640:	e5ffb215 	stw	r23,-312(fp)
			base = OCT;
 2001644:	e03fb305 	stb	zero,-308(fp)
#ifdef _WANT_IO_C99_FORMATS
			flags &= ~GROUPING;
#endif
			goto nosign;
 2001648:	0000a606 	br	20018e4 <___vfprintf_internal_r+0xd78>
			 * of printable characters, in an implementation-
			 * defined manner.''
			 *	-- ANSI X3J11
			 */
			/* NOSTRICT */
			_uquad = (uintptr_t) GET_ARG (N, ap, void_ptr_t);
 200164c:	e0bfe917 	ldw	r2,-92(fp)
 2001650:	10c00104 	addi	r3,r2,4
 2001654:	e0ffe915 	stw	r3,-92(fp)
 2001658:	10800017 	ldw	r2,0(r2)
 200165c:	e0bfb115 	stw	r2,-316(fp)
 2001660:	e03fb215 	stw	zero,-312(fp)
			base = HEX;
 2001664:	00800084 	movi	r2,2
 2001668:	e0bfb305 	stb	r2,-308(fp)
			xdigs = "0123456789abcdef";
 200166c:	00808074 	movhi	r2,513
 2001670:	108b7a04 	addi	r2,r2,11752
 2001674:	e0bfb715 	stw	r2,-292(fp)
			flags |= HEXPREFIX;
 2001678:	9cc00094 	ori	r19,r19,2
			ox[0] = '0';
 200167c:	00800c04 	movi	r2,48
 2001680:	e0bfe505 	stb	r2,-108(fp)
			ox[1] = ch = 'x';
 2001684:	05001e04 	movi	r20,120
 2001688:	00801e04 	movi	r2,120
 200168c:	e0bfe545 	stb	r2,-107(fp)
			goto nosign;
 2001690:	00009406 	br	20018e4 <___vfprintf_internal_r+0xd78>
		case 's':
#ifdef _WANT_IO_C99_FORMATS
		case 'S':
#endif
			cp = GET_ARG (N, ap, char_ptr_t);
 2001694:	e0bfe917 	ldw	r2,-92(fp)
 2001698:	10c00104 	addi	r3,r2,4
 200169c:	e0ffe915 	stw	r3,-92(fp)
 20016a0:	14800017 	ldw	r18,0(r2)
#ifdef _GLIBC_EXTENSION
string:
#endif
			sign = '\0';
 20016a4:	e03fc105 	stb	zero,-252(fp)
#ifndef __OPTIMIZE_SIZE__
			/* Behavior is undefined if the user passed a
			   NULL string when precision is not 0.
			   However, if we are not optimizing for size,
			   we might as well mirror glibc behavior.  */
			if (cp == NULL) {
 20016a8:	9000081e 	bne	r18,zero,20016cc <___vfprintf_internal_r+0xb60>
				cp = "(null)";
 20016ac:	04808074 	movhi	r18,513
 20016b0:	948b7f04 	addi	r18,r18,11772
				size = ((unsigned) prec > 6U) ? 6 : prec;
 20016b4:	e0bfae17 	ldw	r2,-328(fp)
 20016b8:	10c001f0 	cmpltui	r3,r2,7
 20016bc:	1800011e 	bne	r3,zero,20016c4 <___vfprintf_internal_r+0xb58>
 20016c0:	00800184 	movi	r2,6
 20016c4:	e0bfb615 	stw	r2,-296(fp)
				else
					size = prec;
			} else
				size = strlen (cp);

			break;
 20016c8:	00011806 	br	2001b2c <___vfprintf_internal_r+0xfc0>
				}
				cp[size] = '\0';
			}
			else
#endif /* _MB_CAPABLE */
			if (prec >= 0) {
 20016cc:	e0bfae17 	ldw	r2,-328(fp)
 20016d0:	10001016 	blt	r2,zero,2001714 <___vfprintf_internal_r+0xba8>
				/*
				 * can't use strlen; can only look for the
				 * NUL in the first `prec' characters, and
				 * strlen () will go further.
				 */
				char *p = memchr (cp, 0, prec);
 20016d4:	e0bfae17 	ldw	r2,-328(fp)
 20016d8:	100d883a 	mov	r6,r2
 20016dc:	000b883a 	mov	r5,zero
 20016e0:	9009883a 	mov	r4,r18
 20016e4:	2007bb40 	call	2007bb4 <memchr>
 20016e8:	e0bfbf15 	stw	r2,-260(fp)

				if (p != NULL)
 20016ec:	e0bfbf17 	ldw	r2,-260(fp)
 20016f0:	10000526 	beq	r2,zero,2001708 <___vfprintf_internal_r+0xb9c>
					size = p - cp;
 20016f4:	e0bfbf17 	ldw	r2,-260(fp)
 20016f8:	9007883a 	mov	r3,r18
 20016fc:	10c5c83a 	sub	r2,r2,r3
 2001700:	e0bfb615 	stw	r2,-296(fp)
				else
					size = prec;
			} else
				size = strlen (cp);

			break;
 2001704:	00010906 	br	2001b2c <___vfprintf_internal_r+0xfc0>
				char *p = memchr (cp, 0, prec);

				if (p != NULL)
					size = p - cp;
				else
					size = prec;
 2001708:	e0bfae17 	ldw	r2,-328(fp)
 200170c:	e0bfb615 	stw	r2,-296(fp)
			} else
				size = strlen (cp);

			break;
 2001710:	00010606 	br	2001b2c <___vfprintf_internal_r+0xfc0>
				if (p != NULL)
					size = p - cp;
				else
					size = prec;
			} else
				size = strlen (cp);
 2001714:	9009883a 	mov	r4,r18
 2001718:	20009380 	call	2000938 <strlen>
 200171c:	e0bfb615 	stw	r2,-296(fp)

			break;
 2001720:	00010206 	br	2001b2c <___vfprintf_internal_r+0xfc0>
		case 'U': /* extension */
			flags |= LONGINT;
 2001724:	9cc00414 	ori	r19,r19,16
			/*FALLTHROUGH*/
		case 'u':
			_uquad = UARG ();
 2001728:	9880080c 	andi	r2,r19,32
 200172c:	10000826 	beq	r2,zero,2001750 <___vfprintf_internal_r+0xbe4>
 2001730:	e0bfe917 	ldw	r2,-92(fp)
 2001734:	10c00204 	addi	r3,r2,8
 2001738:	e0ffe915 	stw	r3,-92(fp)
 200173c:	10c00017 	ldw	r3,0(r2)
 2001740:	e0ffec15 	stw	r3,-80(fp)
 2001744:	10c00117 	ldw	r3,4(r2)
 2001748:	e0ffed15 	stw	r3,-76(fp)
 200174c:	00001e06 	br	20017c8 <___vfprintf_internal_r+0xc5c>
 2001750:	9880040c 	andi	r2,r19,16
 2001754:	10000726 	beq	r2,zero,2001774 <___vfprintf_internal_r+0xc08>
 2001758:	e0bfe917 	ldw	r2,-92(fp)
 200175c:	10c00104 	addi	r3,r2,4
 2001760:	e0ffe915 	stw	r3,-92(fp)
 2001764:	10800017 	ldw	r2,0(r2)
 2001768:	e0bfec15 	stw	r2,-80(fp)
 200176c:	e03fed15 	stw	zero,-76(fp)
 2001770:	00001506 	br	20017c8 <___vfprintf_internal_r+0xc5c>
 2001774:	9880100c 	andi	r2,r19,64
 2001778:	10000d26 	beq	r2,zero,20017b0 <___vfprintf_internal_r+0xc44>
 200177c:	e0bfe917 	ldw	r2,-92(fp)
 2001780:	10c00104 	addi	r3,r2,4
 2001784:	e0ffe915 	stw	r3,-92(fp)
 2001788:	10800017 	ldw	r2,0(r2)
 200178c:	e0bff415 	stw	r2,-48(fp)
 2001790:	e03ff515 	stw	zero,-44(fp)
 2001794:	e0bff417 	ldw	r2,-48(fp)
 2001798:	10bfffcc 	andi	r2,r2,65535
 200179c:	e0bfec15 	stw	r2,-80(fp)
 20017a0:	e0fff517 	ldw	r3,-44(fp)
 20017a4:	1806703a 	and	r3,r3,zero
 20017a8:	e0ffed15 	stw	r3,-76(fp)
 20017ac:	00000606 	br	20017c8 <___vfprintf_internal_r+0xc5c>
 20017b0:	e0bfe917 	ldw	r2,-92(fp)
 20017b4:	10c00104 	addi	r3,r2,4
 20017b8:	e0ffe915 	stw	r3,-92(fp)
 20017bc:	10800017 	ldw	r2,0(r2)
 20017c0:	e0bfec15 	stw	r2,-80(fp)
 20017c4:	e03fed15 	stw	zero,-76(fp)
 20017c8:	e0bfec17 	ldw	r2,-80(fp)
 20017cc:	e0bfb115 	stw	r2,-316(fp)
 20017d0:	e0ffed17 	ldw	r3,-76(fp)
 20017d4:	e0ffb215 	stw	r3,-312(fp)
			base = DEC;
 20017d8:	00800044 	movi	r2,1
 20017dc:	e0bfb305 	stb	r2,-308(fp)
			goto nosign;
 20017e0:	00004006 	br	20018e4 <___vfprintf_internal_r+0xd78>
		case 'X':
			xdigs = "0123456789ABCDEF";
 20017e4:	00808074 	movhi	r2,513
 20017e8:	108b8104 	addi	r2,r2,11780
 20017ec:	e0bfb715 	stw	r2,-292(fp)
			goto hex;
 20017f0:	00000306 	br	2001800 <___vfprintf_internal_r+0xc94>
		case 'x':
			xdigs = "0123456789abcdef";
 20017f4:	00808074 	movhi	r2,513
 20017f8:	108b7a04 	addi	r2,r2,11752
 20017fc:	e0bfb715 	stw	r2,-292(fp)
hex:			_uquad = UARG ();
 2001800:	9880080c 	andi	r2,r19,32
 2001804:	10000826 	beq	r2,zero,2001828 <___vfprintf_internal_r+0xcbc>
 2001808:	e0bfe917 	ldw	r2,-92(fp)
 200180c:	10c00204 	addi	r3,r2,8
 2001810:	e0ffe915 	stw	r3,-92(fp)
 2001814:	10c00017 	ldw	r3,0(r2)
 2001818:	e0ffee15 	stw	r3,-72(fp)
 200181c:	10c00117 	ldw	r3,4(r2)
 2001820:	e0ffef15 	stw	r3,-68(fp)
 2001824:	00001e06 	br	20018a0 <___vfprintf_internal_r+0xd34>
 2001828:	9880040c 	andi	r2,r19,16
 200182c:	10000726 	beq	r2,zero,200184c <___vfprintf_internal_r+0xce0>
 2001830:	e0bfe917 	ldw	r2,-92(fp)
 2001834:	10c00104 	addi	r3,r2,4
 2001838:	e0ffe915 	stw	r3,-92(fp)
 200183c:	10800017 	ldw	r2,0(r2)
 2001840:	e0bfee15 	stw	r2,-72(fp)
 2001844:	e03fef15 	stw	zero,-68(fp)
 2001848:	00001506 	br	20018a0 <___vfprintf_internal_r+0xd34>
 200184c:	9880100c 	andi	r2,r19,64
 2001850:	10000d26 	beq	r2,zero,2001888 <___vfprintf_internal_r+0xd1c>
 2001854:	e0bfe917 	ldw	r2,-92(fp)
 2001858:	10c00104 	addi	r3,r2,4
 200185c:	e0ffe915 	stw	r3,-92(fp)
 2001860:	10800017 	ldw	r2,0(r2)
 2001864:	e0bff615 	stw	r2,-40(fp)
 2001868:	e03ff715 	stw	zero,-36(fp)
 200186c:	e0bff617 	ldw	r2,-40(fp)
 2001870:	10bfffcc 	andi	r2,r2,65535
 2001874:	e0bfee15 	stw	r2,-72(fp)
 2001878:	e0fff717 	ldw	r3,-36(fp)
 200187c:	1806703a 	and	r3,r3,zero
 2001880:	e0ffef15 	stw	r3,-68(fp)
 2001884:	00000606 	br	20018a0 <___vfprintf_internal_r+0xd34>
 2001888:	e0bfe917 	ldw	r2,-92(fp)
 200188c:	10c00104 	addi	r3,r2,4
 2001890:	e0ffe915 	stw	r3,-92(fp)
 2001894:	10800017 	ldw	r2,0(r2)
 2001898:	e0bfee15 	stw	r2,-72(fp)
 200189c:	e03fef15 	stw	zero,-68(fp)
 20018a0:	e0bfee17 	ldw	r2,-72(fp)
 20018a4:	e0bfb115 	stw	r2,-316(fp)
 20018a8:	e0ffef17 	ldw	r3,-68(fp)
 20018ac:	e0ffb215 	stw	r3,-312(fp)
			base = HEX;
 20018b0:	00800084 	movi	r2,2
 20018b4:	e0bfb305 	stb	r2,-308(fp)
			/* leading 0x/X only if non-zero */
			if (flags & ALT && _uquad != 0) {
 20018b8:	9880004c 	andi	r2,r19,1
 20018bc:	10000926 	beq	r2,zero,20018e4 <___vfprintf_internal_r+0xd78>
 20018c0:	e0bfb117 	ldw	r2,-316(fp)
 20018c4:	e0ffb217 	ldw	r3,-312(fp)
 20018c8:	10c4b03a 	or	r2,r2,r3
 20018cc:	10000526 	beq	r2,zero,20018e4 <___vfprintf_internal_r+0xd78>
				ox[0] = '0';
 20018d0:	00800c04 	movi	r2,48
 20018d4:	e0bfe505 	stb	r2,-108(fp)
				ox[1] = ch;
 20018d8:	a005883a 	mov	r2,r20
 20018dc:	e0bfe545 	stb	r2,-107(fp)
				flags |= HEXPREFIX;
 20018e0:	9cc00094 	ori	r19,r19,2

#ifdef _WANT_IO_C99_FORMATS
			flags &= ~GROUPING;
#endif
			/* unsigned conversions */
nosign:			sign = '\0';
 20018e4:	e03fc105 	stb	zero,-252(fp)
			/*
			 * ``... diouXx conversions ... if a precision is
			 * specified, the 0 flag will be ignored.''
			 *	-- ANSI X3J11
			 */
number:			if ((dprec = prec) >= 0)
 20018e8:	e0bfae17 	ldw	r2,-328(fp)
 20018ec:	e0bfb415 	stw	r2,-304(fp)
 20018f0:	e0bfb417 	ldw	r2,-304(fp)
 20018f4:	10000216 	blt	r2,zero,2001900 <___vfprintf_internal_r+0xd94>
				flags &= ~ZEROPAD;
 20018f8:	00bfdfc4 	movi	r2,-129
 20018fc:	98a6703a 	and	r19,r19,r2
			/*
			 * ``The result of converting a zero value with an
			 * explicit precision of zero is no characters.''
			 *	-- ANSI X3J11
			 */
			cp = buf + BUF;
 2001900:	e4bfdb04 	addi	r18,fp,-148
 2001904:	94800a04 	addi	r18,r18,40
			if (_uquad != 0 || prec != 0) {
 2001908:	e0bfb117 	ldw	r2,-316(fp)
 200190c:	e0ffb217 	ldw	r3,-312(fp)
 2001910:	10c4b03a 	or	r2,r2,r3
 2001914:	1000021e 	bne	r2,zero,2001920 <___vfprintf_internal_r+0xdb4>
 2001918:	e0bfae17 	ldw	r2,-328(fp)
 200191c:	10006c26 	beq	r2,zero,2001ad0 <___vfprintf_internal_r+0xf64>
				/*
				 * Unsigned mod is hard, and unsigned mod
				 * by a constant is easier than that by
				 * a variable; hence this switch.
				 */
				switch (base) {
 2001920:	e0bfb303 	ldbu	r2,-308(fp)
 2001924:	10c00060 	cmpeqi	r3,r2,1
 2001928:	1800211e 	bne	r3,zero,20019b0 <___vfprintf_internal_r+0xe44>
 200192c:	10c000a0 	cmpeqi	r3,r2,2
 2001930:	1800491e 	bne	r3,zero,2001a58 <___vfprintf_internal_r+0xeec>
 2001934:	10005d1e 	bne	r2,zero,2001aac <___vfprintf_internal_r+0xf40>
				case OCT:
					do {
						*--cp = to_char (_uquad & 7);
 2001938:	94bfffc4 	addi	r18,r18,-1
 200193c:	e0bfb117 	ldw	r2,-316(fp)
 2001940:	108001cc 	andi	r2,r2,7
 2001944:	10800c04 	addi	r2,r2,48
 2001948:	90800005 	stb	r2,0(r18)
						_uquad >>= 3;
 200194c:	e0bfb217 	ldw	r2,-312(fp)
 2001950:	1004977a 	slli	r2,r2,29
 2001954:	e0ffb117 	ldw	r3,-316(fp)
 2001958:	1806d0fa 	srli	r3,r3,3
 200195c:	1884b03a 	or	r2,r3,r2
 2001960:	e0bfb115 	stw	r2,-316(fp)
 2001964:	e0bfb217 	ldw	r2,-312(fp)
 2001968:	1004d0fa 	srli	r2,r2,3
 200196c:	e0bfb215 	stw	r2,-312(fp)
					} while (_uquad);
 2001970:	e0bfb117 	ldw	r2,-316(fp)
 2001974:	e0ffb217 	ldw	r3,-312(fp)
 2001978:	10c4b03a 	or	r2,r2,r3
 200197c:	103fee1e 	bne	r2,zero,2001938 <___vfprintf_internal_r+0xdcc>
					/* handle octal leading 0 */
					if (flags & ALT && *cp != '0')
 2001980:	9880004c 	andi	r2,r19,1
 2001984:	10005026 	beq	r2,zero,2001ac8 <___vfprintf_internal_r+0xf5c>
 2001988:	90800003 	ldbu	r2,0(r18)
 200198c:	10803fcc 	andi	r2,r2,255
 2001990:	1080201c 	xori	r2,r2,128
 2001994:	10bfe004 	addi	r2,r2,-128
 2001998:	10800c20 	cmpeqi	r2,r2,48
 200199c:	10004a1e 	bne	r2,zero,2001ac8 <___vfprintf_internal_r+0xf5c>
						*--cp = '0';
 20019a0:	94bfffc4 	addi	r18,r18,-1
 20019a4:	00800c04 	movi	r2,48
 20019a8:	90800005 	stb	r2,0(r18)
					break;
 20019ac:	00004606 	br	2001ac8 <___vfprintf_internal_r+0xf5c>

				case DEC:
					/* many numbers are 1 digit */
					if (_uquad < 10) {
 20019b0:	e0bfb217 	ldw	r2,-312(fp)
 20019b4:	10000a1e 	bne	r2,zero,20019e0 <___vfprintf_internal_r+0xe74>
 20019b8:	e0bfb217 	ldw	r2,-312(fp)
 20019bc:	1000031e 	bne	r2,zero,20019cc <___vfprintf_internal_r+0xe60>
 20019c0:	e0bfb117 	ldw	r2,-316(fp)
 20019c4:	108002a8 	cmpgeui	r2,r2,10
 20019c8:	1000051e 	bne	r2,zero,20019e0 <___vfprintf_internal_r+0xe74>
						*--cp = to_char(_uquad);
 20019cc:	94bfffc4 	addi	r18,r18,-1
 20019d0:	e0bfb117 	ldw	r2,-316(fp)
 20019d4:	10800c04 	addi	r2,r2,48
 20019d8:	90800005 	stb	r2,0(r18)
						break;
 20019dc:	00003b06 	br	2001acc <___vfprintf_internal_r+0xf60>
					}
#ifdef _WANT_IO_C99_FORMATS
					ndig = 0;
#endif
					do {
					  *--cp = to_char (_uquad % 10);
 20019e0:	94bfffc4 	addi	r18,r18,-1
 20019e4:	e0bfb117 	ldw	r2,-316(fp)
 20019e8:	e0ffb217 	ldw	r3,-312(fp)
 20019ec:	01800284 	movi	r6,10
 20019f0:	000f883a 	mov	r7,zero
 20019f4:	1009883a 	mov	r4,r2
 20019f8:	180b883a 	mov	r5,r3
 20019fc:	200d5500 	call	200d550 <__umoddi3>
 2001a00:	1009883a 	mov	r4,r2
 2001a04:	180b883a 	mov	r5,r3
 2001a08:	2005883a 	mov	r2,r4
 2001a0c:	2807883a 	mov	r3,r5
 2001a10:	10800c04 	addi	r2,r2,48
 2001a14:	90800005 	stb	r2,0(r18)
					       next cases. */
					    if (grouping[1] != '\0')
					      grouping++;
					  }
#endif
					  _uquad /= 10;
 2001a18:	e0bfb117 	ldw	r2,-316(fp)
 2001a1c:	e0ffb217 	ldw	r3,-312(fp)
 2001a20:	01800284 	movi	r6,10
 2001a24:	000f883a 	mov	r7,zero
 2001a28:	1009883a 	mov	r4,r2
 2001a2c:	180b883a 	mov	r5,r3
 2001a30:	200cfd80 	call	200cfd8 <__udivdi3>
 2001a34:	1009883a 	mov	r4,r2
 2001a38:	180b883a 	mov	r5,r3
 2001a3c:	e13fb115 	stw	r4,-316(fp)
 2001a40:	e17fb215 	stw	r5,-312(fp)
					} while (_uquad != 0);
 2001a44:	e0bfb117 	ldw	r2,-316(fp)
 2001a48:	e0ffb217 	ldw	r3,-312(fp)
 2001a4c:	10c4b03a 	or	r2,r2,r3
 2001a50:	103fe31e 	bne	r2,zero,20019e0 <___vfprintf_internal_r+0xe74>
					break;
 2001a54:	00001d06 	br	2001acc <___vfprintf_internal_r+0xf60>

				case HEX:
					do {
						*--cp = xdigs[_uquad & 15];
 2001a58:	94bfffc4 	addi	r18,r18,-1
 2001a5c:	e0bfb117 	ldw	r2,-316(fp)
 2001a60:	108003cc 	andi	r2,r2,15
 2001a64:	e0ffb717 	ldw	r3,-292(fp)
 2001a68:	1885883a 	add	r2,r3,r2
 2001a6c:	10800003 	ldbu	r2,0(r2)
 2001a70:	90800005 	stb	r2,0(r18)
						_uquad >>= 4;
 2001a74:	e0bfb217 	ldw	r2,-312(fp)
 2001a78:	1004973a 	slli	r2,r2,28
 2001a7c:	e0ffb117 	ldw	r3,-316(fp)
 2001a80:	1806d13a 	srli	r3,r3,4
 2001a84:	1884b03a 	or	r2,r3,r2
 2001a88:	e0bfb115 	stw	r2,-316(fp)
 2001a8c:	e0bfb217 	ldw	r2,-312(fp)
 2001a90:	1004d13a 	srli	r2,r2,4
 2001a94:	e0bfb215 	stw	r2,-312(fp)
					} while (_uquad);
 2001a98:	e0bfb117 	ldw	r2,-316(fp)
 2001a9c:	e0ffb217 	ldw	r3,-312(fp)
 2001aa0:	10c4b03a 	or	r2,r2,r3
 2001aa4:	103fec1e 	bne	r2,zero,2001a58 <___vfprintf_internal_r+0xeec>
					break;
 2001aa8:	00000806 	br	2001acc <___vfprintf_internal_r+0xf60>

				default:
					cp = "bug in vfprintf: bad base";
 2001aac:	04808074 	movhi	r18,513
 2001ab0:	948b8604 	addi	r18,r18,11800
					size = strlen (cp);
 2001ab4:	9009883a 	mov	r4,r18
 2001ab8:	20009380 	call	2000938 <strlen>
 2001abc:	e0bfb615 	stw	r2,-296(fp)
					goto skipsize;
 2001ac0:	0001883a 	nop
                       else if (base == OCT && (flags & ALT))
                         *--cp = '0';

			size = buf + BUF - cp;
		skipsize:
			break;
 2001ac4:	00001906 	br	2001b2c <___vfprintf_internal_r+0xfc0>
						_uquad >>= 3;
					} while (_uquad);
					/* handle octal leading 0 */
					if (flags & ALT && *cp != '0')
						*--cp = '0';
					break;
 2001ac8:	0001883a 	nop
				default:
					cp = "bug in vfprintf: bad base";
					size = strlen (cp);
					goto skipsize;
				}
			}
 2001acc:	00000706 	br	2001aec <___vfprintf_internal_r+0xf80>
			*     -- ANSI X3J11
			*
			* To demonstrate this case, compile and run:
                        *    printf ("%#.0o",0);
			*/
                       else if (base == OCT && (flags & ALT))
 2001ad0:	e0bfb303 	ldbu	r2,-308(fp)
 2001ad4:	1000051e 	bne	r2,zero,2001aec <___vfprintf_internal_r+0xf80>
 2001ad8:	9880004c 	andi	r2,r19,1
 2001adc:	10000326 	beq	r2,zero,2001aec <___vfprintf_internal_r+0xf80>
                         *--cp = '0';
 2001ae0:	94bfffc4 	addi	r18,r18,-1
 2001ae4:	00800c04 	movi	r2,48
 2001ae8:	90800005 	stb	r2,0(r18)

			size = buf + BUF - cp;
 2001aec:	e0bfdb04 	addi	r2,fp,-148
 2001af0:	10800a04 	addi	r2,r2,40
 2001af4:	1007883a 	mov	r3,r2
 2001af8:	9005883a 	mov	r2,r18
 2001afc:	1885c83a 	sub	r2,r3,r2
 2001b00:	e0bfb615 	stw	r2,-296(fp)
		skipsize:
			break;
 2001b04:	00000906 	br	2001b2c <___vfprintf_internal_r+0xfc0>
		default:	/* "%?" prints ?, unless ? is NUL */
			if (ch == '\0')
 2001b08:	a003dc26 	beq	r20,zero,2002a7c <___vfprintf_internal_r+0x1f10>
				goto done;
			/* pretend it was %c with argument ch */
			cp = buf;
 2001b0c:	e4bfdb04 	addi	r18,fp,-148
			*cp = ch;
 2001b10:	a005883a 	mov	r2,r20
 2001b14:	90800005 	stb	r2,0(r18)
			size = 1;
 2001b18:	00800044 	movi	r2,1
 2001b1c:	e0bfb615 	stw	r2,-296(fp)
			sign = '\0';
 2001b20:	e03fc105 	stb	zero,-252(fp)
			break;
 2001b24:	00000106 	br	2001b2c <___vfprintf_internal_r+0xfc0>
					lead = expt;
			}

			if (softsign)
				sign = '-';
			break;
 2001b28:	0001883a 	nop
		 * If flags&FPT, ch must be in [aAeEfg].
		 *
		 * Compute actual size, so we know how much to pad.
		 * size excludes decimal prec; realsz includes it.
		 */
		realsz = dprec > size ? dprec : size;
 2001b2c:	e0ffb417 	ldw	r3,-304(fp)
 2001b30:	e0bfb617 	ldw	r2,-296(fp)
 2001b34:	10c0010e 	bge	r2,r3,2001b3c <___vfprintf_internal_r+0xfd0>
 2001b38:	1805883a 	mov	r2,r3
 2001b3c:	e0bfb515 	stw	r2,-300(fp)
		if (sign)
 2001b40:	e0bfc103 	ldbu	r2,-252(fp)
 2001b44:	10803fcc 	andi	r2,r2,255
 2001b48:	1080201c 	xori	r2,r2,128
 2001b4c:	10bfe004 	addi	r2,r2,-128
 2001b50:	10000326 	beq	r2,zero,2001b60 <___vfprintf_internal_r+0xff4>
			realsz++;
 2001b54:	e0bfb517 	ldw	r2,-300(fp)
 2001b58:	10800044 	addi	r2,r2,1
 2001b5c:	e0bfb515 	stw	r2,-300(fp)
		if (flags & HEXPREFIX)
 2001b60:	9880008c 	andi	r2,r19,2
 2001b64:	10000326 	beq	r2,zero,2001b74 <___vfprintf_internal_r+0x1008>
			realsz+= 2;
 2001b68:	e0bfb517 	ldw	r2,-300(fp)
 2001b6c:	10800084 	addi	r2,r2,2
 2001b70:	e0bfb515 	stw	r2,-300(fp)

		/* right-adjusting blank padding */
		if ((flags & (LADJUST|ZEROPAD)) == 0)
 2001b74:	9880210c 	andi	r2,r19,132
 2001b78:	1000351e 	bne	r2,zero,2001c50 <___vfprintf_internal_r+0x10e4>
			PAD (width - realsz, blanks);
 2001b7c:	e0ffad17 	ldw	r3,-332(fp)
 2001b80:	e0bfb517 	ldw	r2,-300(fp)
 2001b84:	18a1c83a 	sub	r16,r3,r2
 2001b88:	0400310e 	bge	zero,r16,2001c50 <___vfprintf_internal_r+0x10e4>
 2001b8c:	00001706 	br	2001bec <___vfprintf_internal_r+0x1080>
 2001b90:	00808074 	movhi	r2,513
 2001b94:	108b8d84 	addi	r2,r2,11830
 2001b98:	88800015 	stw	r2,0(r17)
 2001b9c:	00800404 	movi	r2,16
 2001ba0:	88800115 	stw	r2,4(r17)
 2001ba4:	e0bfca17 	ldw	r2,-216(fp)
 2001ba8:	10800404 	addi	r2,r2,16
 2001bac:	e0bfca15 	stw	r2,-216(fp)
 2001bb0:	8c400204 	addi	r17,r17,8
 2001bb4:	e0bfc917 	ldw	r2,-220(fp)
 2001bb8:	10800044 	addi	r2,r2,1
 2001bbc:	e0bfc915 	stw	r2,-220(fp)
 2001bc0:	e0bfc917 	ldw	r2,-220(fp)
 2001bc4:	10800210 	cmplti	r2,r2,8
 2001bc8:	1000071e 	bne	r2,zero,2001be8 <___vfprintf_internal_r+0x107c>
 2001bcc:	e0bfc804 	addi	r2,fp,-224
 2001bd0:	100d883a 	mov	r6,r2
 2001bd4:	e17fe717 	ldw	r5,-100(fp)
 2001bd8:	e13fe617 	ldw	r4,-104(fp)
 2001bdc:	200ae440 	call	200ae44 <__sprint_r>
 2001be0:	1003b41e 	bne	r2,zero,2002ab4 <___vfprintf_internal_r+0x1f48>
 2001be4:	e47fcb04 	addi	r17,fp,-212
 2001be8:	843ffc04 	addi	r16,r16,-16
 2001bec:	80800448 	cmpgei	r2,r16,17
 2001bf0:	103fe71e 	bne	r2,zero,2001b90 <___vfprintf_internal_r+0x1024>
 2001bf4:	00808074 	movhi	r2,513
 2001bf8:	108b8d84 	addi	r2,r2,11830
 2001bfc:	88800015 	stw	r2,0(r17)
 2001c00:	8005883a 	mov	r2,r16
 2001c04:	88800115 	stw	r2,4(r17)
 2001c08:	e0bfca17 	ldw	r2,-216(fp)
 2001c0c:	8007883a 	mov	r3,r16
 2001c10:	10c5883a 	add	r2,r2,r3
 2001c14:	e0bfca15 	stw	r2,-216(fp)
 2001c18:	8c400204 	addi	r17,r17,8
 2001c1c:	e0bfc917 	ldw	r2,-220(fp)
 2001c20:	10800044 	addi	r2,r2,1
 2001c24:	e0bfc915 	stw	r2,-220(fp)
 2001c28:	e0bfc917 	ldw	r2,-220(fp)
 2001c2c:	10800210 	cmplti	r2,r2,8
 2001c30:	1000071e 	bne	r2,zero,2001c50 <___vfprintf_internal_r+0x10e4>
 2001c34:	e0bfc804 	addi	r2,fp,-224
 2001c38:	100d883a 	mov	r6,r2
 2001c3c:	e17fe717 	ldw	r5,-100(fp)
 2001c40:	e13fe617 	ldw	r4,-104(fp)
 2001c44:	200ae440 	call	200ae44 <__sprint_r>
 2001c48:	10039c1e 	bne	r2,zero,2002abc <___vfprintf_internal_r+0x1f50>
 2001c4c:	e47fcb04 	addi	r17,fp,-212

		/* prefix */
		if (sign)
 2001c50:	e0bfc103 	ldbu	r2,-252(fp)
 2001c54:	10803fcc 	andi	r2,r2,255
 2001c58:	1080201c 	xori	r2,r2,128
 2001c5c:	10bfe004 	addi	r2,r2,-128
 2001c60:	10001526 	beq	r2,zero,2001cb8 <___vfprintf_internal_r+0x114c>
			PRINT (&sign, 1);
 2001c64:	e0bfc104 	addi	r2,fp,-252
 2001c68:	88800015 	stw	r2,0(r17)
 2001c6c:	00800044 	movi	r2,1
 2001c70:	88800115 	stw	r2,4(r17)
 2001c74:	e0bfca17 	ldw	r2,-216(fp)
 2001c78:	10800044 	addi	r2,r2,1
 2001c7c:	e0bfca15 	stw	r2,-216(fp)
 2001c80:	8c400204 	addi	r17,r17,8
 2001c84:	e0bfc917 	ldw	r2,-220(fp)
 2001c88:	10800044 	addi	r2,r2,1
 2001c8c:	e0bfc915 	stw	r2,-220(fp)
 2001c90:	e0bfc917 	ldw	r2,-220(fp)
 2001c94:	10800210 	cmplti	r2,r2,8
 2001c98:	1000071e 	bne	r2,zero,2001cb8 <___vfprintf_internal_r+0x114c>
 2001c9c:	e0bfc804 	addi	r2,fp,-224
 2001ca0:	100d883a 	mov	r6,r2
 2001ca4:	e17fe717 	ldw	r5,-100(fp)
 2001ca8:	e13fe617 	ldw	r4,-104(fp)
 2001cac:	200ae440 	call	200ae44 <__sprint_r>
 2001cb0:	1003841e 	bne	r2,zero,2002ac4 <___vfprintf_internal_r+0x1f58>
 2001cb4:	e47fcb04 	addi	r17,fp,-212
		if (flags & HEXPREFIX)
 2001cb8:	9880008c 	andi	r2,r19,2
 2001cbc:	10001526 	beq	r2,zero,2001d14 <___vfprintf_internal_r+0x11a8>
			PRINT (ox, 2);
 2001cc0:	e0bfe504 	addi	r2,fp,-108
 2001cc4:	88800015 	stw	r2,0(r17)
 2001cc8:	00800084 	movi	r2,2
 2001ccc:	88800115 	stw	r2,4(r17)
 2001cd0:	e0bfca17 	ldw	r2,-216(fp)
 2001cd4:	10800084 	addi	r2,r2,2
 2001cd8:	e0bfca15 	stw	r2,-216(fp)
 2001cdc:	8c400204 	addi	r17,r17,8
 2001ce0:	e0bfc917 	ldw	r2,-220(fp)
 2001ce4:	10800044 	addi	r2,r2,1
 2001ce8:	e0bfc915 	stw	r2,-220(fp)
 2001cec:	e0bfc917 	ldw	r2,-220(fp)
 2001cf0:	10800210 	cmplti	r2,r2,8
 2001cf4:	1000071e 	bne	r2,zero,2001d14 <___vfprintf_internal_r+0x11a8>
 2001cf8:	e0bfc804 	addi	r2,fp,-224
 2001cfc:	100d883a 	mov	r6,r2
 2001d00:	e17fe717 	ldw	r5,-100(fp)
 2001d04:	e13fe617 	ldw	r4,-104(fp)
 2001d08:	200ae440 	call	200ae44 <__sprint_r>
 2001d0c:	10036f1e 	bne	r2,zero,2002acc <___vfprintf_internal_r+0x1f60>
 2001d10:	e47fcb04 	addi	r17,fp,-212

		/* right-adjusting zero padding */
		if ((flags & (LADJUST|ZEROPAD)) == ZEROPAD)
 2001d14:	9880210c 	andi	r2,r19,132
 2001d18:	10802018 	cmpnei	r2,r2,128
 2001d1c:	1000351e 	bne	r2,zero,2001df4 <___vfprintf_internal_r+0x1288>
			PAD (width - realsz, zeroes);
 2001d20:	e0ffad17 	ldw	r3,-332(fp)
 2001d24:	e0bfb517 	ldw	r2,-300(fp)
 2001d28:	18a1c83a 	sub	r16,r3,r2
 2001d2c:	0400310e 	bge	zero,r16,2001df4 <___vfprintf_internal_r+0x1288>
 2001d30:	00001706 	br	2001d90 <___vfprintf_internal_r+0x1224>
 2001d34:	00808074 	movhi	r2,513
 2001d38:	108b9184 	addi	r2,r2,11846
 2001d3c:	88800015 	stw	r2,0(r17)
 2001d40:	00800404 	movi	r2,16
 2001d44:	88800115 	stw	r2,4(r17)
 2001d48:	e0bfca17 	ldw	r2,-216(fp)
 2001d4c:	10800404 	addi	r2,r2,16
 2001d50:	e0bfca15 	stw	r2,-216(fp)
 2001d54:	8c400204 	addi	r17,r17,8
 2001d58:	e0bfc917 	ldw	r2,-220(fp)
 2001d5c:	10800044 	addi	r2,r2,1
 2001d60:	e0bfc915 	stw	r2,-220(fp)
 2001d64:	e0bfc917 	ldw	r2,-220(fp)
 2001d68:	10800210 	cmplti	r2,r2,8
 2001d6c:	1000071e 	bne	r2,zero,2001d8c <___vfprintf_internal_r+0x1220>
 2001d70:	e0bfc804 	addi	r2,fp,-224
 2001d74:	100d883a 	mov	r6,r2
 2001d78:	e17fe717 	ldw	r5,-100(fp)
 2001d7c:	e13fe617 	ldw	r4,-104(fp)
 2001d80:	200ae440 	call	200ae44 <__sprint_r>
 2001d84:	1003531e 	bne	r2,zero,2002ad4 <___vfprintf_internal_r+0x1f68>
 2001d88:	e47fcb04 	addi	r17,fp,-212
 2001d8c:	843ffc04 	addi	r16,r16,-16
 2001d90:	80800448 	cmpgei	r2,r16,17
 2001d94:	103fe71e 	bne	r2,zero,2001d34 <___vfprintf_internal_r+0x11c8>
 2001d98:	00808074 	movhi	r2,513
 2001d9c:	108b9184 	addi	r2,r2,11846
 2001da0:	88800015 	stw	r2,0(r17)
 2001da4:	8005883a 	mov	r2,r16
 2001da8:	88800115 	stw	r2,4(r17)
 2001dac:	e0bfca17 	ldw	r2,-216(fp)
 2001db0:	8007883a 	mov	r3,r16
 2001db4:	10c5883a 	add	r2,r2,r3
 2001db8:	e0bfca15 	stw	r2,-216(fp)
 2001dbc:	8c400204 	addi	r17,r17,8
 2001dc0:	e0bfc917 	ldw	r2,-220(fp)
 2001dc4:	10800044 	addi	r2,r2,1
 2001dc8:	e0bfc915 	stw	r2,-220(fp)
 2001dcc:	e0bfc917 	ldw	r2,-220(fp)
 2001dd0:	10800210 	cmplti	r2,r2,8
 2001dd4:	1000071e 	bne	r2,zero,2001df4 <___vfprintf_internal_r+0x1288>
 2001dd8:	e0bfc804 	addi	r2,fp,-224
 2001ddc:	100d883a 	mov	r6,r2
 2001de0:	e17fe717 	ldw	r5,-100(fp)
 2001de4:	e13fe617 	ldw	r4,-104(fp)
 2001de8:	200ae440 	call	200ae44 <__sprint_r>
 2001dec:	10033b1e 	bne	r2,zero,2002adc <___vfprintf_internal_r+0x1f70>
 2001df0:	e47fcb04 	addi	r17,fp,-212

		/* leading zeroes from decimal precision */
		PAD (dprec - size, zeroes);
 2001df4:	e0ffb417 	ldw	r3,-304(fp)
 2001df8:	e0bfb617 	ldw	r2,-296(fp)
 2001dfc:	18a1c83a 	sub	r16,r3,r2
 2001e00:	0400310e 	bge	zero,r16,2001ec8 <___vfprintf_internal_r+0x135c>
 2001e04:	00001706 	br	2001e64 <___vfprintf_internal_r+0x12f8>
 2001e08:	00808074 	movhi	r2,513
 2001e0c:	108b9184 	addi	r2,r2,11846
 2001e10:	88800015 	stw	r2,0(r17)
 2001e14:	00800404 	movi	r2,16
 2001e18:	88800115 	stw	r2,4(r17)
 2001e1c:	e0bfca17 	ldw	r2,-216(fp)
 2001e20:	10800404 	addi	r2,r2,16
 2001e24:	e0bfca15 	stw	r2,-216(fp)
 2001e28:	8c400204 	addi	r17,r17,8
 2001e2c:	e0bfc917 	ldw	r2,-220(fp)
 2001e30:	10800044 	addi	r2,r2,1
 2001e34:	e0bfc915 	stw	r2,-220(fp)
 2001e38:	e0bfc917 	ldw	r2,-220(fp)
 2001e3c:	10800210 	cmplti	r2,r2,8
 2001e40:	1000071e 	bne	r2,zero,2001e60 <___vfprintf_internal_r+0x12f4>
 2001e44:	e0bfc804 	addi	r2,fp,-224
 2001e48:	100d883a 	mov	r6,r2
 2001e4c:	e17fe717 	ldw	r5,-100(fp)
 2001e50:	e13fe617 	ldw	r4,-104(fp)
 2001e54:	200ae440 	call	200ae44 <__sprint_r>
 2001e58:	1003221e 	bne	r2,zero,2002ae4 <___vfprintf_internal_r+0x1f78>
 2001e5c:	e47fcb04 	addi	r17,fp,-212
 2001e60:	843ffc04 	addi	r16,r16,-16
 2001e64:	80800448 	cmpgei	r2,r16,17
 2001e68:	103fe71e 	bne	r2,zero,2001e08 <___vfprintf_internal_r+0x129c>
 2001e6c:	00808074 	movhi	r2,513
 2001e70:	108b9184 	addi	r2,r2,11846
 2001e74:	88800015 	stw	r2,0(r17)
 2001e78:	8005883a 	mov	r2,r16
 2001e7c:	88800115 	stw	r2,4(r17)
 2001e80:	e0bfca17 	ldw	r2,-216(fp)
 2001e84:	8007883a 	mov	r3,r16
 2001e88:	10c5883a 	add	r2,r2,r3
 2001e8c:	e0bfca15 	stw	r2,-216(fp)
 2001e90:	8c400204 	addi	r17,r17,8
 2001e94:	e0bfc917 	ldw	r2,-220(fp)
 2001e98:	10800044 	addi	r2,r2,1
 2001e9c:	e0bfc915 	stw	r2,-220(fp)
 2001ea0:	e0bfc917 	ldw	r2,-220(fp)
 2001ea4:	10800210 	cmplti	r2,r2,8
 2001ea8:	1000071e 	bne	r2,zero,2001ec8 <___vfprintf_internal_r+0x135c>
 2001eac:	e0bfc804 	addi	r2,fp,-224
 2001eb0:	100d883a 	mov	r6,r2
 2001eb4:	e17fe717 	ldw	r5,-100(fp)
 2001eb8:	e13fe617 	ldw	r4,-104(fp)
 2001ebc:	200ae440 	call	200ae44 <__sprint_r>
 2001ec0:	10030a1e 	bne	r2,zero,2002aec <___vfprintf_internal_r+0x1f80>
 2001ec4:	e47fcb04 	addi	r17,fp,-212

		/* the string or number proper */
#ifdef FLOATING_POINT
		if ((flags & FPT) == 0) {
 2001ec8:	9880400c 	andi	r2,r19,256
 2001ecc:	1000161e 	bne	r2,zero,2001f28 <___vfprintf_internal_r+0x13bc>
			PRINT (cp, size);
 2001ed0:	8c800015 	stw	r18,0(r17)
 2001ed4:	e0bfb617 	ldw	r2,-296(fp)
 2001ed8:	88800115 	stw	r2,4(r17)
 2001edc:	e0ffca17 	ldw	r3,-216(fp)
 2001ee0:	e0bfb617 	ldw	r2,-296(fp)
 2001ee4:	1885883a 	add	r2,r3,r2
 2001ee8:	e0bfca15 	stw	r2,-216(fp)
 2001eec:	8c400204 	addi	r17,r17,8
 2001ef0:	e0bfc917 	ldw	r2,-220(fp)
 2001ef4:	10800044 	addi	r2,r2,1
 2001ef8:	e0bfc915 	stw	r2,-220(fp)
 2001efc:	e0bfc917 	ldw	r2,-220(fp)
 2001f00:	10800210 	cmplti	r2,r2,8
 2001f04:	10028c1e 	bne	r2,zero,2002938 <___vfprintf_internal_r+0x1dcc>
 2001f08:	e0bfc804 	addi	r2,fp,-224
 2001f0c:	100d883a 	mov	r6,r2
 2001f10:	e17fe717 	ldw	r5,-100(fp)
 2001f14:	e13fe617 	ldw	r4,-104(fp)
 2001f18:	200ae440 	call	200ae44 <__sprint_r>
 2001f1c:	1002f51e 	bne	r2,zero,2002af4 <___vfprintf_internal_r+0x1f88>
 2001f20:	e47fcb04 	addi	r17,fp,-212
 2001f24:	00028406 	br	2002938 <___vfprintf_internal_r+0x1dcc>
		} else {	/* glue together f_p fragments */
			if (ch >= 'f') {	/* 'f' or 'g' */
 2001f28:	a0801990 	cmplti	r2,r20,102
 2001f2c:	1001d11e 	bne	r2,zero,2002674 <___vfprintf_internal_r+0x1b08>
				if (_fpvalue == 0) {
 2001f30:	e0bfc217 	ldw	r2,-248(fp)
 2001f34:	e0ffc317 	ldw	r3,-244(fp)
 2001f38:	000d883a 	mov	r6,zero
 2001f3c:	000f883a 	mov	r7,zero
 2001f40:	1009883a 	mov	r4,r2
 2001f44:	180b883a 	mov	r5,r3
 2001f48:	200edd00 	call	200edd0 <__eqdf2>
 2001f4c:	1000661e 	bne	r2,zero,20020e8 <___vfprintf_internal_r+0x157c>
					/* kludge for __dtoa irregularity */
					PRINT ("0", 1);
 2001f50:	00808074 	movhi	r2,513
 2001f54:	108b8d04 	addi	r2,r2,11828
 2001f58:	88800015 	stw	r2,0(r17)
 2001f5c:	00800044 	movi	r2,1
 2001f60:	88800115 	stw	r2,4(r17)
 2001f64:	e0bfca17 	ldw	r2,-216(fp)
 2001f68:	10800044 	addi	r2,r2,1
 2001f6c:	e0bfca15 	stw	r2,-216(fp)
 2001f70:	8c400204 	addi	r17,r17,8
 2001f74:	e0bfc917 	ldw	r2,-220(fp)
 2001f78:	10800044 	addi	r2,r2,1
 2001f7c:	e0bfc915 	stw	r2,-220(fp)
 2001f80:	e0bfc917 	ldw	r2,-220(fp)
 2001f84:	10800210 	cmplti	r2,r2,8
 2001f88:	1000071e 	bne	r2,zero,2001fa8 <___vfprintf_internal_r+0x143c>
 2001f8c:	e0bfc804 	addi	r2,fp,-224
 2001f90:	100d883a 	mov	r6,r2
 2001f94:	e17fe717 	ldw	r5,-100(fp)
 2001f98:	e13fe617 	ldw	r4,-104(fp)
 2001f9c:	200ae440 	call	200ae44 <__sprint_r>
 2001fa0:	1002d61e 	bne	r2,zero,2002afc <___vfprintf_internal_r+0x1f90>
 2001fa4:	e47fcb04 	addi	r17,fp,-212
					if (expt < ndig || flags & ALT) {
 2001fa8:	e0ffc417 	ldw	r3,-240(fp)
 2001fac:	e0bfc717 	ldw	r2,-228(fp)
 2001fb0:	18800216 	blt	r3,r2,2001fbc <___vfprintf_internal_r+0x1450>
 2001fb4:	9880004c 	andi	r2,r19,1
 2001fb8:	10025f26 	beq	r2,zero,2002938 <___vfprintf_internal_r+0x1dcc>
						PRINT (decimal_point, decp_len);
 2001fbc:	e0bfbb17 	ldw	r2,-276(fp)
 2001fc0:	88800015 	stw	r2,0(r17)
 2001fc4:	e0bfbc17 	ldw	r2,-272(fp)
 2001fc8:	88800115 	stw	r2,4(r17)
 2001fcc:	e0ffca17 	ldw	r3,-216(fp)
 2001fd0:	e0bfbc17 	ldw	r2,-272(fp)
 2001fd4:	1885883a 	add	r2,r3,r2
 2001fd8:	e0bfca15 	stw	r2,-216(fp)
 2001fdc:	8c400204 	addi	r17,r17,8
 2001fe0:	e0bfc917 	ldw	r2,-220(fp)
 2001fe4:	10800044 	addi	r2,r2,1
 2001fe8:	e0bfc915 	stw	r2,-220(fp)
 2001fec:	e0bfc917 	ldw	r2,-220(fp)
 2001ff0:	10800210 	cmplti	r2,r2,8
 2001ff4:	1000071e 	bne	r2,zero,2002014 <___vfprintf_internal_r+0x14a8>
 2001ff8:	e0bfc804 	addi	r2,fp,-224
 2001ffc:	100d883a 	mov	r6,r2
 2002000:	e17fe717 	ldw	r5,-100(fp)
 2002004:	e13fe617 	ldw	r4,-104(fp)
 2002008:	200ae440 	call	200ae44 <__sprint_r>
 200200c:	1002bd1e 	bne	r2,zero,2002b04 <___vfprintf_internal_r+0x1f98>
 2002010:	e47fcb04 	addi	r17,fp,-212
						PAD (ndig - 1, zeroes);
 2002014:	e0bfc717 	ldw	r2,-228(fp)
 2002018:	143fffc4 	addi	r16,r2,-1
 200201c:	0402460e 	bge	zero,r16,2002938 <___vfprintf_internal_r+0x1dcc>
 2002020:	00001706 	br	2002080 <___vfprintf_internal_r+0x1514>
 2002024:	00808074 	movhi	r2,513
 2002028:	108b9184 	addi	r2,r2,11846
 200202c:	88800015 	stw	r2,0(r17)
 2002030:	00800404 	movi	r2,16
 2002034:	88800115 	stw	r2,4(r17)
 2002038:	e0bfca17 	ldw	r2,-216(fp)
 200203c:	10800404 	addi	r2,r2,16
 2002040:	e0bfca15 	stw	r2,-216(fp)
 2002044:	8c400204 	addi	r17,r17,8
 2002048:	e0bfc917 	ldw	r2,-220(fp)
 200204c:	10800044 	addi	r2,r2,1
 2002050:	e0bfc915 	stw	r2,-220(fp)
 2002054:	e0bfc917 	ldw	r2,-220(fp)
 2002058:	10800210 	cmplti	r2,r2,8
 200205c:	1000071e 	bne	r2,zero,200207c <___vfprintf_internal_r+0x1510>
 2002060:	e0bfc804 	addi	r2,fp,-224
 2002064:	100d883a 	mov	r6,r2
 2002068:	e17fe717 	ldw	r5,-100(fp)
 200206c:	e13fe617 	ldw	r4,-104(fp)
 2002070:	200ae440 	call	200ae44 <__sprint_r>
 2002074:	1002a51e 	bne	r2,zero,2002b0c <___vfprintf_internal_r+0x1fa0>
 2002078:	e47fcb04 	addi	r17,fp,-212
 200207c:	843ffc04 	addi	r16,r16,-16
 2002080:	80800448 	cmpgei	r2,r16,17
 2002084:	103fe71e 	bne	r2,zero,2002024 <___vfprintf_internal_r+0x14b8>
 2002088:	00808074 	movhi	r2,513
 200208c:	108b9184 	addi	r2,r2,11846
 2002090:	88800015 	stw	r2,0(r17)
 2002094:	8005883a 	mov	r2,r16
 2002098:	88800115 	stw	r2,4(r17)
 200209c:	e0bfca17 	ldw	r2,-216(fp)
 20020a0:	8007883a 	mov	r3,r16
 20020a4:	10c5883a 	add	r2,r2,r3
 20020a8:	e0bfca15 	stw	r2,-216(fp)
 20020ac:	8c400204 	addi	r17,r17,8
 20020b0:	e0bfc917 	ldw	r2,-220(fp)
 20020b4:	10800044 	addi	r2,r2,1
 20020b8:	e0bfc915 	stw	r2,-220(fp)
 20020bc:	e0bfc917 	ldw	r2,-220(fp)
 20020c0:	10800210 	cmplti	r2,r2,8
 20020c4:	10021c1e 	bne	r2,zero,2002938 <___vfprintf_internal_r+0x1dcc>
 20020c8:	e0bfc804 	addi	r2,fp,-224
 20020cc:	100d883a 	mov	r6,r2
 20020d0:	e17fe717 	ldw	r5,-100(fp)
 20020d4:	e13fe617 	ldw	r4,-104(fp)
 20020d8:	200ae440 	call	200ae44 <__sprint_r>
 20020dc:	10028d1e 	bne	r2,zero,2002b14 <___vfprintf_internal_r+0x1fa8>
 20020e0:	e47fcb04 	addi	r17,fp,-212
 20020e4:	00021406 	br	2002938 <___vfprintf_internal_r+0x1dcc>
					}
				} else if (expt <= 0) {
 20020e8:	e0bfc417 	ldw	r2,-240(fp)
 20020ec:	00807c16 	blt	zero,r2,20022e0 <___vfprintf_internal_r+0x1774>
					PRINT ("0", 1);
 20020f0:	00808074 	movhi	r2,513
 20020f4:	108b8d04 	addi	r2,r2,11828
 20020f8:	88800015 	stw	r2,0(r17)
 20020fc:	00800044 	movi	r2,1
 2002100:	88800115 	stw	r2,4(r17)
 2002104:	e0bfca17 	ldw	r2,-216(fp)
 2002108:	10800044 	addi	r2,r2,1
 200210c:	e0bfca15 	stw	r2,-216(fp)
 2002110:	8c400204 	addi	r17,r17,8
 2002114:	e0bfc917 	ldw	r2,-220(fp)
 2002118:	10800044 	addi	r2,r2,1
 200211c:	e0bfc915 	stw	r2,-220(fp)
 2002120:	e0bfc917 	ldw	r2,-220(fp)
 2002124:	10800210 	cmplti	r2,r2,8
 2002128:	1000071e 	bne	r2,zero,2002148 <___vfprintf_internal_r+0x15dc>
 200212c:	e0bfc804 	addi	r2,fp,-224
 2002130:	100d883a 	mov	r6,r2
 2002134:	e17fe717 	ldw	r5,-100(fp)
 2002138:	e13fe617 	ldw	r4,-104(fp)
 200213c:	200ae440 	call	200ae44 <__sprint_r>
 2002140:	1002761e 	bne	r2,zero,2002b1c <___vfprintf_internal_r+0x1fb0>
 2002144:	e47fcb04 	addi	r17,fp,-212
					if (expt || ndig || flags & ALT) {
 2002148:	e0bfc417 	ldw	r2,-240(fp)
 200214c:	1000041e 	bne	r2,zero,2002160 <___vfprintf_internal_r+0x15f4>
 2002150:	e0bfc717 	ldw	r2,-228(fp)
 2002154:	1000021e 	bne	r2,zero,2002160 <___vfprintf_internal_r+0x15f4>
 2002158:	9880004c 	andi	r2,r19,1
 200215c:	1001f626 	beq	r2,zero,2002938 <___vfprintf_internal_r+0x1dcc>
						PRINT (decimal_point, decp_len);
 2002160:	e0bfbb17 	ldw	r2,-276(fp)
 2002164:	88800015 	stw	r2,0(r17)
 2002168:	e0bfbc17 	ldw	r2,-272(fp)
 200216c:	88800115 	stw	r2,4(r17)
 2002170:	e0ffca17 	ldw	r3,-216(fp)
 2002174:	e0bfbc17 	ldw	r2,-272(fp)
 2002178:	1885883a 	add	r2,r3,r2
 200217c:	e0bfca15 	stw	r2,-216(fp)
 2002180:	8c400204 	addi	r17,r17,8
 2002184:	e0bfc917 	ldw	r2,-220(fp)
 2002188:	10800044 	addi	r2,r2,1
 200218c:	e0bfc915 	stw	r2,-220(fp)
 2002190:	e0bfc917 	ldw	r2,-220(fp)
 2002194:	10800210 	cmplti	r2,r2,8
 2002198:	1000071e 	bne	r2,zero,20021b8 <___vfprintf_internal_r+0x164c>
 200219c:	e0bfc804 	addi	r2,fp,-224
 20021a0:	100d883a 	mov	r6,r2
 20021a4:	e17fe717 	ldw	r5,-100(fp)
 20021a8:	e13fe617 	ldw	r4,-104(fp)
 20021ac:	200ae440 	call	200ae44 <__sprint_r>
 20021b0:	10025c1e 	bne	r2,zero,2002b24 <___vfprintf_internal_r+0x1fb8>
 20021b4:	e47fcb04 	addi	r17,fp,-212
						PAD (-expt, zeroes);
 20021b8:	e0bfc417 	ldw	r2,-240(fp)
 20021bc:	00a1c83a 	sub	r16,zero,r2
 20021c0:	0400310e 	bge	zero,r16,2002288 <___vfprintf_internal_r+0x171c>
 20021c4:	00001706 	br	2002224 <___vfprintf_internal_r+0x16b8>
 20021c8:	00808074 	movhi	r2,513
 20021cc:	108b9184 	addi	r2,r2,11846
 20021d0:	88800015 	stw	r2,0(r17)
 20021d4:	00800404 	movi	r2,16
 20021d8:	88800115 	stw	r2,4(r17)
 20021dc:	e0bfca17 	ldw	r2,-216(fp)
 20021e0:	10800404 	addi	r2,r2,16
 20021e4:	e0bfca15 	stw	r2,-216(fp)
 20021e8:	8c400204 	addi	r17,r17,8
 20021ec:	e0bfc917 	ldw	r2,-220(fp)
 20021f0:	10800044 	addi	r2,r2,1
 20021f4:	e0bfc915 	stw	r2,-220(fp)
 20021f8:	e0bfc917 	ldw	r2,-220(fp)
 20021fc:	10800210 	cmplti	r2,r2,8
 2002200:	1000071e 	bne	r2,zero,2002220 <___vfprintf_internal_r+0x16b4>
 2002204:	e0bfc804 	addi	r2,fp,-224
 2002208:	100d883a 	mov	r6,r2
 200220c:	e17fe717 	ldw	r5,-100(fp)
 2002210:	e13fe617 	ldw	r4,-104(fp)
 2002214:	200ae440 	call	200ae44 <__sprint_r>
 2002218:	1002441e 	bne	r2,zero,2002b2c <___vfprintf_internal_r+0x1fc0>
 200221c:	e47fcb04 	addi	r17,fp,-212
 2002220:	843ffc04 	addi	r16,r16,-16
 2002224:	80800448 	cmpgei	r2,r16,17
 2002228:	103fe71e 	bne	r2,zero,20021c8 <___vfprintf_internal_r+0x165c>
 200222c:	00808074 	movhi	r2,513
 2002230:	108b9184 	addi	r2,r2,11846
 2002234:	88800015 	stw	r2,0(r17)
 2002238:	8005883a 	mov	r2,r16
 200223c:	88800115 	stw	r2,4(r17)
 2002240:	e0bfca17 	ldw	r2,-216(fp)
 2002244:	8007883a 	mov	r3,r16
 2002248:	10c5883a 	add	r2,r2,r3
 200224c:	e0bfca15 	stw	r2,-216(fp)
 2002250:	8c400204 	addi	r17,r17,8
 2002254:	e0bfc917 	ldw	r2,-220(fp)
 2002258:	10800044 	addi	r2,r2,1
 200225c:	e0bfc915 	stw	r2,-220(fp)
 2002260:	e0bfc917 	ldw	r2,-220(fp)
 2002264:	10800210 	cmplti	r2,r2,8
 2002268:	1000071e 	bne	r2,zero,2002288 <___vfprintf_internal_r+0x171c>
 200226c:	e0bfc804 	addi	r2,fp,-224
 2002270:	100d883a 	mov	r6,r2
 2002274:	e17fe717 	ldw	r5,-100(fp)
 2002278:	e13fe617 	ldw	r4,-104(fp)
 200227c:	200ae440 	call	200ae44 <__sprint_r>
 2002280:	10022c1e 	bne	r2,zero,2002b34 <___vfprintf_internal_r+0x1fc8>
 2002284:	e47fcb04 	addi	r17,fp,-212
						PRINT (cp, ndig);
 2002288:	8c800015 	stw	r18,0(r17)
 200228c:	e0bfc717 	ldw	r2,-228(fp)
 2002290:	88800115 	stw	r2,4(r17)
 2002294:	e0bfca17 	ldw	r2,-216(fp)
 2002298:	e0ffc717 	ldw	r3,-228(fp)
 200229c:	10c5883a 	add	r2,r2,r3
 20022a0:	e0bfca15 	stw	r2,-216(fp)
 20022a4:	8c400204 	addi	r17,r17,8
 20022a8:	e0bfc917 	ldw	r2,-220(fp)
 20022ac:	10800044 	addi	r2,r2,1
 20022b0:	e0bfc915 	stw	r2,-220(fp)
 20022b4:	e0bfc917 	ldw	r2,-220(fp)
 20022b8:	10800210 	cmplti	r2,r2,8
 20022bc:	10019e1e 	bne	r2,zero,2002938 <___vfprintf_internal_r+0x1dcc>
 20022c0:	e0bfc804 	addi	r2,fp,-224
 20022c4:	100d883a 	mov	r6,r2
 20022c8:	e17fe717 	ldw	r5,-100(fp)
 20022cc:	e13fe617 	ldw	r4,-104(fp)
 20022d0:	200ae440 	call	200ae44 <__sprint_r>
 20022d4:	1002191e 	bne	r2,zero,2002b3c <___vfprintf_internal_r+0x1fd0>
 20022d8:	e47fcb04 	addi	r17,fp,-212
 20022dc:	00019606 	br	2002938 <___vfprintf_internal_r+0x1dcc>
					}
				} else {
					char *convbuf = cp;
 20022e0:	e4bfc015 	stw	r18,-256(fp)
					PRINTANDPAD(cp, convbuf + ndig,
 20022e4:	e0bfc717 	ldw	r2,-228(fp)
 20022e8:	1007883a 	mov	r3,r2
 20022ec:	e0bfc017 	ldw	r2,-256(fp)
 20022f0:	10c5883a 	add	r2,r2,r3
 20022f4:	1007883a 	mov	r3,r2
 20022f8:	9005883a 	mov	r2,r18
 20022fc:	1885c83a 	sub	r2,r3,r2
 2002300:	e0bfb915 	stw	r2,-284(fp)
 2002304:	e0bfb917 	ldw	r2,-284(fp)
 2002308:	e0ffb017 	ldw	r3,-320(fp)
 200230c:	1880020e 	bge	r3,r2,2002318 <___vfprintf_internal_r+0x17ac>
 2002310:	e0bfb017 	ldw	r2,-320(fp)
 2002314:	e0bfb915 	stw	r2,-284(fp)
 2002318:	e0bfb917 	ldw	r2,-284(fp)
 200231c:	0080150e 	bge	zero,r2,2002374 <___vfprintf_internal_r+0x1808>
 2002320:	8c800015 	stw	r18,0(r17)
 2002324:	e0bfb917 	ldw	r2,-284(fp)
 2002328:	88800115 	stw	r2,4(r17)
 200232c:	e0ffca17 	ldw	r3,-216(fp)
 2002330:	e0bfb917 	ldw	r2,-284(fp)
 2002334:	1885883a 	add	r2,r3,r2
 2002338:	e0bfca15 	stw	r2,-216(fp)
 200233c:	8c400204 	addi	r17,r17,8
 2002340:	e0bfc917 	ldw	r2,-220(fp)
 2002344:	10800044 	addi	r2,r2,1
 2002348:	e0bfc915 	stw	r2,-220(fp)
 200234c:	e0bfc917 	ldw	r2,-220(fp)
 2002350:	10800210 	cmplti	r2,r2,8
 2002354:	1000071e 	bne	r2,zero,2002374 <___vfprintf_internal_r+0x1808>
 2002358:	e0bfc804 	addi	r2,fp,-224
 200235c:	100d883a 	mov	r6,r2
 2002360:	e17fe717 	ldw	r5,-100(fp)
 2002364:	e13fe617 	ldw	r4,-104(fp)
 2002368:	200ae440 	call	200ae44 <__sprint_r>
 200236c:	1001f51e 	bne	r2,zero,2002b44 <___vfprintf_internal_r+0x1fd8>
 2002370:	e47fcb04 	addi	r17,fp,-212
 2002374:	e0bfb917 	ldw	r2,-284(fp)
 2002378:	1000010e 	bge	r2,zero,2002380 <___vfprintf_internal_r+0x1814>
 200237c:	0005883a 	mov	r2,zero
 2002380:	e0ffb017 	ldw	r3,-320(fp)
 2002384:	1885c83a 	sub	r2,r3,r2
 2002388:	e0bfb915 	stw	r2,-284(fp)
 200238c:	e0bfb917 	ldw	r2,-284(fp)
 2002390:	0080340e 	bge	zero,r2,2002464 <___vfprintf_internal_r+0x18f8>
 2002394:	00001906 	br	20023fc <___vfprintf_internal_r+0x1890>
 2002398:	00808074 	movhi	r2,513
 200239c:	108b9184 	addi	r2,r2,11846
 20023a0:	88800015 	stw	r2,0(r17)
 20023a4:	00800404 	movi	r2,16
 20023a8:	88800115 	stw	r2,4(r17)
 20023ac:	e0bfca17 	ldw	r2,-216(fp)
 20023b0:	10800404 	addi	r2,r2,16
 20023b4:	e0bfca15 	stw	r2,-216(fp)
 20023b8:	8c400204 	addi	r17,r17,8
 20023bc:	e0bfc917 	ldw	r2,-220(fp)
 20023c0:	10800044 	addi	r2,r2,1
 20023c4:	e0bfc915 	stw	r2,-220(fp)
 20023c8:	e0bfc917 	ldw	r2,-220(fp)
 20023cc:	10800210 	cmplti	r2,r2,8
 20023d0:	1000071e 	bne	r2,zero,20023f0 <___vfprintf_internal_r+0x1884>
 20023d4:	e0bfc804 	addi	r2,fp,-224
 20023d8:	100d883a 	mov	r6,r2
 20023dc:	e17fe717 	ldw	r5,-100(fp)
 20023e0:	e13fe617 	ldw	r4,-104(fp)
 20023e4:	200ae440 	call	200ae44 <__sprint_r>
 20023e8:	1001d81e 	bne	r2,zero,2002b4c <___vfprintf_internal_r+0x1fe0>
 20023ec:	e47fcb04 	addi	r17,fp,-212
 20023f0:	e0bfb917 	ldw	r2,-284(fp)
 20023f4:	10bffc04 	addi	r2,r2,-16
 20023f8:	e0bfb915 	stw	r2,-284(fp)
 20023fc:	e0bfb917 	ldw	r2,-284(fp)
 2002400:	10800448 	cmpgei	r2,r2,17
 2002404:	103fe41e 	bne	r2,zero,2002398 <___vfprintf_internal_r+0x182c>
 2002408:	00808074 	movhi	r2,513
 200240c:	108b9184 	addi	r2,r2,11846
 2002410:	88800015 	stw	r2,0(r17)
 2002414:	e0bfb917 	ldw	r2,-284(fp)
 2002418:	88800115 	stw	r2,4(r17)
 200241c:	e0ffca17 	ldw	r3,-216(fp)
 2002420:	e0bfb917 	ldw	r2,-284(fp)
 2002424:	1885883a 	add	r2,r3,r2
 2002428:	e0bfca15 	stw	r2,-216(fp)
 200242c:	8c400204 	addi	r17,r17,8
 2002430:	e0bfc917 	ldw	r2,-220(fp)
 2002434:	10800044 	addi	r2,r2,1
 2002438:	e0bfc915 	stw	r2,-220(fp)
 200243c:	e0bfc917 	ldw	r2,-220(fp)
 2002440:	10800210 	cmplti	r2,r2,8
 2002444:	1000071e 	bne	r2,zero,2002464 <___vfprintf_internal_r+0x18f8>
 2002448:	e0bfc804 	addi	r2,fp,-224
 200244c:	100d883a 	mov	r6,r2
 2002450:	e17fe717 	ldw	r5,-100(fp)
 2002454:	e13fe617 	ldw	r4,-104(fp)
 2002458:	200ae440 	call	200ae44 <__sprint_r>
 200245c:	1001bd1e 	bne	r2,zero,2002b54 <___vfprintf_internal_r+0x1fe8>
 2002460:	e47fcb04 	addi	r17,fp,-212
						    lead, zeroes);
					cp += lead;
 2002464:	e0bfb017 	ldw	r2,-320(fp)
 2002468:	90a5883a 	add	r18,r18,r2
					    }
					    if (cp > convbuf + ndig)
						cp = convbuf + ndig;
					}
#endif
					if (expt < ndig || flags & ALT)
 200246c:	e0ffc417 	ldw	r3,-240(fp)
 2002470:	e0bfc717 	ldw	r2,-228(fp)
 2002474:	18800216 	blt	r3,r2,2002480 <___vfprintf_internal_r+0x1914>
 2002478:	9880004c 	andi	r2,r19,1
 200247c:	10001626 	beq	r2,zero,20024d8 <___vfprintf_internal_r+0x196c>
					    PRINT (decimal_point, decp_len);
 2002480:	e0bfbb17 	ldw	r2,-276(fp)
 2002484:	88800015 	stw	r2,0(r17)
 2002488:	e0bfbc17 	ldw	r2,-272(fp)
 200248c:	88800115 	stw	r2,4(r17)
 2002490:	e0ffca17 	ldw	r3,-216(fp)
 2002494:	e0bfbc17 	ldw	r2,-272(fp)
 2002498:	1885883a 	add	r2,r3,r2
 200249c:	e0bfca15 	stw	r2,-216(fp)
 20024a0:	8c400204 	addi	r17,r17,8
 20024a4:	e0bfc917 	ldw	r2,-220(fp)
 20024a8:	10800044 	addi	r2,r2,1
 20024ac:	e0bfc915 	stw	r2,-220(fp)
 20024b0:	e0bfc917 	ldw	r2,-220(fp)
 20024b4:	10800210 	cmplti	r2,r2,8
 20024b8:	1000071e 	bne	r2,zero,20024d8 <___vfprintf_internal_r+0x196c>
 20024bc:	e0bfc804 	addi	r2,fp,-224
 20024c0:	100d883a 	mov	r6,r2
 20024c4:	e17fe717 	ldw	r5,-100(fp)
 20024c8:	e13fe617 	ldw	r4,-104(fp)
 20024cc:	200ae440 	call	200ae44 <__sprint_r>
 20024d0:	1001a21e 	bne	r2,zero,2002b5c <___vfprintf_internal_r+0x1ff0>
 20024d4:	e47fcb04 	addi	r17,fp,-212
					PRINTANDPAD (cp, convbuf + ndig,
 20024d8:	e0bfc717 	ldw	r2,-228(fp)
 20024dc:	1007883a 	mov	r3,r2
 20024e0:	e0bfc017 	ldw	r2,-256(fp)
 20024e4:	10c5883a 	add	r2,r2,r3
 20024e8:	1007883a 	mov	r3,r2
 20024ec:	9005883a 	mov	r2,r18
 20024f0:	1885c83a 	sub	r2,r3,r2
 20024f4:	e0bfba15 	stw	r2,-280(fp)
 20024f8:	e0ffc717 	ldw	r3,-228(fp)
 20024fc:	e0bfc417 	ldw	r2,-240(fp)
 2002500:	1887c83a 	sub	r3,r3,r2
 2002504:	e0bfba17 	ldw	r2,-280(fp)
 2002508:	1880040e 	bge	r3,r2,200251c <___vfprintf_internal_r+0x19b0>
 200250c:	e0ffc717 	ldw	r3,-228(fp)
 2002510:	e0bfc417 	ldw	r2,-240(fp)
 2002514:	1885c83a 	sub	r2,r3,r2
 2002518:	e0bfba15 	stw	r2,-280(fp)
 200251c:	e0bfba17 	ldw	r2,-280(fp)
 2002520:	0080150e 	bge	zero,r2,2002578 <___vfprintf_internal_r+0x1a0c>
 2002524:	8c800015 	stw	r18,0(r17)
 2002528:	e0bfba17 	ldw	r2,-280(fp)
 200252c:	88800115 	stw	r2,4(r17)
 2002530:	e0ffca17 	ldw	r3,-216(fp)
 2002534:	e0bfba17 	ldw	r2,-280(fp)
 2002538:	1885883a 	add	r2,r3,r2
 200253c:	e0bfca15 	stw	r2,-216(fp)
 2002540:	8c400204 	addi	r17,r17,8
 2002544:	e0bfc917 	ldw	r2,-220(fp)
 2002548:	10800044 	addi	r2,r2,1
 200254c:	e0bfc915 	stw	r2,-220(fp)
 2002550:	e0bfc917 	ldw	r2,-220(fp)
 2002554:	10800210 	cmplti	r2,r2,8
 2002558:	1000071e 	bne	r2,zero,2002578 <___vfprintf_internal_r+0x1a0c>
 200255c:	e0bfc804 	addi	r2,fp,-224
 2002560:	100d883a 	mov	r6,r2
 2002564:	e17fe717 	ldw	r5,-100(fp)
 2002568:	e13fe617 	ldw	r4,-104(fp)
 200256c:	200ae440 	call	200ae44 <__sprint_r>
 2002570:	10017c1e 	bne	r2,zero,2002b64 <___vfprintf_internal_r+0x1ff8>
 2002574:	e47fcb04 	addi	r17,fp,-212
 2002578:	e0ffc717 	ldw	r3,-228(fp)
 200257c:	e0bfc417 	ldw	r2,-240(fp)
 2002580:	1887c83a 	sub	r3,r3,r2
 2002584:	e0bfba17 	ldw	r2,-280(fp)
 2002588:	1000010e 	bge	r2,zero,2002590 <___vfprintf_internal_r+0x1a24>
 200258c:	0005883a 	mov	r2,zero
 2002590:	1885c83a 	sub	r2,r3,r2
 2002594:	e0bfba15 	stw	r2,-280(fp)
 2002598:	e0bfba17 	ldw	r2,-280(fp)
 200259c:	0080e60e 	bge	zero,r2,2002938 <___vfprintf_internal_r+0x1dcc>
 20025a0:	00001906 	br	2002608 <___vfprintf_internal_r+0x1a9c>
 20025a4:	00808074 	movhi	r2,513
 20025a8:	108b9184 	addi	r2,r2,11846
 20025ac:	88800015 	stw	r2,0(r17)
 20025b0:	00800404 	movi	r2,16
 20025b4:	88800115 	stw	r2,4(r17)
 20025b8:	e0bfca17 	ldw	r2,-216(fp)
 20025bc:	10800404 	addi	r2,r2,16
 20025c0:	e0bfca15 	stw	r2,-216(fp)
 20025c4:	8c400204 	addi	r17,r17,8
 20025c8:	e0bfc917 	ldw	r2,-220(fp)
 20025cc:	10800044 	addi	r2,r2,1
 20025d0:	e0bfc915 	stw	r2,-220(fp)
 20025d4:	e0bfc917 	ldw	r2,-220(fp)
 20025d8:	10800210 	cmplti	r2,r2,8
 20025dc:	1000071e 	bne	r2,zero,20025fc <___vfprintf_internal_r+0x1a90>
 20025e0:	e0bfc804 	addi	r2,fp,-224
 20025e4:	100d883a 	mov	r6,r2
 20025e8:	e17fe717 	ldw	r5,-100(fp)
 20025ec:	e13fe617 	ldw	r4,-104(fp)
 20025f0:	200ae440 	call	200ae44 <__sprint_r>
 20025f4:	10015d1e 	bne	r2,zero,2002b6c <___vfprintf_internal_r+0x2000>
 20025f8:	e47fcb04 	addi	r17,fp,-212
 20025fc:	e0bfba17 	ldw	r2,-280(fp)
 2002600:	10bffc04 	addi	r2,r2,-16
 2002604:	e0bfba15 	stw	r2,-280(fp)
 2002608:	e0bfba17 	ldw	r2,-280(fp)
 200260c:	10800448 	cmpgei	r2,r2,17
 2002610:	103fe41e 	bne	r2,zero,20025a4 <___vfprintf_internal_r+0x1a38>
 2002614:	00808074 	movhi	r2,513
 2002618:	108b9184 	addi	r2,r2,11846
 200261c:	88800015 	stw	r2,0(r17)
 2002620:	e0bfba17 	ldw	r2,-280(fp)
 2002624:	88800115 	stw	r2,4(r17)
 2002628:	e0ffca17 	ldw	r3,-216(fp)
 200262c:	e0bfba17 	ldw	r2,-280(fp)
 2002630:	1885883a 	add	r2,r3,r2
 2002634:	e0bfca15 	stw	r2,-216(fp)
 2002638:	8c400204 	addi	r17,r17,8
 200263c:	e0bfc917 	ldw	r2,-220(fp)
 2002640:	10800044 	addi	r2,r2,1
 2002644:	e0bfc915 	stw	r2,-220(fp)
 2002648:	e0bfc917 	ldw	r2,-220(fp)
 200264c:	10800210 	cmplti	r2,r2,8
 2002650:	1000b91e 	bne	r2,zero,2002938 <___vfprintf_internal_r+0x1dcc>
 2002654:	e0bfc804 	addi	r2,fp,-224
 2002658:	100d883a 	mov	r6,r2
 200265c:	e17fe717 	ldw	r5,-100(fp)
 2002660:	e13fe617 	ldw	r4,-104(fp)
 2002664:	200ae440 	call	200ae44 <__sprint_r>
 2002668:	1001421e 	bne	r2,zero,2002b74 <___vfprintf_internal_r+0x2008>
 200266c:	e47fcb04 	addi	r17,fp,-212
 2002670:	0000b106 	br	2002938 <___vfprintf_internal_r+0x1dcc>
						     ndig - expt, zeroes);
				}
			} else {	/* 'a', 'A', 'e', or 'E' */
				if (ndig > 1 || flags & ALT) {
 2002674:	e0bfc717 	ldw	r2,-228(fp)
 2002678:	10800088 	cmpgei	r2,r2,2
 200267c:	1000021e 	bne	r2,zero,2002688 <___vfprintf_internal_r+0x1b1c>
 2002680:	9880004c 	andi	r2,r19,1
 2002684:	10008026 	beq	r2,zero,2002888 <___vfprintf_internal_r+0x1d1c>
					PRINT (cp, 1);
 2002688:	8c800015 	stw	r18,0(r17)
 200268c:	00800044 	movi	r2,1
 2002690:	88800115 	stw	r2,4(r17)
 2002694:	e0bfca17 	ldw	r2,-216(fp)
 2002698:	10800044 	addi	r2,r2,1
 200269c:	e0bfca15 	stw	r2,-216(fp)
 20026a0:	8c400204 	addi	r17,r17,8
 20026a4:	e0bfc917 	ldw	r2,-220(fp)
 20026a8:	10800044 	addi	r2,r2,1
 20026ac:	e0bfc915 	stw	r2,-220(fp)
 20026b0:	e0bfc917 	ldw	r2,-220(fp)
 20026b4:	10800210 	cmplti	r2,r2,8
 20026b8:	1000071e 	bne	r2,zero,20026d8 <___vfprintf_internal_r+0x1b6c>
 20026bc:	e0bfc804 	addi	r2,fp,-224
 20026c0:	100d883a 	mov	r6,r2
 20026c4:	e17fe717 	ldw	r5,-100(fp)
 20026c8:	e13fe617 	ldw	r4,-104(fp)
 20026cc:	200ae440 	call	200ae44 <__sprint_r>
 20026d0:	10012a1e 	bne	r2,zero,2002b7c <___vfprintf_internal_r+0x2010>
 20026d4:	e47fcb04 	addi	r17,fp,-212
					cp++;
 20026d8:	94800044 	addi	r18,r18,1
					PRINT (decimal_point, decp_len);
 20026dc:	e0bfbb17 	ldw	r2,-276(fp)
 20026e0:	88800015 	stw	r2,0(r17)
 20026e4:	e0bfbc17 	ldw	r2,-272(fp)
 20026e8:	88800115 	stw	r2,4(r17)
 20026ec:	e0ffca17 	ldw	r3,-216(fp)
 20026f0:	e0bfbc17 	ldw	r2,-272(fp)
 20026f4:	1885883a 	add	r2,r3,r2
 20026f8:	e0bfca15 	stw	r2,-216(fp)
 20026fc:	8c400204 	addi	r17,r17,8
 2002700:	e0bfc917 	ldw	r2,-220(fp)
 2002704:	10800044 	addi	r2,r2,1
 2002708:	e0bfc915 	stw	r2,-220(fp)
 200270c:	e0bfc917 	ldw	r2,-220(fp)
 2002710:	10800210 	cmplti	r2,r2,8
 2002714:	1000071e 	bne	r2,zero,2002734 <___vfprintf_internal_r+0x1bc8>
 2002718:	e0bfc804 	addi	r2,fp,-224
 200271c:	100d883a 	mov	r6,r2
 2002720:	e17fe717 	ldw	r5,-100(fp)
 2002724:	e13fe617 	ldw	r4,-104(fp)
 2002728:	200ae440 	call	200ae44 <__sprint_r>
 200272c:	1001151e 	bne	r2,zero,2002b84 <___vfprintf_internal_r+0x2018>
 2002730:	e47fcb04 	addi	r17,fp,-212
					if (_fpvalue) {
 2002734:	e0bfc217 	ldw	r2,-248(fp)
 2002738:	e0ffc317 	ldw	r3,-244(fp)
 200273c:	000d883a 	mov	r6,zero
 2002740:	000f883a 	mov	r7,zero
 2002744:	1009883a 	mov	r4,r2
 2002748:	180b883a 	mov	r5,r3
 200274c:	200edd00 	call	200edd0 <__eqdf2>
 2002750:	10001826 	beq	r2,zero,20027b4 <___vfprintf_internal_r+0x1c48>
						PRINT (cp, ndig - 1);
 2002754:	8c800015 	stw	r18,0(r17)
 2002758:	e0bfc717 	ldw	r2,-228(fp)
 200275c:	10bfffc4 	addi	r2,r2,-1
 2002760:	88800115 	stw	r2,4(r17)
 2002764:	e0bfca17 	ldw	r2,-216(fp)
 2002768:	e0ffc717 	ldw	r3,-228(fp)
 200276c:	10c5883a 	add	r2,r2,r3
 2002770:	10bfffc4 	addi	r2,r2,-1
 2002774:	e0bfca15 	stw	r2,-216(fp)
 2002778:	8c400204 	addi	r17,r17,8
 200277c:	e0bfc917 	ldw	r2,-220(fp)
 2002780:	10800044 	addi	r2,r2,1
 2002784:	e0bfc915 	stw	r2,-220(fp)
 2002788:	e0bfc917 	ldw	r2,-220(fp)
 200278c:	10800210 	cmplti	r2,r2,8
 2002790:	1000521e 	bne	r2,zero,20028dc <___vfprintf_internal_r+0x1d70>
 2002794:	e0bfc804 	addi	r2,fp,-224
 2002798:	100d883a 	mov	r6,r2
 200279c:	e17fe717 	ldw	r5,-100(fp)
 20027a0:	e13fe617 	ldw	r4,-104(fp)
 20027a4:	200ae440 	call	200ae44 <__sprint_r>
 20027a8:	1000f81e 	bne	r2,zero,2002b8c <___vfprintf_internal_r+0x2020>
 20027ac:	e47fcb04 	addi	r17,fp,-212
			} else {	/* 'a', 'A', 'e', or 'E' */
				if (ndig > 1 || flags & ALT) {
					PRINT (cp, 1);
					cp++;
					PRINT (decimal_point, decp_len);
					if (_fpvalue) {
 20027b0:	00004a06 	br	20028dc <___vfprintf_internal_r+0x1d70>
						PRINT (cp, ndig - 1);
					} else	/* 0.[0..] */
						/* __dtoa irregularity */
						PAD (ndig - 1, zeroes);
 20027b4:	e0bfc717 	ldw	r2,-228(fp)
 20027b8:	143fffc4 	addi	r16,r2,-1
 20027bc:	0400470e 	bge	zero,r16,20028dc <___vfprintf_internal_r+0x1d70>
 20027c0:	00001706 	br	2002820 <___vfprintf_internal_r+0x1cb4>
 20027c4:	00808074 	movhi	r2,513
 20027c8:	108b9184 	addi	r2,r2,11846
 20027cc:	88800015 	stw	r2,0(r17)
 20027d0:	00800404 	movi	r2,16
 20027d4:	88800115 	stw	r2,4(r17)
 20027d8:	e0bfca17 	ldw	r2,-216(fp)
 20027dc:	10800404 	addi	r2,r2,16
 20027e0:	e0bfca15 	stw	r2,-216(fp)
 20027e4:	8c400204 	addi	r17,r17,8
 20027e8:	e0bfc917 	ldw	r2,-220(fp)
 20027ec:	10800044 	addi	r2,r2,1
 20027f0:	e0bfc915 	stw	r2,-220(fp)
 20027f4:	e0bfc917 	ldw	r2,-220(fp)
 20027f8:	10800210 	cmplti	r2,r2,8
 20027fc:	1000071e 	bne	r2,zero,200281c <___vfprintf_internal_r+0x1cb0>
 2002800:	e0bfc804 	addi	r2,fp,-224
 2002804:	100d883a 	mov	r6,r2
 2002808:	e17fe717 	ldw	r5,-100(fp)
 200280c:	e13fe617 	ldw	r4,-104(fp)
 2002810:	200ae440 	call	200ae44 <__sprint_r>
 2002814:	1000df1e 	bne	r2,zero,2002b94 <___vfprintf_internal_r+0x2028>
 2002818:	e47fcb04 	addi	r17,fp,-212
 200281c:	843ffc04 	addi	r16,r16,-16
 2002820:	80800448 	cmpgei	r2,r16,17
 2002824:	103fe71e 	bne	r2,zero,20027c4 <___vfprintf_internal_r+0x1c58>
 2002828:	00808074 	movhi	r2,513
 200282c:	108b9184 	addi	r2,r2,11846
 2002830:	88800015 	stw	r2,0(r17)
 2002834:	8005883a 	mov	r2,r16
 2002838:	88800115 	stw	r2,4(r17)
 200283c:	e0bfca17 	ldw	r2,-216(fp)
 2002840:	8007883a 	mov	r3,r16
 2002844:	10c5883a 	add	r2,r2,r3
 2002848:	e0bfca15 	stw	r2,-216(fp)
 200284c:	8c400204 	addi	r17,r17,8
 2002850:	e0bfc917 	ldw	r2,-220(fp)
 2002854:	10800044 	addi	r2,r2,1
 2002858:	e0bfc915 	stw	r2,-220(fp)
 200285c:	e0bfc917 	ldw	r2,-220(fp)
 2002860:	10800210 	cmplti	r2,r2,8
 2002864:	10001d1e 	bne	r2,zero,20028dc <___vfprintf_internal_r+0x1d70>
 2002868:	e0bfc804 	addi	r2,fp,-224
 200286c:	100d883a 	mov	r6,r2
 2002870:	e17fe717 	ldw	r5,-100(fp)
 2002874:	e13fe617 	ldw	r4,-104(fp)
 2002878:	200ae440 	call	200ae44 <__sprint_r>
 200287c:	1000c71e 	bne	r2,zero,2002b9c <___vfprintf_internal_r+0x2030>
 2002880:	e47fcb04 	addi	r17,fp,-212
			} else {	/* 'a', 'A', 'e', or 'E' */
				if (ndig > 1 || flags & ALT) {
					PRINT (cp, 1);
					cp++;
					PRINT (decimal_point, decp_len);
					if (_fpvalue) {
 2002884:	00001506 	br	20028dc <___vfprintf_internal_r+0x1d70>
						PRINT (cp, ndig - 1);
					} else	/* 0.[0..] */
						/* __dtoa irregularity */
						PAD (ndig - 1, zeroes);
				} else	/* XeYYY */
					PRINT (cp, 1);
 2002888:	8c800015 	stw	r18,0(r17)
 200288c:	00800044 	movi	r2,1
 2002890:	88800115 	stw	r2,4(r17)
 2002894:	e0bfca17 	ldw	r2,-216(fp)
 2002898:	10800044 	addi	r2,r2,1
 200289c:	e0bfca15 	stw	r2,-216(fp)
 20028a0:	8c400204 	addi	r17,r17,8
 20028a4:	e0bfc917 	ldw	r2,-220(fp)
 20028a8:	10800044 	addi	r2,r2,1
 20028ac:	e0bfc915 	stw	r2,-220(fp)
 20028b0:	e0bfc917 	ldw	r2,-220(fp)
 20028b4:	10800210 	cmplti	r2,r2,8
 20028b8:	1000091e 	bne	r2,zero,20028e0 <___vfprintf_internal_r+0x1d74>
 20028bc:	e0bfc804 	addi	r2,fp,-224
 20028c0:	100d883a 	mov	r6,r2
 20028c4:	e17fe717 	ldw	r5,-100(fp)
 20028c8:	e13fe617 	ldw	r4,-104(fp)
 20028cc:	200ae440 	call	200ae44 <__sprint_r>
 20028d0:	1000b41e 	bne	r2,zero,2002ba4 <___vfprintf_internal_r+0x2038>
 20028d4:	e47fcb04 	addi	r17,fp,-212
 20028d8:	00000106 	br	20028e0 <___vfprintf_internal_r+0x1d74>
			} else {	/* 'a', 'A', 'e', or 'E' */
				if (ndig > 1 || flags & ALT) {
					PRINT (cp, 1);
					cp++;
					PRINT (decimal_point, decp_len);
					if (_fpvalue) {
 20028dc:	0001883a 	nop
					} else	/* 0.[0..] */
						/* __dtoa irregularity */
						PAD (ndig - 1, zeroes);
				} else	/* XeYYY */
					PRINT (cp, 1);
				PRINT (expstr, expsize);
 20028e0:	e0bfc504 	addi	r2,fp,-236
 20028e4:	88800015 	stw	r2,0(r17)
 20028e8:	e0bfaf17 	ldw	r2,-324(fp)
 20028ec:	88800115 	stw	r2,4(r17)
 20028f0:	e0ffca17 	ldw	r3,-216(fp)
 20028f4:	e0bfaf17 	ldw	r2,-324(fp)
 20028f8:	1885883a 	add	r2,r3,r2
 20028fc:	e0bfca15 	stw	r2,-216(fp)
 2002900:	8c400204 	addi	r17,r17,8
 2002904:	e0bfc917 	ldw	r2,-220(fp)
 2002908:	10800044 	addi	r2,r2,1
 200290c:	e0bfc915 	stw	r2,-220(fp)
 2002910:	e0bfc917 	ldw	r2,-220(fp)
 2002914:	10800210 	cmplti	r2,r2,8
 2002918:	1000071e 	bne	r2,zero,2002938 <___vfprintf_internal_r+0x1dcc>
 200291c:	e0bfc804 	addi	r2,fp,-224
 2002920:	100d883a 	mov	r6,r2
 2002924:	e17fe717 	ldw	r5,-100(fp)
 2002928:	e13fe617 	ldw	r4,-104(fp)
 200292c:	200ae440 	call	200ae44 <__sprint_r>
 2002930:	10009e1e 	bne	r2,zero,2002bac <___vfprintf_internal_r+0x2040>
 2002934:	e47fcb04 	addi	r17,fp,-212
		}
#else /* !FLOATING_POINT */
		PRINT (cp, size);
#endif
		/* left-adjusting padding (always blank) */
		if (flags & LADJUST)
 2002938:	9880010c 	andi	r2,r19,4
 200293c:	10003526 	beq	r2,zero,2002a14 <___vfprintf_internal_r+0x1ea8>
			PAD (width - realsz, blanks);
 2002940:	e0ffad17 	ldw	r3,-332(fp)
 2002944:	e0bfb517 	ldw	r2,-300(fp)
 2002948:	18a1c83a 	sub	r16,r3,r2
 200294c:	0400310e 	bge	zero,r16,2002a14 <___vfprintf_internal_r+0x1ea8>
 2002950:	00001706 	br	20029b0 <___vfprintf_internal_r+0x1e44>
 2002954:	00808074 	movhi	r2,513
 2002958:	108b8d84 	addi	r2,r2,11830
 200295c:	88800015 	stw	r2,0(r17)
 2002960:	00800404 	movi	r2,16
 2002964:	88800115 	stw	r2,4(r17)
 2002968:	e0bfca17 	ldw	r2,-216(fp)
 200296c:	10800404 	addi	r2,r2,16
 2002970:	e0bfca15 	stw	r2,-216(fp)
 2002974:	8c400204 	addi	r17,r17,8
 2002978:	e0bfc917 	ldw	r2,-220(fp)
 200297c:	10800044 	addi	r2,r2,1
 2002980:	e0bfc915 	stw	r2,-220(fp)
 2002984:	e0bfc917 	ldw	r2,-220(fp)
 2002988:	10800210 	cmplti	r2,r2,8
 200298c:	1000071e 	bne	r2,zero,20029ac <___vfprintf_internal_r+0x1e40>
 2002990:	e0bfc804 	addi	r2,fp,-224
 2002994:	100d883a 	mov	r6,r2
 2002998:	e17fe717 	ldw	r5,-100(fp)
 200299c:	e13fe617 	ldw	r4,-104(fp)
 20029a0:	200ae440 	call	200ae44 <__sprint_r>
 20029a4:	1000831e 	bne	r2,zero,2002bb4 <___vfprintf_internal_r+0x2048>
 20029a8:	e47fcb04 	addi	r17,fp,-212
 20029ac:	843ffc04 	addi	r16,r16,-16
 20029b0:	80800448 	cmpgei	r2,r16,17
 20029b4:	103fe71e 	bne	r2,zero,2002954 <___vfprintf_internal_r+0x1de8>
 20029b8:	00808074 	movhi	r2,513
 20029bc:	108b8d84 	addi	r2,r2,11830
 20029c0:	88800015 	stw	r2,0(r17)
 20029c4:	8005883a 	mov	r2,r16
 20029c8:	88800115 	stw	r2,4(r17)
 20029cc:	e0bfca17 	ldw	r2,-216(fp)
 20029d0:	8007883a 	mov	r3,r16
 20029d4:	10c5883a 	add	r2,r2,r3
 20029d8:	e0bfca15 	stw	r2,-216(fp)
 20029dc:	8c400204 	addi	r17,r17,8
 20029e0:	e0bfc917 	ldw	r2,-220(fp)
 20029e4:	10800044 	addi	r2,r2,1
 20029e8:	e0bfc915 	stw	r2,-220(fp)
 20029ec:	e0bfc917 	ldw	r2,-220(fp)
 20029f0:	10800210 	cmplti	r2,r2,8
 20029f4:	1000071e 	bne	r2,zero,2002a14 <___vfprintf_internal_r+0x1ea8>
 20029f8:	e0bfc804 	addi	r2,fp,-224
 20029fc:	100d883a 	mov	r6,r2
 2002a00:	e17fe717 	ldw	r5,-100(fp)
 2002a04:	e13fe617 	ldw	r4,-104(fp)
 2002a08:	200ae440 	call	200ae44 <__sprint_r>
 2002a0c:	10006b1e 	bne	r2,zero,2002bbc <___vfprintf_internal_r+0x2050>
 2002a10:	e47fcb04 	addi	r17,fp,-212

		/* finally, adjust ret */
		ret += width > realsz ? width : realsz;
 2002a14:	e0ffad17 	ldw	r3,-332(fp)
 2002a18:	e0bfb517 	ldw	r2,-300(fp)
 2002a1c:	10c0010e 	bge	r2,r3,2002a24 <___vfprintf_internal_r+0x1eb8>
 2002a20:	1805883a 	mov	r2,r3
 2002a24:	e0ffac17 	ldw	r3,-336(fp)
 2002a28:	1885883a 	add	r2,r3,r2
 2002a2c:	e0bfac15 	stw	r2,-336(fp)

		FLUSH ();	/* copy out the I/O vectors */
 2002a30:	e0bfca17 	ldw	r2,-216(fp)
 2002a34:	10000626 	beq	r2,zero,2002a50 <___vfprintf_internal_r+0x1ee4>
 2002a38:	e0bfc804 	addi	r2,fp,-224
 2002a3c:	100d883a 	mov	r6,r2
 2002a40:	e17fe717 	ldw	r5,-100(fp)
 2002a44:	e13fe617 	ldw	r4,-104(fp)
 2002a48:	200ae440 	call	200ae44 <__sprint_r>
 2002a4c:	10005d1e 	bne	r2,zero,2002bc4 <___vfprintf_internal_r+0x2058>
 2002a50:	e03fc915 	stw	zero,-220(fp)
 2002a54:	e47fcb04 	addi	r17,fp,-212

                if (malloc_buf != NULL) {
 2002a58:	e0bfb817 	ldw	r2,-288(fp)
 2002a5c:	1038a026 	beq	r2,zero,2000ce0 <___vfprintf_internal_r+0x174>
			_free_r (data, malloc_buf);
 2002a60:	e17fb817 	ldw	r5,-288(fp)
 2002a64:	e13fe617 	ldw	r4,-104(fp)
 2002a68:	20059f80 	call	20059f8 <_free_r>
			malloc_buf = NULL;
 2002a6c:	e03fb815 	stw	zero,-288(fp)
		}
	}
 2002a70:	00389b06 	br	2000ce0 <___vfprintf_internal_r+0x174>
#ifdef _MB_CAPABLE
		if (n <= 0)
                    goto done;
#else
                if (*fmt == '\0')
                    goto done;
 2002a74:	0001883a 	nop
 2002a78:	00000106 	br	2002a80 <___vfprintf_internal_r+0x1f14>
			size = buf + BUF - cp;
		skipsize:
			break;
		default:	/* "%?" prints ?, unless ? is NUL */
			if (ch == '\0')
				goto done;
 2002a7c:	0001883a 	nop
			_free_r (data, malloc_buf);
			malloc_buf = NULL;
		}
	}
done:
	FLUSH ();
 2002a80:	e0bfca17 	ldw	r2,-216(fp)
 2002a84:	10000626 	beq	r2,zero,2002aa0 <___vfprintf_internal_r+0x1f34>
 2002a88:	e0bfc804 	addi	r2,fp,-224
 2002a8c:	100d883a 	mov	r6,r2
 2002a90:	e17fe717 	ldw	r5,-100(fp)
 2002a94:	e13fe617 	ldw	r4,-104(fp)
 2002a98:	200ae440 	call	200ae44 <__sprint_r>
 2002a9c:	10004b1e 	bne	r2,zero,2002bcc <___vfprintf_internal_r+0x2060>
 2002aa0:	e03fc915 	stw	zero,-220(fp)
 2002aa4:	e47fcb04 	addi	r17,fp,-212
 2002aa8:	00004906 	br	2002bd0 <___vfprintf_internal_r+0x2064>
#else
                while (*fmt != '\0' && *fmt != '%')
                    fmt += 1;
#endif
		if ((m = fmt - cp) != 0) {
			PRINT (cp, m);
 2002aac:	0001883a 	nop
 2002ab0:	00004706 	br	2002bd0 <___vfprintf_internal_r+0x2064>
		if (flags & HEXPREFIX)
			realsz+= 2;

		/* right-adjusting blank padding */
		if ((flags & (LADJUST|ZEROPAD)) == 0)
			PAD (width - realsz, blanks);
 2002ab4:	0001883a 	nop
 2002ab8:	00004506 	br	2002bd0 <___vfprintf_internal_r+0x2064>
 2002abc:	0001883a 	nop
 2002ac0:	00004306 	br	2002bd0 <___vfprintf_internal_r+0x2064>

		/* prefix */
		if (sign)
			PRINT (&sign, 1);
 2002ac4:	0001883a 	nop
 2002ac8:	00004106 	br	2002bd0 <___vfprintf_internal_r+0x2064>
		if (flags & HEXPREFIX)
			PRINT (ox, 2);
 2002acc:	0001883a 	nop
 2002ad0:	00003f06 	br	2002bd0 <___vfprintf_internal_r+0x2064>

		/* right-adjusting zero padding */
		if ((flags & (LADJUST|ZEROPAD)) == ZEROPAD)
			PAD (width - realsz, zeroes);
 2002ad4:	0001883a 	nop
 2002ad8:	00003d06 	br	2002bd0 <___vfprintf_internal_r+0x2064>
 2002adc:	0001883a 	nop
 2002ae0:	00003b06 	br	2002bd0 <___vfprintf_internal_r+0x2064>

		/* leading zeroes from decimal precision */
		PAD (dprec - size, zeroes);
 2002ae4:	0001883a 	nop
 2002ae8:	00003906 	br	2002bd0 <___vfprintf_internal_r+0x2064>
 2002aec:	0001883a 	nop
 2002af0:	00003706 	br	2002bd0 <___vfprintf_internal_r+0x2064>

		/* the string or number proper */
#ifdef FLOATING_POINT
		if ((flags & FPT) == 0) {
			PRINT (cp, size);
 2002af4:	0001883a 	nop
 2002af8:	00003506 	br	2002bd0 <___vfprintf_internal_r+0x2064>
		} else {	/* glue together f_p fragments */
			if (ch >= 'f') {	/* 'f' or 'g' */
				if (_fpvalue == 0) {
					/* kludge for __dtoa irregularity */
					PRINT ("0", 1);
 2002afc:	0001883a 	nop
 2002b00:	00003306 	br	2002bd0 <___vfprintf_internal_r+0x2064>
					if (expt < ndig || flags & ALT) {
						PRINT (decimal_point, decp_len);
 2002b04:	0001883a 	nop
 2002b08:	00003106 	br	2002bd0 <___vfprintf_internal_r+0x2064>
						PAD (ndig - 1, zeroes);
 2002b0c:	0001883a 	nop
 2002b10:	00002f06 	br	2002bd0 <___vfprintf_internal_r+0x2064>
 2002b14:	0001883a 	nop
 2002b18:	00002d06 	br	2002bd0 <___vfprintf_internal_r+0x2064>
					}
				} else if (expt <= 0) {
					PRINT ("0", 1);
 2002b1c:	0001883a 	nop
 2002b20:	00002b06 	br	2002bd0 <___vfprintf_internal_r+0x2064>
					if (expt || ndig || flags & ALT) {
						PRINT (decimal_point, decp_len);
 2002b24:	0001883a 	nop
 2002b28:	00002906 	br	2002bd0 <___vfprintf_internal_r+0x2064>
						PAD (-expt, zeroes);
 2002b2c:	0001883a 	nop
 2002b30:	00002706 	br	2002bd0 <___vfprintf_internal_r+0x2064>
 2002b34:	0001883a 	nop
 2002b38:	00002506 	br	2002bd0 <___vfprintf_internal_r+0x2064>
						PRINT (cp, ndig);
 2002b3c:	0001883a 	nop
 2002b40:	00002306 	br	2002bd0 <___vfprintf_internal_r+0x2064>
					}
				} else {
					char *convbuf = cp;
					PRINTANDPAD(cp, convbuf + ndig,
 2002b44:	0001883a 	nop
 2002b48:	00002106 	br	2002bd0 <___vfprintf_internal_r+0x2064>
 2002b4c:	0001883a 	nop
 2002b50:	00001f06 	br	2002bd0 <___vfprintf_internal_r+0x2064>
 2002b54:	0001883a 	nop
 2002b58:	00001d06 	br	2002bd0 <___vfprintf_internal_r+0x2064>
					    if (cp > convbuf + ndig)
						cp = convbuf + ndig;
					}
#endif
					if (expt < ndig || flags & ALT)
					    PRINT (decimal_point, decp_len);
 2002b5c:	0001883a 	nop
 2002b60:	00001b06 	br	2002bd0 <___vfprintf_internal_r+0x2064>
					PRINTANDPAD (cp, convbuf + ndig,
 2002b64:	0001883a 	nop
 2002b68:	00001906 	br	2002bd0 <___vfprintf_internal_r+0x2064>
 2002b6c:	0001883a 	nop
 2002b70:	00001706 	br	2002bd0 <___vfprintf_internal_r+0x2064>
 2002b74:	0001883a 	nop
 2002b78:	00001506 	br	2002bd0 <___vfprintf_internal_r+0x2064>
						     ndig - expt, zeroes);
				}
			} else {	/* 'a', 'A', 'e', or 'E' */
				if (ndig > 1 || flags & ALT) {
					PRINT (cp, 1);
 2002b7c:	0001883a 	nop
 2002b80:	00001306 	br	2002bd0 <___vfprintf_internal_r+0x2064>
					cp++;
					PRINT (decimal_point, decp_len);
 2002b84:	0001883a 	nop
 2002b88:	00001106 	br	2002bd0 <___vfprintf_internal_r+0x2064>
					if (_fpvalue) {
						PRINT (cp, ndig - 1);
 2002b8c:	0001883a 	nop
 2002b90:	00000f06 	br	2002bd0 <___vfprintf_internal_r+0x2064>
					} else	/* 0.[0..] */
						/* __dtoa irregularity */
						PAD (ndig - 1, zeroes);
 2002b94:	0001883a 	nop
 2002b98:	00000d06 	br	2002bd0 <___vfprintf_internal_r+0x2064>
 2002b9c:	0001883a 	nop
 2002ba0:	00000b06 	br	2002bd0 <___vfprintf_internal_r+0x2064>
				} else	/* XeYYY */
					PRINT (cp, 1);
 2002ba4:	0001883a 	nop
 2002ba8:	00000906 	br	2002bd0 <___vfprintf_internal_r+0x2064>
				PRINT (expstr, expsize);
 2002bac:	0001883a 	nop
 2002bb0:	00000706 	br	2002bd0 <___vfprintf_internal_r+0x2064>
#else /* !FLOATING_POINT */
		PRINT (cp, size);
#endif
		/* left-adjusting padding (always blank) */
		if (flags & LADJUST)
			PAD (width - realsz, blanks);
 2002bb4:	0001883a 	nop
 2002bb8:	00000506 	br	2002bd0 <___vfprintf_internal_r+0x2064>
 2002bbc:	0001883a 	nop
 2002bc0:	00000306 	br	2002bd0 <___vfprintf_internal_r+0x2064>

		/* finally, adjust ret */
		ret += width > realsz ? width : realsz;

		FLUSH ();	/* copy out the I/O vectors */
 2002bc4:	0001883a 	nop
 2002bc8:	00000106 	br	2002bd0 <___vfprintf_internal_r+0x2064>
			_free_r (data, malloc_buf);
			malloc_buf = NULL;
		}
	}
done:
	FLUSH ();
 2002bcc:	0001883a 	nop
error:
	if (malloc_buf != NULL)
 2002bd0:	e0bfb817 	ldw	r2,-288(fp)
 2002bd4:	10000326 	beq	r2,zero,2002be4 <___vfprintf_internal_r+0x2078>
		_free_r (data, malloc_buf);
 2002bd8:	e17fb817 	ldw	r5,-288(fp)
 2002bdc:	e13fe617 	ldw	r4,-104(fp)
 2002be0:	20059f80 	call	20059f8 <_free_r>
#ifndef STRING_ONLY
	_newlib_flockfile_end (fp);
#endif
	return (__sferror (fp) ? EOF : ret);
 2002be4:	e0bfe717 	ldw	r2,-100(fp)
 2002be8:	1080030b 	ldhu	r2,12(r2)
 2002bec:	10bfffcc 	andi	r2,r2,65535
 2002bf0:	1080100c 	andi	r2,r2,64
 2002bf4:	1000021e 	bne	r2,zero,2002c00 <___vfprintf_internal_r+0x2094>
 2002bf8:	e0bfac17 	ldw	r2,-336(fp)
 2002bfc:	00000206 	br	2002c08 <___vfprintf_internal_r+0x209c>
 2002c00:	00bfffc4 	movi	r2,-1
 2002c04:	0001883a 	nop
	/* NOTREACHED */
}
 2002c08:	e6fff804 	addi	sp,fp,-32
 2002c0c:	dfc00917 	ldw	ra,36(sp)
 2002c10:	df000817 	ldw	fp,32(sp)
 2002c14:	ddc00717 	ldw	r23,28(sp)
 2002c18:	dd800617 	ldw	r22,24(sp)
 2002c1c:	dd400517 	ldw	r21,20(sp)
 2002c20:	dd000417 	ldw	r20,16(sp)
 2002c24:	dcc00317 	ldw	r19,12(sp)
 2002c28:	dc800217 	ldw	r18,8(sp)
 2002c2c:	dc400117 	ldw	r17,4(sp)
 2002c30:	dc000017 	ldw	r16,0(sp)
 2002c34:	dec00a04 	addi	sp,sp,40
 2002c38:	f800283a 	ret

02002c3c <cvt>:
   [aAeEfFgG]; if it is [aA], then the return string lives in BUF,
   otherwise the return value shares the mprec reentrant storage.  */
static char *
cvt(struct _reent *data, _PRINTF_FLOAT_TYPE value, int ndigits, int flags,
    char *sign, int *decpt, int ch, int *length, char *buf)
{
 2002c3c:	deffef04 	addi	sp,sp,-68
 2002c40:	dfc01015 	stw	ra,64(sp)
 2002c44:	df000f15 	stw	fp,60(sp)
 2002c48:	df000f04 	addi	fp,sp,60
 2002c4c:	e13ffc15 	stw	r4,-16(fp)
 2002c50:	e17ffd15 	stw	r5,-12(fp)
 2002c54:	e1bffe15 	stw	r6,-8(fp)
 2002c58:	e1ffff15 	stw	r7,-4(fp)
	int mode, dsgn;
	char *digits, *bp, *rve;
# ifdef _NO_LONGDBL
	union double_union tmp;

	tmp.d = value;
 2002c5c:	e0bffd17 	ldw	r2,-12(fp)
 2002c60:	e0bffa15 	stw	r2,-24(fp)
 2002c64:	e0bffe17 	ldw	r2,-8(fp)
 2002c68:	e0bffb15 	stw	r2,-20(fp)
	if (word0 (tmp) & Sign_bit) { /* this will check for < 0 and -0.0 */
 2002c6c:	e0bffb17 	ldw	r2,-20(fp)
 2002c70:	1000090e 	bge	r2,zero,2002c98 <cvt+0x5c>
		value = -value;
 2002c74:	e0bffd17 	ldw	r2,-12(fp)
 2002c78:	e0bffd15 	stw	r2,-12(fp)
 2002c7c:	e0bffe17 	ldw	r2,-8(fp)
 2002c80:	10a0003c 	xorhi	r2,r2,32768
 2002c84:	e0bffe15 	stw	r2,-8(fp)
		*sign = '-';
 2002c88:	e0800317 	ldw	r2,12(fp)
 2002c8c:	00c00b44 	movi	r3,45
 2002c90:	10c00005 	stb	r3,0(r2)
 2002c94:	00000206 	br	2002ca0 <cvt+0x64>
	} else
		*sign = '\000';
 2002c98:	e0800317 	ldw	r2,12(fp)
 2002c9c:	10000005 	stb	zero,0(r2)
		}
		*length = bp - buf;
		return buf;
	}
# endif /* _WANT_IO_C99_FORMATS */
	if (ch == 'f' || ch == 'F') {
 2002ca0:	e0800517 	ldw	r2,20(fp)
 2002ca4:	108019a0 	cmpeqi	r2,r2,102
 2002ca8:	1000031e 	bne	r2,zero,2002cb8 <cvt+0x7c>
 2002cac:	e0800517 	ldw	r2,20(fp)
 2002cb0:	10801198 	cmpnei	r2,r2,70
 2002cb4:	1000031e 	bne	r2,zero,2002cc4 <cvt+0x88>
		mode = 3;		/* ndigits after the decimal point */
 2002cb8:	008000c4 	movi	r2,3
 2002cbc:	e0bff515 	stw	r2,-44(fp)
 2002cc0:	00000b06 	br	2002cf0 <cvt+0xb4>
	} else {
		/* To obtain ndigits after the decimal point for the 'e'
		 * and 'E' formats, round to ndigits + 1 significant
		 * figures.
		 */
		if (ch == 'e' || ch == 'E') {
 2002cc4:	e0800517 	ldw	r2,20(fp)
 2002cc8:	10801960 	cmpeqi	r2,r2,101
 2002ccc:	1000031e 	bne	r2,zero,2002cdc <cvt+0xa0>
 2002cd0:	e0800517 	ldw	r2,20(fp)
 2002cd4:	10801158 	cmpnei	r2,r2,69
 2002cd8:	1000031e 	bne	r2,zero,2002ce8 <cvt+0xac>
			ndigits++;
 2002cdc:	e0bfff17 	ldw	r2,-4(fp)
 2002ce0:	10800044 	addi	r2,r2,1
 2002ce4:	e0bfff15 	stw	r2,-4(fp)
		}
		mode = 2;		/* ndigits significant digits */
 2002ce8:	00800084 	movi	r2,2
 2002cec:	e0bff515 	stw	r2,-44(fp)
	}

	digits = _DTOA_R (data, value, mode, ndigits, decpt, &dsgn, &rve);
 2002cf0:	e0bff904 	addi	r2,fp,-28
 2002cf4:	d8800315 	stw	r2,12(sp)
 2002cf8:	e0bff804 	addi	r2,fp,-32
 2002cfc:	d8800215 	stw	r2,8(sp)
 2002d00:	e0800417 	ldw	r2,16(fp)
 2002d04:	d8800115 	stw	r2,4(sp)
 2002d08:	e0bfff17 	ldw	r2,-4(fp)
 2002d0c:	d8800015 	stw	r2,0(sp)
 2002d10:	e1fff517 	ldw	r7,-44(fp)
 2002d14:	e17ffd17 	ldw	r5,-12(fp)
 2002d18:	e1bffe17 	ldw	r6,-8(fp)
 2002d1c:	e13ffc17 	ldw	r4,-16(fp)
 2002d20:	20034dc0 	call	20034dc <_dtoa_r>
 2002d24:	e0bff715 	stw	r2,-36(fp)

	if ((ch != 'g' && ch != 'G') || flags & ALT) {	/* Print trailing zeros */
 2002d28:	e0800517 	ldw	r2,20(fp)
 2002d2c:	108019e0 	cmpeqi	r2,r2,103
 2002d30:	1000031e 	bne	r2,zero,2002d40 <cvt+0x104>
 2002d34:	e0800517 	ldw	r2,20(fp)
 2002d38:	108011d8 	cmpnei	r2,r2,71
 2002d3c:	1000031e 	bne	r2,zero,2002d4c <cvt+0x110>
 2002d40:	e0800217 	ldw	r2,8(fp)
 2002d44:	1080004c 	andi	r2,r2,1
 2002d48:	10003326 	beq	r2,zero,2002e18 <cvt+0x1dc>
		bp = digits + ndigits;
 2002d4c:	e0bfff17 	ldw	r2,-4(fp)
 2002d50:	e0fff717 	ldw	r3,-36(fp)
 2002d54:	1885883a 	add	r2,r3,r2
 2002d58:	e0bff615 	stw	r2,-40(fp)
		if (ch == 'f' || ch == 'F') {
 2002d5c:	e0800517 	ldw	r2,20(fp)
 2002d60:	108019a0 	cmpeqi	r2,r2,102
 2002d64:	1000031e 	bne	r2,zero,2002d74 <cvt+0x138>
 2002d68:	e0800517 	ldw	r2,20(fp)
 2002d6c:	10801198 	cmpnei	r2,r2,70
 2002d70:	1000181e 	bne	r2,zero,2002dd4 <cvt+0x198>
			if (*digits == '0' && value)
 2002d74:	e0bff717 	ldw	r2,-36(fp)
 2002d78:	10800003 	ldbu	r2,0(r2)
 2002d7c:	10803fcc 	andi	r2,r2,255
 2002d80:	1080201c 	xori	r2,r2,128
 2002d84:	10bfe004 	addi	r2,r2,-128
 2002d88:	10800c18 	cmpnei	r2,r2,48
 2002d8c:	10000b1e 	bne	r2,zero,2002dbc <cvt+0x180>
 2002d90:	000d883a 	mov	r6,zero
 2002d94:	000f883a 	mov	r7,zero
 2002d98:	e13ffd17 	ldw	r4,-12(fp)
 2002d9c:	e17ffe17 	ldw	r5,-8(fp)
 2002da0:	200edd00 	call	200edd0 <__eqdf2>
 2002da4:	10000526 	beq	r2,zero,2002dbc <cvt+0x180>
				*decpt = -ndigits + 1;
 2002da8:	00c00044 	movi	r3,1
 2002dac:	e0bfff17 	ldw	r2,-4(fp)
 2002db0:	1887c83a 	sub	r3,r3,r2
 2002db4:	e0800417 	ldw	r2,16(fp)
 2002db8:	10c00015 	stw	r3,0(r2)
			bp += *decpt;
 2002dbc:	e0800417 	ldw	r2,16(fp)
 2002dc0:	10800017 	ldw	r2,0(r2)
 2002dc4:	1007883a 	mov	r3,r2
 2002dc8:	e0bff617 	ldw	r2,-40(fp)
 2002dcc:	10c5883a 	add	r2,r2,r3
 2002dd0:	e0bff615 	stw	r2,-40(fp)
		}
		if (value == 0)	/* kludge for __dtoa irregularity */
 2002dd4:	000d883a 	mov	r6,zero
 2002dd8:	000f883a 	mov	r7,zero
 2002ddc:	e13ffd17 	ldw	r4,-12(fp)
 2002de0:	e17ffe17 	ldw	r5,-8(fp)
 2002de4:	200edd00 	call	200edd0 <__eqdf2>
 2002de8:	1000081e 	bne	r2,zero,2002e0c <cvt+0x1d0>
			rve = bp;
 2002dec:	e0bff617 	ldw	r2,-40(fp)
 2002df0:	e0bff915 	stw	r2,-28(fp)
		while (rve < bp)
 2002df4:	00000506 	br	2002e0c <cvt+0x1d0>
			*rve++ = '0';
 2002df8:	e0bff917 	ldw	r2,-28(fp)
 2002dfc:	10c00044 	addi	r3,r2,1
 2002e00:	e0fff915 	stw	r3,-28(fp)
 2002e04:	00c00c04 	movi	r3,48
 2002e08:	10c00005 	stb	r3,0(r2)
				*decpt = -ndigits + 1;
			bp += *decpt;
		}
		if (value == 0)	/* kludge for __dtoa irregularity */
			rve = bp;
		while (rve < bp)
 2002e0c:	e0fff917 	ldw	r3,-28(fp)
 2002e10:	e0bff617 	ldw	r2,-40(fp)
 2002e14:	18bff836 	bltu	r3,r2,2002df8 <cvt+0x1bc>
			*rve++ = '0';
	}
	*length = rve - digits;
 2002e18:	e0bff917 	ldw	r2,-28(fp)
 2002e1c:	1007883a 	mov	r3,r2
 2002e20:	e0bff717 	ldw	r2,-36(fp)
 2002e24:	1887c83a 	sub	r3,r3,r2
 2002e28:	e0800617 	ldw	r2,24(fp)
 2002e2c:	10c00015 	stw	r3,0(r2)
	return (digits);
 2002e30:	e0bff717 	ldw	r2,-36(fp)
}
 2002e34:	e037883a 	mov	sp,fp
 2002e38:	dfc00117 	ldw	ra,4(sp)
 2002e3c:	df000017 	ldw	fp,0(sp)
 2002e40:	dec00204 	addi	sp,sp,8
 2002e44:	f800283a 	ret

02002e48 <exponent>:

static int
exponent(char *p0, int exp, int fmtch)
{
 2002e48:	defff704 	addi	sp,sp,-36
 2002e4c:	dfc00815 	stw	ra,32(sp)
 2002e50:	df000715 	stw	fp,28(sp)
 2002e54:	dc400615 	stw	r17,24(sp)
 2002e58:	dc000515 	stw	r16,20(sp)
 2002e5c:	df000704 	addi	fp,sp,28
 2002e60:	e13ffb15 	stw	r4,-20(fp)
 2002e64:	e17ffc15 	stw	r5,-16(fp)
 2002e68:	e1bffd15 	stw	r6,-12(fp)
	int isa = fmtch == 'a' || fmtch == 'A';
# else
#  define isa 0
# endif

	p = p0;
 2002e6c:	e47ffb17 	ldw	r17,-20(fp)
	*p++ = isa ? 'p' - 'a' + fmtch : fmtch;
 2002e70:	8805883a 	mov	r2,r17
 2002e74:	14400044 	addi	r17,r2,1
 2002e78:	e0fffd17 	ldw	r3,-12(fp)
 2002e7c:	10c00005 	stb	r3,0(r2)
	if (exp < 0) {
 2002e80:	e0bffc17 	ldw	r2,-16(fp)
 2002e84:	1000080e 	bge	r2,zero,2002ea8 <exponent+0x60>
		exp = -exp;
 2002e88:	e0bffc17 	ldw	r2,-16(fp)
 2002e8c:	0085c83a 	sub	r2,zero,r2
 2002e90:	e0bffc15 	stw	r2,-16(fp)
		*p++ = '-';
 2002e94:	8805883a 	mov	r2,r17
 2002e98:	14400044 	addi	r17,r2,1
 2002e9c:	00c00b44 	movi	r3,45
 2002ea0:	10c00005 	stb	r3,0(r2)
 2002ea4:	00000406 	br	2002eb8 <exponent+0x70>
	}
	else
		*p++ = '+';
 2002ea8:	8805883a 	mov	r2,r17
 2002eac:	14400044 	addi	r17,r2,1
 2002eb0:	00c00ac4 	movi	r3,43
 2002eb4:	10c00005 	stb	r3,0(r2)
	t = expbuf + MAXEXPLEN;
 2002eb8:	e43ffac4 	addi	r16,fp,-21
	if (exp > 9) {
 2002ebc:	e0bffc17 	ldw	r2,-16(fp)
 2002ec0:	10800290 	cmplti	r2,r2,10
 2002ec4:	10001d1e 	bne	r2,zero,2002f3c <exponent+0xf4>
		do {
			*--t = to_char (exp % 10);
 2002ec8:	843fffc4 	addi	r16,r16,-1
 2002ecc:	e0bffc17 	ldw	r2,-16(fp)
 2002ed0:	01400284 	movi	r5,10
 2002ed4:	1009883a 	mov	r4,r2
 2002ed8:	200db0c0 	call	200db0c <__modsi3>
 2002edc:	10800c04 	addi	r2,r2,48
 2002ee0:	80800005 	stb	r2,0(r16)
		} while ((exp /= 10) > 9);
 2002ee4:	e0bffc17 	ldw	r2,-16(fp)
 2002ee8:	01400284 	movi	r5,10
 2002eec:	1009883a 	mov	r4,r2
 2002ef0:	200da880 	call	200da88 <__divsi3>
 2002ef4:	e0bffc15 	stw	r2,-16(fp)
 2002ef8:	e0bffc17 	ldw	r2,-16(fp)
 2002efc:	10800288 	cmpgei	r2,r2,10
 2002f00:	103ff11e 	bne	r2,zero,2002ec8 <exponent+0x80>
		*--t = to_char (exp);
 2002f04:	843fffc4 	addi	r16,r16,-1
 2002f08:	e0bffc17 	ldw	r2,-16(fp)
 2002f0c:	10800c04 	addi	r2,r2,48
 2002f10:	80800005 	stb	r2,0(r16)
		for (; t < expbuf + MAXEXPLEN; *p++ = *t++);
 2002f14:	00000606 	br	2002f30 <exponent+0xe8>
 2002f18:	8805883a 	mov	r2,r17
 2002f1c:	14400044 	addi	r17,r2,1
 2002f20:	8007883a 	mov	r3,r16
 2002f24:	1c000044 	addi	r16,r3,1
 2002f28:	18c00003 	ldbu	r3,0(r3)
 2002f2c:	10c00005 	stb	r3,0(r2)
 2002f30:	e0bffac4 	addi	r2,fp,-21
 2002f34:	80bff836 	bltu	r16,r2,2002f18 <exponent+0xd0>
 2002f38:	00000906 	br	2002f60 <exponent+0x118>
	}
	else {
		if (!isa)
			*p++ = '0';
 2002f3c:	8805883a 	mov	r2,r17
 2002f40:	14400044 	addi	r17,r2,1
 2002f44:	00c00c04 	movi	r3,48
 2002f48:	10c00005 	stb	r3,0(r2)
		*p++ = to_char (exp);
 2002f4c:	8805883a 	mov	r2,r17
 2002f50:	14400044 	addi	r17,r2,1
 2002f54:	e0fffc17 	ldw	r3,-16(fp)
 2002f58:	18c00c04 	addi	r3,r3,48
 2002f5c:	10c00005 	stb	r3,0(r2)
	}
	return (p - p0);
 2002f60:	8807883a 	mov	r3,r17
 2002f64:	e0bffb17 	ldw	r2,-20(fp)
 2002f68:	1885c83a 	sub	r2,r3,r2
}
 2002f6c:	e6fffe04 	addi	sp,fp,-8
 2002f70:	dfc00317 	ldw	ra,12(sp)
 2002f74:	df000217 	ldw	fp,8(sp)
 2002f78:	dc400117 	ldw	r17,4(sp)
 2002f7c:	dc000017 	ldw	r16,0(sp)
 2002f80:	dec00404 	addi	sp,sp,16
 2002f84:	f800283a 	ret

02002f88 <__swsetup_r>:

int
_DEFUN(__swsetup_r, (ptr, fp),
       struct _reent *ptr _AND
       register FILE * fp)
{
 2002f88:	defffb04 	addi	sp,sp,-20
 2002f8c:	dfc00415 	stw	ra,16(sp)
 2002f90:	df000315 	stw	fp,12(sp)
 2002f94:	dc000215 	stw	r16,8(sp)
 2002f98:	df000304 	addi	fp,sp,12
 2002f9c:	e13ffe15 	stw	r4,-8(fp)
 2002fa0:	2821883a 	mov	r16,r5
  /* Make sure stdio is set up.  */

  CHECK_INIT (_REENT, fp);
 2002fa4:	d0a00017 	ldw	r2,-32768(gp)
 2002fa8:	e0bffd15 	stw	r2,-12(fp)
 2002fac:	e0bffd17 	ldw	r2,-12(fp)
 2002fb0:	10000526 	beq	r2,zero,2002fc8 <__swsetup_r+0x40>
 2002fb4:	e0bffd17 	ldw	r2,-12(fp)
 2002fb8:	10800e17 	ldw	r2,56(r2)
 2002fbc:	1000021e 	bne	r2,zero,2002fc8 <__swsetup_r+0x40>
 2002fc0:	e13ffd17 	ldw	r4,-12(fp)
 2002fc4:	20057d80 	call	20057d8 <__sinit>

  /*
   * If we are not writing, we had better be reading and writing.
   */

  if ((fp->_flags & __SWR) == 0)
 2002fc8:	8080030b 	ldhu	r2,12(r16)
 2002fcc:	10bfffcc 	andi	r2,r2,65535
 2002fd0:	1080020c 	andi	r2,r2,8
 2002fd4:	1000241e 	bne	r2,zero,2003068 <__swsetup_r+0xe0>
    {
      if ((fp->_flags & __SRW) == 0)
 2002fd8:	8080030b 	ldhu	r2,12(r16)
 2002fdc:	10bfffcc 	andi	r2,r2,65535
 2002fe0:	1080040c 	andi	r2,r2,16
 2002fe4:	1000081e 	bne	r2,zero,2003008 <__swsetup_r+0x80>
        {
	  ptr->_errno = EBADF;
 2002fe8:	e0bffe17 	ldw	r2,-8(fp)
 2002fec:	00c00244 	movi	r3,9
 2002ff0:	10c00015 	stw	r3,0(r2)
	  fp->_flags |= __SERR;
 2002ff4:	8080030b 	ldhu	r2,12(r16)
 2002ff8:	10801014 	ori	r2,r2,64
 2002ffc:	8080030d 	sth	r2,12(r16)
	  return EOF;
 2003000:	00bfffc4 	movi	r2,-1
 2003004:	00004206 	br	2003110 <__swsetup_r+0x188>
        }
      if (fp->_flags & __SRD)
 2003008:	8080030b 	ldhu	r2,12(r16)
 200300c:	10bfffcc 	andi	r2,r2,65535
 2003010:	1080010c 	andi	r2,r2,4
 2003014:	10001126 	beq	r2,zero,200305c <__swsetup_r+0xd4>
	{
	  /* clobber any ungetc data */
	  if (HASUB (fp))
 2003018:	80800c17 	ldw	r2,48(r16)
 200301c:	10000826 	beq	r2,zero,2003040 <__swsetup_r+0xb8>
	    FREEUB (ptr, fp);
 2003020:	80c00c17 	ldw	r3,48(r16)
 2003024:	80801004 	addi	r2,r16,64
 2003028:	18800426 	beq	r3,r2,200303c <__swsetup_r+0xb4>
 200302c:	80800c17 	ldw	r2,48(r16)
 2003030:	100b883a 	mov	r5,r2
 2003034:	e13ffe17 	ldw	r4,-8(fp)
 2003038:	20059f80 	call	20059f8 <_free_r>
 200303c:	80000c15 	stw	zero,48(r16)
	  fp->_flags &= ~(__SRD | __SEOF);
 2003040:	80c0030b 	ldhu	r3,12(r16)
 2003044:	00bff6c4 	movi	r2,-37
 2003048:	1884703a 	and	r2,r3,r2
 200304c:	8080030d 	sth	r2,12(r16)
	  fp->_r = 0;
 2003050:	80000115 	stw	zero,4(r16)
	  fp->_p = fp->_bf._base;
 2003054:	80800417 	ldw	r2,16(r16)
 2003058:	80800015 	stw	r2,0(r16)
	}
      fp->_flags |= __SWR;
 200305c:	8080030b 	ldhu	r2,12(r16)
 2003060:	10800214 	ori	r2,r2,8
 2003064:	8080030d 	sth	r2,12(r16)
  /*
   * Make a buffer if necessary, then set _w.
   * A string I/O file should not explicitly allocate a buffer
   * unless asprintf is being used.
   */
  if (fp->_bf._base == NULL
 2003068:	80800417 	ldw	r2,16(r16)
 200306c:	10000b1e 	bne	r2,zero,200309c <__swsetup_r+0x114>
        && (!(fp->_flags & __SSTR) || (fp->_flags & __SMBF)))
 2003070:	8080030b 	ldhu	r2,12(r16)
 2003074:	10bfffcc 	andi	r2,r2,65535
 2003078:	1080800c 	andi	r2,r2,512
 200307c:	10000426 	beq	r2,zero,2003090 <__swsetup_r+0x108>
 2003080:	8080030b 	ldhu	r2,12(r16)
 2003084:	10bfffcc 	andi	r2,r2,65535
 2003088:	1080200c 	andi	r2,r2,128
 200308c:	10000326 	beq	r2,zero,200309c <__swsetup_r+0x114>
    __smakebuf_r (ptr, fp);
 2003090:	800b883a 	mov	r5,r16
 2003094:	e13ffe17 	ldw	r4,-8(fp)
 2003098:	2006a580 	call	2006a58 <__smakebuf_r>

  if (fp->_flags & __SLBF)
 200309c:	8080030b 	ldhu	r2,12(r16)
 20030a0:	10bfffcc 	andi	r2,r2,65535
 20030a4:	1080004c 	andi	r2,r2,1
 20030a8:	10000526 	beq	r2,zero,20030c0 <__swsetup_r+0x138>
      /*
       * It is line buffered, so make _lbfsize be -_bufsize
       * for the putc() macro.  We will change _lbfsize back
       * to 0 whenever we turn off __SWR.
       */
      fp->_w = 0;
 20030ac:	80000215 	stw	zero,8(r16)
      fp->_lbfsize = -fp->_bf._size;
 20030b0:	80800517 	ldw	r2,20(r16)
 20030b4:	0085c83a 	sub	r2,zero,r2
 20030b8:	80800615 	stw	r2,24(r16)
 20030bc:	00000806 	br	20030e0 <__swsetup_r+0x158>
    }
  else
    fp->_w = fp->_flags & __SNBF ? 0 : fp->_bf._size;
 20030c0:	8080030b 	ldhu	r2,12(r16)
 20030c4:	10bfffcc 	andi	r2,r2,65535
 20030c8:	1080008c 	andi	r2,r2,2
 20030cc:	1000021e 	bne	r2,zero,20030d8 <__swsetup_r+0x150>
 20030d0:	80800517 	ldw	r2,20(r16)
 20030d4:	00000106 	br	20030dc <__swsetup_r+0x154>
 20030d8:	0005883a 	mov	r2,zero
 20030dc:	80800215 	stw	r2,8(r16)

  if (!fp->_bf._base && (fp->_flags & __SMBF))
 20030e0:	80800417 	ldw	r2,16(r16)
 20030e4:	1000091e 	bne	r2,zero,200310c <__swsetup_r+0x184>
 20030e8:	8080030b 	ldhu	r2,12(r16)
 20030ec:	10bfffcc 	andi	r2,r2,65535
 20030f0:	1080200c 	andi	r2,r2,128
 20030f4:	10000526 	beq	r2,zero,200310c <__swsetup_r+0x184>
    {
      /* __smakebuf_r set errno, but not flag */
      fp->_flags |= __SERR;
 20030f8:	8080030b 	ldhu	r2,12(r16)
 20030fc:	10801014 	ori	r2,r2,64
 2003100:	8080030d 	sth	r2,12(r16)
      return EOF;
 2003104:	00bfffc4 	movi	r2,-1
 2003108:	00000106 	br	2003110 <__swsetup_r+0x188>
    }
  return 0;
 200310c:	0005883a 	mov	r2,zero
}
 2003110:	e6ffff04 	addi	sp,fp,-4
 2003114:	dfc00217 	ldw	ra,8(sp)
 2003118:	df000117 	ldw	fp,4(sp)
 200311c:	dc000017 	ldw	r16,0(sp)
 2003120:	dec00304 	addi	sp,sp,12
 2003124:	f800283a 	ret

02003128 <quorem>:

static int
_DEFUN (quorem,
	(b, S),
	_Bigint * b _AND _Bigint * S)
{
 2003128:	deffef04 	addi	sp,sp,-68
 200312c:	dfc01015 	stw	ra,64(sp)
 2003130:	df000f15 	stw	fp,60(sp)
 2003134:	df000f04 	addi	fp,sp,60
 2003138:	e13ffe15 	stw	r4,-8(fp)
 200313c:	e17fff15 	stw	r5,-4(fp)
#ifdef Pack_32
  __Long z;
  __ULong si, zs;
#endif

  n = S->_wds;
 2003140:	e0bfff17 	ldw	r2,-4(fp)
 2003144:	10800417 	ldw	r2,16(r2)
 2003148:	e0bff115 	stw	r2,-60(fp)
#ifdef DEBUG
  /*debug*/ if (b->_wds > n)
    /*debug*/ Bug ("oversize b in quorem");
#endif
  if (b->_wds < n)
 200314c:	e0bffe17 	ldw	r2,-8(fp)
 2003150:	10c00417 	ldw	r3,16(r2)
 2003154:	e0bff117 	ldw	r2,-60(fp)
 2003158:	1880020e 	bge	r3,r2,2003164 <quorem+0x3c>
    return 0;
 200315c:	0005883a 	mov	r2,zero
 2003160:	0000d906 	br	20034c8 <quorem+0x3a0>
  sx = S->_x;
 2003164:	e0bfff17 	ldw	r2,-4(fp)
 2003168:	10800504 	addi	r2,r2,20
 200316c:	e0bff715 	stw	r2,-36(fp)
  sxe = sx + --n;
 2003170:	e0bff117 	ldw	r2,-60(fp)
 2003174:	10bfffc4 	addi	r2,r2,-1
 2003178:	e0bff115 	stw	r2,-60(fp)
 200317c:	e0bff117 	ldw	r2,-60(fp)
 2003180:	1085883a 	add	r2,r2,r2
 2003184:	1085883a 	add	r2,r2,r2
 2003188:	1007883a 	mov	r3,r2
 200318c:	e0bff717 	ldw	r2,-36(fp)
 2003190:	10c5883a 	add	r2,r2,r3
 2003194:	e0bff815 	stw	r2,-32(fp)
  bx = b->_x;
 2003198:	e0bffe17 	ldw	r2,-8(fp)
 200319c:	10800504 	addi	r2,r2,20
 20031a0:	e0bff515 	stw	r2,-44(fp)
  bxe = bx + n;
 20031a4:	e0bff117 	ldw	r2,-60(fp)
 20031a8:	1085883a 	add	r2,r2,r2
 20031ac:	1085883a 	add	r2,r2,r2
 20031b0:	1007883a 	mov	r3,r2
 20031b4:	e0bff517 	ldw	r2,-44(fp)
 20031b8:	10c5883a 	add	r2,r2,r3
 20031bc:	e0bff615 	stw	r2,-40(fp)
  q = *bxe / (*sxe + 1);	/* ensure q <= true quotient */
 20031c0:	e0bff617 	ldw	r2,-40(fp)
 20031c4:	10c00017 	ldw	r3,0(r2)
 20031c8:	e0bff817 	ldw	r2,-32(fp)
 20031cc:	10800017 	ldw	r2,0(r2)
 20031d0:	10800044 	addi	r2,r2,1
 20031d4:	100b883a 	mov	r5,r2
 20031d8:	1809883a 	mov	r4,r3
 20031dc:	200db800 	call	200db80 <__udivsi3>
 20031e0:	e0bff415 	stw	r2,-48(fp)
#ifdef DEBUG
  /*debug*/ if (q > 9)
    /*debug*/ Bug ("oversized quotient in quorem");
#endif
  if (q)
 20031e4:	e0bff417 	ldw	r2,-48(fp)
 20031e8:	10005326 	beq	r2,zero,2003338 <quorem+0x210>
    {
      borrow = 0;
 20031ec:	e03ff215 	stw	zero,-56(fp)
      carry = 0;
 20031f0:	e03ff315 	stw	zero,-52(fp)
      do
	{
#ifdef Pack_32
	  si = *sx++;
 20031f4:	e0bff717 	ldw	r2,-36(fp)
 20031f8:	10c00104 	addi	r3,r2,4
 20031fc:	e0fff715 	stw	r3,-36(fp)
 2003200:	10800017 	ldw	r2,0(r2)
 2003204:	e0bff915 	stw	r2,-28(fp)
	  ys = (si & 0xffff) * q + carry;
 2003208:	e0bff917 	ldw	r2,-28(fp)
 200320c:	10ffffcc 	andi	r3,r2,65535
 2003210:	e0bff417 	ldw	r2,-48(fp)
 2003214:	1887383a 	mul	r3,r3,r2
 2003218:	e0bff317 	ldw	r2,-52(fp)
 200321c:	1885883a 	add	r2,r3,r2
 2003220:	e0bffa15 	stw	r2,-24(fp)
	  zs = (si >> 16) * q + (ys >> 16);
 2003224:	e0bff917 	ldw	r2,-28(fp)
 2003228:	1006d43a 	srli	r3,r2,16
 200322c:	e0bff417 	ldw	r2,-48(fp)
 2003230:	1887383a 	mul	r3,r3,r2
 2003234:	e0bffa17 	ldw	r2,-24(fp)
 2003238:	1004d43a 	srli	r2,r2,16
 200323c:	1885883a 	add	r2,r3,r2
 2003240:	e0bffb15 	stw	r2,-20(fp)
	  carry = zs >> 16;
 2003244:	e0bffb17 	ldw	r2,-20(fp)
 2003248:	1004d43a 	srli	r2,r2,16
 200324c:	e0bff315 	stw	r2,-52(fp)
	  y = (*bx & 0xffff) - (ys & 0xffff) + borrow;
 2003250:	e0bff517 	ldw	r2,-44(fp)
 2003254:	10800017 	ldw	r2,0(r2)
 2003258:	10ffffcc 	andi	r3,r2,65535
 200325c:	e0bffa17 	ldw	r2,-24(fp)
 2003260:	10bfffcc 	andi	r2,r2,65535
 2003264:	1887c83a 	sub	r3,r3,r2
 2003268:	e0bff217 	ldw	r2,-56(fp)
 200326c:	1885883a 	add	r2,r3,r2
 2003270:	e0bffc15 	stw	r2,-16(fp)
	  borrow = y >> 16;
 2003274:	e0bffc17 	ldw	r2,-16(fp)
 2003278:	1005d43a 	srai	r2,r2,16
 200327c:	e0bff215 	stw	r2,-56(fp)
	  Sign_Extend (borrow, y);
	  z = (*bx >> 16) - (zs & 0xffff) + borrow;
 2003280:	e0bff517 	ldw	r2,-44(fp)
 2003284:	10800017 	ldw	r2,0(r2)
 2003288:	1006d43a 	srli	r3,r2,16
 200328c:	e0bffb17 	ldw	r2,-20(fp)
 2003290:	10bfffcc 	andi	r2,r2,65535
 2003294:	1887c83a 	sub	r3,r3,r2
 2003298:	e0bff217 	ldw	r2,-56(fp)
 200329c:	1885883a 	add	r2,r3,r2
 20032a0:	e0bffd15 	stw	r2,-12(fp)
	  borrow = z >> 16;
 20032a4:	e0bffd17 	ldw	r2,-12(fp)
 20032a8:	1005d43a 	srai	r2,r2,16
 20032ac:	e0bff215 	stw	r2,-56(fp)
	  Sign_Extend (borrow, z);
	  Storeinc (bx, z, y);
 20032b0:	e0bff517 	ldw	r2,-44(fp)
 20032b4:	10c00104 	addi	r3,r2,4
 20032b8:	e0fff515 	stw	r3,-44(fp)
 20032bc:	e0fffd17 	ldw	r3,-12(fp)
 20032c0:	1808943a 	slli	r4,r3,16
 20032c4:	e0fffc17 	ldw	r3,-16(fp)
 20032c8:	18ffffcc 	andi	r3,r3,65535
 20032cc:	20c6b03a 	or	r3,r4,r3
 20032d0:	10c00015 	stw	r3,0(r2)
	  borrow = y >> 16;
	  Sign_Extend (borrow, y);
	  *bx++ = y & 0xffff;
#endif
	}
      while (sx <= sxe);
 20032d4:	e0bff717 	ldw	r2,-36(fp)
 20032d8:	e0fff817 	ldw	r3,-32(fp)
 20032dc:	18bfc52e 	bgeu	r3,r2,20031f4 <quorem+0xcc>
      if (!*bxe)
 20032e0:	e0bff617 	ldw	r2,-40(fp)
 20032e4:	10800017 	ldw	r2,0(r2)
 20032e8:	1000131e 	bne	r2,zero,2003338 <quorem+0x210>
	{
	  bx = b->_x;
 20032ec:	e0bffe17 	ldw	r2,-8(fp)
 20032f0:	10800504 	addi	r2,r2,20
 20032f4:	e0bff515 	stw	r2,-44(fp)
	  while (--bxe > bx && !*bxe)
 20032f8:	00000306 	br	2003308 <quorem+0x1e0>
	    --n;
 20032fc:	e0bff117 	ldw	r2,-60(fp)
 2003300:	10bfffc4 	addi	r2,r2,-1
 2003304:	e0bff115 	stw	r2,-60(fp)
	}
      while (sx <= sxe);
      if (!*bxe)
	{
	  bx = b->_x;
	  while (--bxe > bx && !*bxe)
 2003308:	e0bff617 	ldw	r2,-40(fp)
 200330c:	10bfff04 	addi	r2,r2,-4
 2003310:	e0bff615 	stw	r2,-40(fp)
 2003314:	e0bff617 	ldw	r2,-40(fp)
 2003318:	e0fff517 	ldw	r3,-44(fp)
 200331c:	1880032e 	bgeu	r3,r2,200332c <quorem+0x204>
 2003320:	e0bff617 	ldw	r2,-40(fp)
 2003324:	10800017 	ldw	r2,0(r2)
 2003328:	103ff426 	beq	r2,zero,20032fc <quorem+0x1d4>
	    --n;
	  b->_wds = n;
 200332c:	e0bffe17 	ldw	r2,-8(fp)
 2003330:	e0fff117 	ldw	r3,-60(fp)
 2003334:	10c00415 	stw	r3,16(r2)
	}
    }
  if (cmp (b, S) >= 0)
 2003338:	e17fff17 	ldw	r5,-4(fp)
 200333c:	e13ffe17 	ldw	r4,-8(fp)
 2003340:	20090a40 	call	20090a4 <__mcmp>
 2003344:	10005f16 	blt	r2,zero,20034c4 <quorem+0x39c>
    {
      q++;
 2003348:	e0bff417 	ldw	r2,-48(fp)
 200334c:	10800044 	addi	r2,r2,1
 2003350:	e0bff415 	stw	r2,-48(fp)
      borrow = 0;
 2003354:	e03ff215 	stw	zero,-56(fp)
      carry = 0;
 2003358:	e03ff315 	stw	zero,-52(fp)
      bx = b->_x;
 200335c:	e0bffe17 	ldw	r2,-8(fp)
 2003360:	10800504 	addi	r2,r2,20
 2003364:	e0bff515 	stw	r2,-44(fp)
      sx = S->_x;
 2003368:	e0bfff17 	ldw	r2,-4(fp)
 200336c:	10800504 	addi	r2,r2,20
 2003370:	e0bff715 	stw	r2,-36(fp)
      do
	{
#ifdef Pack_32
	  si = *sx++;
 2003374:	e0bff717 	ldw	r2,-36(fp)
 2003378:	10c00104 	addi	r3,r2,4
 200337c:	e0fff715 	stw	r3,-36(fp)
 2003380:	10800017 	ldw	r2,0(r2)
 2003384:	e0bff915 	stw	r2,-28(fp)
	  ys = (si & 0xffff) + carry;
 2003388:	e0bff917 	ldw	r2,-28(fp)
 200338c:	10ffffcc 	andi	r3,r2,65535
 2003390:	e0bff317 	ldw	r2,-52(fp)
 2003394:	1885883a 	add	r2,r3,r2
 2003398:	e0bffa15 	stw	r2,-24(fp)
	  zs = (si >> 16) + (ys >> 16);
 200339c:	e0bff917 	ldw	r2,-28(fp)
 20033a0:	1006d43a 	srli	r3,r2,16
 20033a4:	e0bffa17 	ldw	r2,-24(fp)
 20033a8:	1004d43a 	srli	r2,r2,16
 20033ac:	1885883a 	add	r2,r3,r2
 20033b0:	e0bffb15 	stw	r2,-20(fp)
	  carry = zs >> 16;
 20033b4:	e0bffb17 	ldw	r2,-20(fp)
 20033b8:	1004d43a 	srli	r2,r2,16
 20033bc:	e0bff315 	stw	r2,-52(fp)
	  y = (*bx & 0xffff) - (ys & 0xffff) + borrow;
 20033c0:	e0bff517 	ldw	r2,-44(fp)
 20033c4:	10800017 	ldw	r2,0(r2)
 20033c8:	10ffffcc 	andi	r3,r2,65535
 20033cc:	e0bffa17 	ldw	r2,-24(fp)
 20033d0:	10bfffcc 	andi	r2,r2,65535
 20033d4:	1887c83a 	sub	r3,r3,r2
 20033d8:	e0bff217 	ldw	r2,-56(fp)
 20033dc:	1885883a 	add	r2,r3,r2
 20033e0:	e0bffc15 	stw	r2,-16(fp)
	  borrow = y >> 16;
 20033e4:	e0bffc17 	ldw	r2,-16(fp)
 20033e8:	1005d43a 	srai	r2,r2,16
 20033ec:	e0bff215 	stw	r2,-56(fp)
	  Sign_Extend (borrow, y);
	  z = (*bx >> 16) - (zs & 0xffff) + borrow;
 20033f0:	e0bff517 	ldw	r2,-44(fp)
 20033f4:	10800017 	ldw	r2,0(r2)
 20033f8:	1006d43a 	srli	r3,r2,16
 20033fc:	e0bffb17 	ldw	r2,-20(fp)
 2003400:	10bfffcc 	andi	r2,r2,65535
 2003404:	1887c83a 	sub	r3,r3,r2
 2003408:	e0bff217 	ldw	r2,-56(fp)
 200340c:	1885883a 	add	r2,r3,r2
 2003410:	e0bffd15 	stw	r2,-12(fp)
	  borrow = z >> 16;
 2003414:	e0bffd17 	ldw	r2,-12(fp)
 2003418:	1005d43a 	srai	r2,r2,16
 200341c:	e0bff215 	stw	r2,-56(fp)
	  Sign_Extend (borrow, z);
	  Storeinc (bx, z, y);
 2003420:	e0bff517 	ldw	r2,-44(fp)
 2003424:	10c00104 	addi	r3,r2,4
 2003428:	e0fff515 	stw	r3,-44(fp)
 200342c:	e0fffd17 	ldw	r3,-12(fp)
 2003430:	1808943a 	slli	r4,r3,16
 2003434:	e0fffc17 	ldw	r3,-16(fp)
 2003438:	18ffffcc 	andi	r3,r3,65535
 200343c:	20c6b03a 	or	r3,r4,r3
 2003440:	10c00015 	stw	r3,0(r2)
	  borrow = y >> 16;
	  Sign_Extend (borrow, y);
	  *bx++ = y & 0xffff;
#endif
	}
      while (sx <= sxe);
 2003444:	e0bff717 	ldw	r2,-36(fp)
 2003448:	e0fff817 	ldw	r3,-32(fp)
 200344c:	18bfc92e 	bgeu	r3,r2,2003374 <quorem+0x24c>
      bx = b->_x;
 2003450:	e0bffe17 	ldw	r2,-8(fp)
 2003454:	10800504 	addi	r2,r2,20
 2003458:	e0bff515 	stw	r2,-44(fp)
      bxe = bx + n;
 200345c:	e0bff117 	ldw	r2,-60(fp)
 2003460:	1085883a 	add	r2,r2,r2
 2003464:	1085883a 	add	r2,r2,r2
 2003468:	1007883a 	mov	r3,r2
 200346c:	e0bff517 	ldw	r2,-44(fp)
 2003470:	10c5883a 	add	r2,r2,r3
 2003474:	e0bff615 	stw	r2,-40(fp)
      if (!*bxe)
 2003478:	e0bff617 	ldw	r2,-40(fp)
 200347c:	10800017 	ldw	r2,0(r2)
 2003480:	1000101e 	bne	r2,zero,20034c4 <quorem+0x39c>
	{
	  while (--bxe > bx && !*bxe)
 2003484:	00000306 	br	2003494 <quorem+0x36c>
	    --n;
 2003488:	e0bff117 	ldw	r2,-60(fp)
 200348c:	10bfffc4 	addi	r2,r2,-1
 2003490:	e0bff115 	stw	r2,-60(fp)
      while (sx <= sxe);
      bx = b->_x;
      bxe = bx + n;
      if (!*bxe)
	{
	  while (--bxe > bx && !*bxe)
 2003494:	e0bff617 	ldw	r2,-40(fp)
 2003498:	10bfff04 	addi	r2,r2,-4
 200349c:	e0bff615 	stw	r2,-40(fp)
 20034a0:	e0bff617 	ldw	r2,-40(fp)
 20034a4:	e0fff517 	ldw	r3,-44(fp)
 20034a8:	1880032e 	bgeu	r3,r2,20034b8 <quorem+0x390>
 20034ac:	e0bff617 	ldw	r2,-40(fp)
 20034b0:	10800017 	ldw	r2,0(r2)
 20034b4:	103ff426 	beq	r2,zero,2003488 <quorem+0x360>
	    --n;
	  b->_wds = n;
 20034b8:	e0bffe17 	ldw	r2,-8(fp)
 20034bc:	e0fff117 	ldw	r3,-60(fp)
 20034c0:	10c00415 	stw	r3,16(r2)
	}
    }
  return q;
 20034c4:	e0bff417 	ldw	r2,-48(fp)
}
 20034c8:	e037883a 	mov	sp,fp
 20034cc:	dfc00117 	ldw	ra,4(sp)
 20034d0:	df000017 	ldw	fp,0(sp)
 20034d4:	dec00204 	addi	sp,sp,8
 20034d8:	f800283a 	ret

020034dc <_dtoa_r>:
	int mode _AND
	int ndigits _AND
	int *decpt _AND
	int *sign _AND
	char **rve)
{
 20034dc:	deffcc04 	addi	sp,sp,-208
 20034e0:	dfc03315 	stw	ra,204(sp)
 20034e4:	df003215 	stw	fp,200(sp)
 20034e8:	dcc03115 	stw	r19,196(sp)
 20034ec:	dc803015 	stw	r18,192(sp)
 20034f0:	dc402f15 	stw	r17,188(sp)
 20034f4:	dc002e15 	stw	r16,184(sp)
 20034f8:	df003204 	addi	fp,sp,200
 20034fc:	e13ff815 	stw	r4,-32(fp)
 2003500:	e17ff915 	stw	r5,-28(fp)
 2003504:	e1bffa15 	stw	r6,-24(fp)
 2003508:	e1fffb15 	stw	r7,-20(fp)
  __Long L;
#ifndef Sudden_Underflow
  int denorm;
  __ULong x;
#endif
  _Bigint *b, *b1, *delta, *mlo = NULL, *mhi, *S;
 200350c:	e03fe215 	stw	zero,-120(fp)
  double ds;
  char *s, *s0;

  d.d = _d;
 2003510:	e0bff917 	ldw	r2,-28(fp)
 2003514:	e0bff215 	stw	r2,-56(fp)
 2003518:	e0bffa17 	ldw	r2,-24(fp)
 200351c:	e0bff315 	stw	r2,-52(fp)

  _REENT_CHECK_MP(ptr);
  if (_REENT_MP_RESULT(ptr))
 2003520:	e0bff817 	ldw	r2,-32(fp)
 2003524:	10801017 	ldw	r2,64(r2)
 2003528:	10001326 	beq	r2,zero,2003578 <_dtoa_r+0x9c>
    {
      _REENT_MP_RESULT(ptr)->_k = _REENT_MP_RESULT_K(ptr);
 200352c:	e0bff817 	ldw	r2,-32(fp)
 2003530:	10801017 	ldw	r2,64(r2)
 2003534:	e0fff817 	ldw	r3,-32(fp)
 2003538:	18c01117 	ldw	r3,68(r3)
 200353c:	10c00115 	stw	r3,4(r2)
      _REENT_MP_RESULT(ptr)->_maxwds = 1 << _REENT_MP_RESULT_K(ptr);
 2003540:	e0bff817 	ldw	r2,-32(fp)
 2003544:	10801017 	ldw	r2,64(r2)
 2003548:	e0fff817 	ldw	r3,-32(fp)
 200354c:	18c01117 	ldw	r3,68(r3)
 2003550:	01000044 	movi	r4,1
 2003554:	20c6983a 	sll	r3,r4,r3
 2003558:	10c00215 	stw	r3,8(r2)
      Bfree (ptr, _REENT_MP_RESULT(ptr));
 200355c:	e0bff817 	ldw	r2,-32(fp)
 2003560:	10801017 	ldw	r2,64(r2)
 2003564:	100b883a 	mov	r5,r2
 2003568:	e13ff817 	ldw	r4,-32(fp)
 200356c:	20083f40 	call	20083f4 <_Bfree>
      _REENT_MP_RESULT(ptr) = 0;
 2003570:	e0bff817 	ldw	r2,-32(fp)
 2003574:	10001015 	stw	zero,64(r2)
    }

  if (word0 (d) & Sign_bit)
 2003578:	e0bff317 	ldw	r2,-52(fp)
 200357c:	1000090e 	bge	r2,zero,20035a4 <_dtoa_r+0xc8>
    {
      /* set sign for everything, including 0's and NaNs */
      *sign = 1;
 2003580:	e0800417 	ldw	r2,16(fp)
 2003584:	00c00044 	movi	r3,1
 2003588:	10c00015 	stw	r3,0(r2)
      word0 (d) &= ~Sign_bit;	/* clear sign bit */
 200358c:	e0fff317 	ldw	r3,-52(fp)
 2003590:	00a00034 	movhi	r2,32768
 2003594:	10bfffc4 	addi	r2,r2,-1
 2003598:	1884703a 	and	r2,r3,r2
 200359c:	e0bff315 	stw	r2,-52(fp)
 20035a0:	00000206 	br	20035ac <_dtoa_r+0xd0>
    }
  else
    *sign = 0;
 20035a4:	e0800417 	ldw	r2,16(fp)
 20035a8:	10000015 	stw	zero,0(r2)

#if defined(IEEE_Arith) + defined(VAX)
#ifdef IEEE_Arith
  if ((word0 (d) & Exp_mask) == Exp_mask)
 20035ac:	e0bff317 	ldw	r2,-52(fp)
 20035b0:	10dffc2c 	andhi	r3,r2,32752
 20035b4:	009ffc34 	movhi	r2,32752
 20035b8:	1880221e 	bne	r3,r2,2003644 <_dtoa_r+0x168>
#else
  if (word0 (d) == 0x8000)
#endif
    {
      /* Infinity or NaN */
      *decpt = 9999;
 20035bc:	e0800317 	ldw	r2,12(fp)
 20035c0:	00c9c3c4 	movi	r3,9999
 20035c4:	10c00015 	stw	r3,0(r2)
      s =
#ifdef IEEE_Arith
	!word1 (d) && !(word0 (d) & 0xfffff) ? "Infinity" :
 20035c8:	e0bff217 	ldw	r2,-56(fp)
 20035cc:	1000081e 	bne	r2,zero,20035f0 <_dtoa_r+0x114>
 20035d0:	e0fff317 	ldw	r3,-52(fp)
 20035d4:	00800434 	movhi	r2,16
 20035d8:	10bfffc4 	addi	r2,r2,-1
 20035dc:	1884703a 	and	r2,r3,r2
 20035e0:	1000031e 	bne	r2,zero,20035f0 <_dtoa_r+0x114>
 20035e4:	00808074 	movhi	r2,513
 20035e8:	108b9604 	addi	r2,r2,11864
 20035ec:	00000206 	br	20035f8 <_dtoa_r+0x11c>
 20035f0:	00808074 	movhi	r2,513
 20035f4:	108b9904 	addi	r2,r2,11876
  if (word0 (d) == 0x8000)
#endif
    {
      /* Infinity or NaN */
      *decpt = 9999;
      s =
 20035f8:	e0bfe715 	stw	r2,-100(fp)
#ifdef IEEE_Arith
	!word1 (d) && !(word0 (d) & 0xfffff) ? "Infinity" :
#endif
	"NaN";
      if (rve)
 20035fc:	e0800517 	ldw	r2,20(fp)
 2003600:	10000e26 	beq	r2,zero,200363c <_dtoa_r+0x160>
	*rve =
#ifdef IEEE_Arith
	  s[3] ? s + 8 :
 2003604:	e0bfe717 	ldw	r2,-100(fp)
 2003608:	108000c4 	addi	r2,r2,3
 200360c:	10800003 	ldbu	r2,0(r2)
 2003610:	10803fcc 	andi	r2,r2,255
 2003614:	1080201c 	xori	r2,r2,128
 2003618:	10bfe004 	addi	r2,r2,-128
 200361c:	10000326 	beq	r2,zero,200362c <_dtoa_r+0x150>
 2003620:	e0bfe717 	ldw	r2,-100(fp)
 2003624:	10800204 	addi	r2,r2,8
 2003628:	00000206 	br	2003634 <_dtoa_r+0x158>
 200362c:	e0bfe717 	ldw	r2,-100(fp)
 2003630:	108000c4 	addi	r2,r2,3
#ifdef IEEE_Arith
	!word1 (d) && !(word0 (d) & 0xfffff) ? "Infinity" :
#endif
	"NaN";
      if (rve)
	*rve =
 2003634:	e0c00517 	ldw	r3,20(fp)
 2003638:	18800015 	stw	r2,0(r3)
#ifdef IEEE_Arith
	  s[3] ? s + 8 :
#endif
	  s + 3;
      return s;
 200363c:	e0bfe717 	ldw	r2,-100(fp)
 2003640:	00067b06 	br	2005030 <_dtoa_r+0x1b54>
    }
#endif
#ifdef IBM
  d.d += 0;			/* normalize */
#endif
  if (!d.d)
 2003644:	e0bff217 	ldw	r2,-56(fp)
 2003648:	e0fff317 	ldw	r3,-52(fp)
 200364c:	000d883a 	mov	r6,zero
 2003650:	000f883a 	mov	r7,zero
 2003654:	1009883a 	mov	r4,r2
 2003658:	180b883a 	mov	r5,r3
 200365c:	200edd00 	call	200edd0 <__eqdf2>
 2003660:	10000e1e 	bne	r2,zero,200369c <_dtoa_r+0x1c0>
    {
      *decpt = 1;
 2003664:	e0800317 	ldw	r2,12(fp)
 2003668:	00c00044 	movi	r3,1
 200366c:	10c00015 	stw	r3,0(r2)
      s = "0";
 2003670:	00808074 	movhi	r2,513
 2003674:	108b9a04 	addi	r2,r2,11880
 2003678:	e0bfe715 	stw	r2,-100(fp)
      if (rve)
 200367c:	e0800517 	ldw	r2,20(fp)
 2003680:	10000426 	beq	r2,zero,2003694 <_dtoa_r+0x1b8>
	*rve = s + 1;
 2003684:	e0bfe717 	ldw	r2,-100(fp)
 2003688:	10c00044 	addi	r3,r2,1
 200368c:	e0800517 	ldw	r2,20(fp)
 2003690:	10c00015 	stw	r3,0(r2)
      return s;
 2003694:	e0bfe717 	ldw	r2,-100(fp)
 2003698:	00066506 	br	2005030 <_dtoa_r+0x1b54>
    }

  b = d2b (ptr, d.d, &be, &bbits);
 200369c:	e0bff217 	ldw	r2,-56(fp)
 20036a0:	e0fff317 	ldw	r3,-52(fp)
 20036a4:	e17ff104 	addi	r5,fp,-60
 20036a8:	e13ff004 	addi	r4,fp,-64
 20036ac:	d9000015 	stw	r4,0(sp)
 20036b0:	280f883a 	mov	r7,r5
 20036b4:	100b883a 	mov	r5,r2
 20036b8:	180d883a 	mov	r6,r3
 20036bc:	e13ff817 	ldw	r4,-32(fp)
 20036c0:	200972c0 	call	200972c <__d2b>
 20036c4:	e0bfe115 	stw	r2,-124(fp)
#ifdef Sudden_Underflow
  i = (int) (word0 (d) >> Exp_shift1 & (Exp_mask >> Exp_shift1));
#else
  if ((i = (int) (word0 (d) >> Exp_shift1 & (Exp_mask >> Exp_shift1))) != 0)
 20036c8:	e0bff317 	ldw	r2,-52(fp)
 20036cc:	1004d53a 	srli	r2,r2,20
 20036d0:	1081ffcc 	andi	r2,r2,2047
 20036d4:	e0bfd215 	stw	r2,-184(fp)
 20036d8:	e0bfd217 	ldw	r2,-184(fp)
 20036dc:	10001126 	beq	r2,zero,2003724 <_dtoa_r+0x248>
    {
#endif
      d2.d = d.d;
 20036e0:	e0bff217 	ldw	r2,-56(fp)
 20036e4:	e0fff317 	ldw	r3,-52(fp)
 20036e8:	e0bff415 	stw	r2,-48(fp)
 20036ec:	e0fff515 	stw	r3,-44(fp)
      word0 (d2) &= Frac_mask1;
 20036f0:	e0fff517 	ldw	r3,-44(fp)
 20036f4:	00800434 	movhi	r2,16
 20036f8:	10bfffc4 	addi	r2,r2,-1
 20036fc:	1884703a 	and	r2,r3,r2
 2003700:	e0bff515 	stw	r2,-44(fp)
      word0 (d2) |= Exp_11;
 2003704:	e0bff517 	ldw	r2,-44(fp)
 2003708:	108ffc34 	orhi	r2,r2,16368
 200370c:	e0bff515 	stw	r2,-44(fp)
		 * Hence we adjust the constant term to 0.1760912590558.
		 * (We could get a more accurate k by invoking log10,
		 *  but this is probably not worthwhile.)
		 */

      i -= Bias;
 2003710:	e0bfd217 	ldw	r2,-184(fp)
 2003714:	10bf0044 	addi	r2,r2,-1023
 2003718:	e0bfd215 	stw	r2,-184(fp)
#ifdef IBM
      i <<= 2;
      i += j;
#endif
#ifndef Sudden_Underflow
      denorm = 0;
 200371c:	e03fe015 	stw	zero,-128(fp)
 2003720:	00002806 	br	20037c4 <_dtoa_r+0x2e8>
    }
  else
    {
      /* d is denormalized */

      i = bbits + be + (Bias + (P - 1) - 1);
 2003724:	e0fff017 	ldw	r3,-64(fp)
 2003728:	e0bff117 	ldw	r2,-60(fp)
 200372c:	1885883a 	add	r2,r3,r2
 2003730:	10810c84 	addi	r2,r2,1074
 2003734:	e0bfd215 	stw	r2,-184(fp)
#if defined (_DOUBLE_IS_32BITS)
      x = word0 (d) << (32 - i);
#else
      x = (i > 32) ? (word0 (d) << (64 - i)) | (word1 (d) >> (i - 32))
       : (word1 (d) << (32 - i));
 2003738:	e0bfd217 	ldw	r2,-184(fp)
 200373c:	10800850 	cmplti	r2,r2,33
 2003740:	10000b1e 	bne	r2,zero,2003770 <_dtoa_r+0x294>

      i = bbits + be + (Bias + (P - 1) - 1);
#if defined (_DOUBLE_IS_32BITS)
      x = word0 (d) << (32 - i);
#else
      x = (i > 32) ? (word0 (d) << (64 - i)) | (word1 (d) >> (i - 32))
 2003744:	e0fff317 	ldw	r3,-52(fp)
 2003748:	01001004 	movi	r4,64
 200374c:	e0bfd217 	ldw	r2,-184(fp)
 2003750:	2085c83a 	sub	r2,r4,r2
 2003754:	1886983a 	sll	r3,r3,r2
 2003758:	e13ff217 	ldw	r4,-56(fp)
 200375c:	e0bfd217 	ldw	r2,-184(fp)
 2003760:	10bff804 	addi	r2,r2,-32
 2003764:	2084d83a 	srl	r2,r4,r2
       : (word1 (d) << (32 - i));
 2003768:	1884b03a 	or	r2,r3,r2
 200376c:	00000506 	br	2003784 <_dtoa_r+0x2a8>
 2003770:	e0fff217 	ldw	r3,-56(fp)
 2003774:	01000804 	movi	r4,32
 2003778:	e0bfd217 	ldw	r2,-184(fp)
 200377c:	2085c83a 	sub	r2,r4,r2
 2003780:	1884983a 	sll	r2,r3,r2

      i = bbits + be + (Bias + (P - 1) - 1);
#if defined (_DOUBLE_IS_32BITS)
      x = word0 (d) << (32 - i);
#else
      x = (i > 32) ? (word0 (d) << (64 - i)) | (word1 (d) >> (i - 32))
 2003784:	e0bfe815 	stw	r2,-96(fp)
       : (word1 (d) << (32 - i));
#endif
      d2.d = x;
 2003788:	e13fe817 	ldw	r4,-96(fp)
 200378c:	200ffc80 	call	200ffc8 <__floatunsidf>
 2003790:	1009883a 	mov	r4,r2
 2003794:	180b883a 	mov	r5,r3
 2003798:	e13ff415 	stw	r4,-48(fp)
 200379c:	e17ff515 	stw	r5,-44(fp)
      word0 (d2) -= 31 * Exp_msk1;	/* adjust exponent */
 20037a0:	e0fff517 	ldw	r3,-44(fp)
 20037a4:	00bf8434 	movhi	r2,65040
 20037a8:	1885883a 	add	r2,r3,r2
 20037ac:	e0bff515 	stw	r2,-44(fp)
      i -= (Bias + (P - 1) - 1) + 1;
 20037b0:	e0bfd217 	ldw	r2,-184(fp)
 20037b4:	10bef344 	addi	r2,r2,-1075
 20037b8:	e0bfd215 	stw	r2,-184(fp)
      denorm = 1;
 20037bc:	00800044 	movi	r2,1
 20037c0:	e0bfe015 	stw	r2,-128(fp)
    }
#endif
#if defined (_DOUBLE_IS_32BITS)
  ds = (d2.d - 1.5) * 0.289529651 + 0.176091269 + i * 0.30103001;
#else
  ds = (d2.d - 1.5) * 0.289529654602168 + 0.1760912590558 + i * 0.301029995663981;
 20037c4:	e0bff417 	ldw	r2,-48(fp)
 20037c8:	e0fff517 	ldw	r3,-44(fp)
 20037cc:	000d883a 	mov	r6,zero
 20037d0:	01cffe34 	movhi	r7,16376
 20037d4:	1009883a 	mov	r4,r2
 20037d8:	180b883a 	mov	r5,r3
 20037dc:	200f64c0 	call	200f64c <__subdf3>
 20037e0:	1009883a 	mov	r4,r2
 20037e4:	180b883a 	mov	r5,r3
 20037e8:	2005883a 	mov	r2,r4
 20037ec:	2807883a 	mov	r3,r5
 20037f0:	0198dbf4 	movhi	r6,25455
 20037f4:	3190d844 	addi	r6,r6,17249
 20037f8:	01cff4f4 	movhi	r7,16339
 20037fc:	39e1e9c4 	addi	r7,r7,-30809
 2003800:	1009883a 	mov	r4,r2
 2003804:	180b883a 	mov	r5,r3
 2003808:	200ef340 	call	200ef34 <__muldf3>
 200380c:	1009883a 	mov	r4,r2
 2003810:	180b883a 	mov	r5,r3
 2003814:	2005883a 	mov	r2,r4
 2003818:	2807883a 	mov	r3,r5
 200381c:	01a2d874 	movhi	r6,35681
 2003820:	31b22cc4 	addi	r6,r6,-14157
 2003824:	01cff1f4 	movhi	r7,16327
 2003828:	39e28a04 	addi	r7,r7,-30168
 200382c:	1009883a 	mov	r4,r2
 2003830:	180b883a 	mov	r5,r3
 2003834:	200dc3c0 	call	200dc3c <__adddf3>
 2003838:	1009883a 	mov	r4,r2
 200383c:	180b883a 	mov	r5,r3
 2003840:	2025883a 	mov	r18,r4
 2003844:	2827883a 	mov	r19,r5
 2003848:	e13fd217 	ldw	r4,-184(fp)
 200384c:	20005dc0 	call	20005dc <__floatsidf>
 2003850:	1011883a 	mov	r8,r2
 2003854:	1813883a 	mov	r9,r3
 2003858:	019427f4 	movhi	r6,20639
 200385c:	319e7ec4 	addi	r6,r6,31227
 2003860:	01cff4f4 	movhi	r7,16339
 2003864:	39d104c4 	addi	r7,r7,17427
 2003868:	4009883a 	mov	r4,r8
 200386c:	480b883a 	mov	r5,r9
 2003870:	200ef340 	call	200ef34 <__muldf3>
 2003874:	1009883a 	mov	r4,r2
 2003878:	180b883a 	mov	r5,r3
 200387c:	2005883a 	mov	r2,r4
 2003880:	2807883a 	mov	r3,r5
 2003884:	100d883a 	mov	r6,r2
 2003888:	180f883a 	mov	r7,r3
 200388c:	9009883a 	mov	r4,r18
 2003890:	980b883a 	mov	r5,r19
 2003894:	200dc3c0 	call	200dc3c <__adddf3>
 2003898:	1009883a 	mov	r4,r2
 200389c:	180b883a 	mov	r5,r3
 20038a0:	e13fe515 	stw	r4,-108(fp)
 20038a4:	e17fe615 	stw	r5,-104(fp)
#endif
  k = (int) ds;
 20038a8:	e13fe517 	ldw	r4,-108(fp)
 20038ac:	e17fe617 	ldw	r5,-104(fp)
 20038b0:	200ff480 	call	200ff48 <__fixdfsi>
 20038b4:	e0bfd715 	stw	r2,-164(fp)
  if (ds < 0. && ds != k)
 20038b8:	000d883a 	mov	r6,zero
 20038bc:	000f883a 	mov	r7,zero
 20038c0:	e13fe517 	ldw	r4,-108(fp)
 20038c4:	e17fe617 	ldw	r5,-104(fp)
 20038c8:	20004e80 	call	20004e8 <__ledf2>
 20038cc:	10000d0e 	bge	r2,zero,2003904 <_dtoa_r+0x428>
 20038d0:	e13fd717 	ldw	r4,-164(fp)
 20038d4:	20005dc0 	call	20005dc <__floatsidf>
 20038d8:	1011883a 	mov	r8,r2
 20038dc:	1813883a 	mov	r9,r3
 20038e0:	e1bfe517 	ldw	r6,-108(fp)
 20038e4:	e1ffe617 	ldw	r7,-104(fp)
 20038e8:	4009883a 	mov	r4,r8
 20038ec:	480b883a 	mov	r5,r9
 20038f0:	200edd00 	call	200edd0 <__eqdf2>
 20038f4:	10000326 	beq	r2,zero,2003904 <_dtoa_r+0x428>
    k--;			/* want k = floor(ds) */
 20038f8:	e0bfd717 	ldw	r2,-164(fp)
 20038fc:	10bfffc4 	addi	r2,r2,-1
 2003900:	e0bfd715 	stw	r2,-164(fp)
  k_check = 1;
 2003904:	00800044 	movi	r2,1
 2003908:	e0bfd815 	stw	r2,-160(fp)
  if (k >= 0 && k <= Ten_pmax)
 200390c:	e0bfd717 	ldw	r2,-164(fp)
 2003910:	10001616 	blt	r2,zero,200396c <_dtoa_r+0x490>
 2003914:	e0bfd717 	ldw	r2,-164(fp)
 2003918:	108005c8 	cmpgei	r2,r2,23
 200391c:	1000131e 	bne	r2,zero,200396c <_dtoa_r+0x490>
    {
      if (d.d < tens[k])
 2003920:	e0bff217 	ldw	r2,-56(fp)
 2003924:	e0fff317 	ldw	r3,-52(fp)
 2003928:	01008074 	movhi	r4,513
 200392c:	210ba104 	addi	r4,r4,11908
 2003930:	e17fd717 	ldw	r5,-164(fp)
 2003934:	280a90fa 	slli	r5,r5,3
 2003938:	214d883a 	add	r6,r4,r5
 200393c:	31000017 	ldw	r4,0(r6)
 2003940:	31400117 	ldw	r5,4(r6)
 2003944:	200d883a 	mov	r6,r4
 2003948:	280f883a 	mov	r7,r5
 200394c:	1009883a 	mov	r4,r2
 2003950:	180b883a 	mov	r5,r3
 2003954:	20004e80 	call	20004e8 <__ledf2>
 2003958:	1000030e 	bge	r2,zero,2003968 <_dtoa_r+0x48c>
	k--;
 200395c:	e0bfd717 	ldw	r2,-164(fp)
 2003960:	10bfffc4 	addi	r2,r2,-1
 2003964:	e0bfd715 	stw	r2,-164(fp)
      k_check = 0;
 2003968:	e03fd815 	stw	zero,-160(fp)
    }
  j = bbits - i - 1;
 200396c:	e0fff017 	ldw	r3,-64(fp)
 2003970:	e0bfd217 	ldw	r2,-184(fp)
 2003974:	1885c83a 	sub	r2,r3,r2
 2003978:	10bfffc4 	addi	r2,r2,-1
 200397c:	e0bfd615 	stw	r2,-168(fp)
  if (j >= 0)
 2003980:	e0bfd617 	ldw	r2,-168(fp)
 2003984:	10000416 	blt	r2,zero,2003998 <_dtoa_r+0x4bc>
    {
      b2 = 0;
 2003988:	e03fcf15 	stw	zero,-196(fp)
      s2 = j;
 200398c:	e0bfd617 	ldw	r2,-168(fp)
 2003990:	e0bfdc15 	stw	r2,-144(fp)
 2003994:	00000406 	br	20039a8 <_dtoa_r+0x4cc>
    }
  else
    {
      b2 = -j;
 2003998:	e0bfd617 	ldw	r2,-168(fp)
 200399c:	0085c83a 	sub	r2,zero,r2
 20039a0:	e0bfcf15 	stw	r2,-196(fp)
      s2 = 0;
 20039a4:	e03fdc15 	stw	zero,-144(fp)
    }
  if (k >= 0)
 20039a8:	e0bfd717 	ldw	r2,-164(fp)
 20039ac:	10000816 	blt	r2,zero,20039d0 <_dtoa_r+0x4f4>
    {
      b5 = 0;
 20039b0:	e03fd015 	stw	zero,-192(fp)
      s5 = k;
 20039b4:	e0bfd717 	ldw	r2,-164(fp)
 20039b8:	e0bfdd15 	stw	r2,-140(fp)
      s2 += k;
 20039bc:	e0ffdc17 	ldw	r3,-144(fp)
 20039c0:	e0bfd717 	ldw	r2,-164(fp)
 20039c4:	1885883a 	add	r2,r3,r2
 20039c8:	e0bfdc15 	stw	r2,-144(fp)
 20039cc:	00000806 	br	20039f0 <_dtoa_r+0x514>
    }
  else
    {
      b2 -= k;
 20039d0:	e0ffcf17 	ldw	r3,-196(fp)
 20039d4:	e0bfd717 	ldw	r2,-164(fp)
 20039d8:	1885c83a 	sub	r2,r3,r2
 20039dc:	e0bfcf15 	stw	r2,-196(fp)
      b5 = -k;
 20039e0:	e0bfd717 	ldw	r2,-164(fp)
 20039e4:	0085c83a 	sub	r2,zero,r2
 20039e8:	e0bfd015 	stw	r2,-192(fp)
      s5 = 0;
 20039ec:	e03fdd15 	stw	zero,-140(fp)
    }
  if (mode < 0 || mode > 9)
 20039f0:	e0bffb17 	ldw	r2,-20(fp)
 20039f4:	10000316 	blt	r2,zero,2003a04 <_dtoa_r+0x528>
 20039f8:	e0bffb17 	ldw	r2,-20(fp)
 20039fc:	10800290 	cmplti	r2,r2,10
 2003a00:	1000011e 	bne	r2,zero,2003a08 <_dtoa_r+0x52c>
    mode = 0;
 2003a04:	e03ffb15 	stw	zero,-20(fp)
  try_quick = 1;
 2003a08:	00800044 	movi	r2,1
 2003a0c:	e0bfdf15 	stw	r2,-132(fp)
  if (mode > 5)
 2003a10:	e0bffb17 	ldw	r2,-20(fp)
 2003a14:	10800190 	cmplti	r2,r2,6
 2003a18:	1000041e 	bne	r2,zero,2003a2c <_dtoa_r+0x550>
    {
      mode -= 4;
 2003a1c:	e0bffb17 	ldw	r2,-20(fp)
 2003a20:	10bfff04 	addi	r2,r2,-4
 2003a24:	e0bffb15 	stw	r2,-20(fp)
      try_quick = 0;
 2003a28:	e03fdf15 	stw	zero,-132(fp)
    }
  leftright = 1;
 2003a2c:	00800044 	movi	r2,1
 2003a30:	e0bfd915 	stw	r2,-156(fp)
  ilim = ilim1 = -1;
 2003a34:	00bfffc4 	movi	r2,-1
 2003a38:	e0bfd515 	stw	r2,-172(fp)
 2003a3c:	e0bfd517 	ldw	r2,-172(fp)
 2003a40:	e0bfd415 	stw	r2,-176(fp)
  switch (mode)
 2003a44:	e0bffb17 	ldw	r2,-20(fp)
 2003a48:	108001a8 	cmpgeui	r2,r2,6
 2003a4c:	10002c1e 	bne	r2,zero,2003b00 <_dtoa_r+0x624>
 2003a50:	e0bffb17 	ldw	r2,-20(fp)
 2003a54:	100690ba 	slli	r3,r2,2
 2003a58:	00808034 	movhi	r2,512
 2003a5c:	108e9b04 	addi	r2,r2,14956
 2003a60:	1885883a 	add	r2,r3,r2
 2003a64:	10800017 	ldw	r2,0(r2)
 2003a68:	1000683a 	jmp	r2
 2003a6c:	02003a84 	movi	r8,234
 2003a70:	02003a84 	movi	r8,234
 2003a74:	02003a94 	movui	r8,234
 2003a78:	02003ac4 	movi	r8,235
 2003a7c:	02003a98 	cmpnei	r8,zero,234
 2003a80:	02003ac8 	cmpgei	r8,zero,235
    {
    case 0:
    case 1:
      i = 18;
 2003a84:	00800484 	movi	r2,18
 2003a88:	e0bfd215 	stw	r2,-184(fp)
      ndigits = 0;
 2003a8c:	e0000215 	stw	zero,8(fp)
      break;
 2003a90:	00001b06 	br	2003b00 <_dtoa_r+0x624>
    case 2:
      leftright = 0;
 2003a94:	e03fd915 	stw	zero,-156(fp)
      /* no break */
    case 4:
      if (ndigits <= 0)
 2003a98:	e0800217 	ldw	r2,8(fp)
 2003a9c:	00800216 	blt	zero,r2,2003aa8 <_dtoa_r+0x5cc>
	ndigits = 1;
 2003aa0:	00800044 	movi	r2,1
 2003aa4:	e0800215 	stw	r2,8(fp)
      ilim = ilim1 = i = ndigits;
 2003aa8:	e0800217 	ldw	r2,8(fp)
 2003aac:	e0bfd215 	stw	r2,-184(fp)
 2003ab0:	e0bfd217 	ldw	r2,-184(fp)
 2003ab4:	e0bfd515 	stw	r2,-172(fp)
 2003ab8:	e0bfd517 	ldw	r2,-172(fp)
 2003abc:	e0bfd415 	stw	r2,-176(fp)
      break;
 2003ac0:	00000f06 	br	2003b00 <_dtoa_r+0x624>
    case 3:
      leftright = 0;
 2003ac4:	e03fd915 	stw	zero,-156(fp)
      /* no break */
    case 5:
      i = ndigits + k + 1;
 2003ac8:	e0c00217 	ldw	r3,8(fp)
 2003acc:	e0bfd717 	ldw	r2,-164(fp)
 2003ad0:	1885883a 	add	r2,r3,r2
 2003ad4:	10800044 	addi	r2,r2,1
 2003ad8:	e0bfd215 	stw	r2,-184(fp)
      ilim = i;
 2003adc:	e0bfd217 	ldw	r2,-184(fp)
 2003ae0:	e0bfd415 	stw	r2,-176(fp)
      ilim1 = i - 1;
 2003ae4:	e0bfd217 	ldw	r2,-184(fp)
 2003ae8:	10bfffc4 	addi	r2,r2,-1
 2003aec:	e0bfd515 	stw	r2,-172(fp)
      if (i <= 0)
 2003af0:	e0bfd217 	ldw	r2,-184(fp)
 2003af4:	00800216 	blt	zero,r2,2003b00 <_dtoa_r+0x624>
	i = 1;
 2003af8:	00800044 	movi	r2,1
 2003afc:	e0bfd215 	stw	r2,-184(fp)
    }
  j = sizeof (__ULong);
 2003b00:	00800104 	movi	r2,4
 2003b04:	e0bfd615 	stw	r2,-168(fp)
  for (_REENT_MP_RESULT_K(ptr) = 0; sizeof (_Bigint) - sizeof (__ULong) + j <= i;
 2003b08:	e0bff817 	ldw	r2,-32(fp)
 2003b0c:	10001115 	stw	zero,68(r2)
 2003b10:	00000806 	br	2003b34 <_dtoa_r+0x658>
       j <<= 1)
    _REENT_MP_RESULT_K(ptr)++;
 2003b14:	e0bff817 	ldw	r2,-32(fp)
 2003b18:	10801117 	ldw	r2,68(r2)
 2003b1c:	10c00044 	addi	r3,r2,1
 2003b20:	e0bff817 	ldw	r2,-32(fp)
 2003b24:	10c01115 	stw	r3,68(r2)
      if (i <= 0)
	i = 1;
    }
  j = sizeof (__ULong);
  for (_REENT_MP_RESULT_K(ptr) = 0; sizeof (_Bigint) - sizeof (__ULong) + j <= i;
       j <<= 1)
 2003b28:	e0bfd617 	ldw	r2,-168(fp)
 2003b2c:	1085883a 	add	r2,r2,r2
 2003b30:	e0bfd615 	stw	r2,-168(fp)
      ilim1 = i - 1;
      if (i <= 0)
	i = 1;
    }
  j = sizeof (__ULong);
  for (_REENT_MP_RESULT_K(ptr) = 0; sizeof (_Bigint) - sizeof (__ULong) + j <= i;
 2003b34:	e0bfd617 	ldw	r2,-168(fp)
 2003b38:	10800504 	addi	r2,r2,20
 2003b3c:	e0ffd217 	ldw	r3,-184(fp)
 2003b40:	18bff42e 	bgeu	r3,r2,2003b14 <_dtoa_r+0x638>
       j <<= 1)
    _REENT_MP_RESULT_K(ptr)++;
  _REENT_MP_RESULT(ptr) = Balloc (ptr, _REENT_MP_RESULT_K(ptr));
 2003b44:	e0bff817 	ldw	r2,-32(fp)
 2003b48:	10801117 	ldw	r2,68(r2)
 2003b4c:	100b883a 	mov	r5,r2
 2003b50:	e13ff817 	ldw	r4,-32(fp)
 2003b54:	20082c40 	call	20082c4 <_Balloc>
 2003b58:	1007883a 	mov	r3,r2
 2003b5c:	e0bff817 	ldw	r2,-32(fp)
 2003b60:	10c01015 	stw	r3,64(r2)
  s = s0 = (char *) _REENT_MP_RESULT(ptr);
 2003b64:	e0bff817 	ldw	r2,-32(fp)
 2003b68:	10801017 	ldw	r2,64(r2)
 2003b6c:	e0bfe915 	stw	r2,-92(fp)
 2003b70:	e0bfe917 	ldw	r2,-92(fp)
 2003b74:	e0bfe715 	stw	r2,-100(fp)

  if (ilim >= 0 && ilim <= Quick_max && try_quick)
 2003b78:	e0bfd417 	ldw	r2,-176(fp)
 2003b7c:	10021616 	blt	r2,zero,20043d8 <_dtoa_r+0xefc>
 2003b80:	e0bfd417 	ldw	r2,-176(fp)
 2003b84:	108003c8 	cmpgei	r2,r2,15
 2003b88:	1002131e 	bne	r2,zero,20043d8 <_dtoa_r+0xefc>
 2003b8c:	e0bfdf17 	ldw	r2,-132(fp)
 2003b90:	10021126 	beq	r2,zero,20043d8 <_dtoa_r+0xefc>
    {
      /* Try to get by with floating-point arithmetic. */

      i = 0;
 2003b94:	e03fd215 	stw	zero,-184(fp)
      d2.d = d.d;
 2003b98:	e0bff217 	ldw	r2,-56(fp)
 2003b9c:	e0fff317 	ldw	r3,-52(fp)
 2003ba0:	e0bff415 	stw	r2,-48(fp)
 2003ba4:	e0fff515 	stw	r3,-44(fp)
      k0 = k;
 2003ba8:	e0bfd717 	ldw	r2,-164(fp)
 2003bac:	e0bfea15 	stw	r2,-88(fp)
      ilim0 = ilim;
 2003bb0:	e0bfd417 	ldw	r2,-176(fp)
 2003bb4:	e0bfeb15 	stw	r2,-84(fp)
      ieps = 2;			/* conservative */
 2003bb8:	00800084 	movi	r2,2
 2003bbc:	e0bfd315 	stw	r2,-180(fp)
      if (k > 0)
 2003bc0:	e0bfd717 	ldw	r2,-164(fp)
 2003bc4:	0080540e 	bge	zero,r2,2003d18 <_dtoa_r+0x83c>
	{
	  ds = tens[k & 0xf];
 2003bc8:	e0bfd717 	ldw	r2,-164(fp)
 2003bcc:	10c003cc 	andi	r3,r2,15
 2003bd0:	00808074 	movhi	r2,513
 2003bd4:	108ba104 	addi	r2,r2,11908
 2003bd8:	180690fa 	slli	r3,r3,3
 2003bdc:	10c5883a 	add	r2,r2,r3
 2003be0:	10c00017 	ldw	r3,0(r2)
 2003be4:	e0ffe515 	stw	r3,-108(fp)
 2003be8:	10800117 	ldw	r2,4(r2)
 2003bec:	e0bfe615 	stw	r2,-104(fp)
	  j = k >> 4;
 2003bf0:	e0bfd717 	ldw	r2,-164(fp)
 2003bf4:	1005d13a 	srai	r2,r2,4
 2003bf8:	e0bfd615 	stw	r2,-168(fp)
	  if (j & Bletch)
 2003bfc:	e0bfd617 	ldw	r2,-168(fp)
 2003c00:	1080040c 	andi	r2,r2,16
 2003c04:	10003426 	beq	r2,zero,2003cd8 <_dtoa_r+0x7fc>
	    {
	      /* prevent overflows */
	      j &= Bletch - 1;
 2003c08:	e0bfd617 	ldw	r2,-168(fp)
 2003c0c:	108003cc 	andi	r2,r2,15
 2003c10:	e0bfd615 	stw	r2,-168(fp)
	      d.d /= bigtens[n_bigtens - 1];
 2003c14:	e0bff217 	ldw	r2,-56(fp)
 2003c18:	e0fff317 	ldw	r3,-52(fp)
 2003c1c:	01808074 	movhi	r6,513
 2003c20:	318bd304 	addi	r6,r6,12108
 2003c24:	31000817 	ldw	r4,32(r6)
 2003c28:	31400917 	ldw	r5,36(r6)
 2003c2c:	200d883a 	mov	r6,r4
 2003c30:	280f883a 	mov	r7,r5
 2003c34:	1009883a 	mov	r4,r2
 2003c38:	180b883a 	mov	r5,r3
 2003c3c:	200e4e80 	call	200e4e8 <__divdf3>
 2003c40:	1009883a 	mov	r4,r2
 2003c44:	180b883a 	mov	r5,r3
 2003c48:	2005883a 	mov	r2,r4
 2003c4c:	2807883a 	mov	r3,r5
 2003c50:	e0bff215 	stw	r2,-56(fp)
 2003c54:	e0fff315 	stw	r3,-52(fp)
	      ieps++;
 2003c58:	e0bfd317 	ldw	r2,-180(fp)
 2003c5c:	10800044 	addi	r2,r2,1
 2003c60:	e0bfd315 	stw	r2,-180(fp)
	    }
	  for (; j; j >>= 1, i++)
 2003c64:	00001c06 	br	2003cd8 <_dtoa_r+0x7fc>
	    if (j & 1)
 2003c68:	e0bfd617 	ldw	r2,-168(fp)
 2003c6c:	1080004c 	andi	r2,r2,1
 2003c70:	10001326 	beq	r2,zero,2003cc0 <_dtoa_r+0x7e4>
	      {
		ieps++;
 2003c74:	e0bfd317 	ldw	r2,-180(fp)
 2003c78:	10800044 	addi	r2,r2,1
 2003c7c:	e0bfd315 	stw	r2,-180(fp)
		ds *= bigtens[i];
 2003c80:	00808074 	movhi	r2,513
 2003c84:	108bd304 	addi	r2,r2,12108
 2003c88:	e0ffd217 	ldw	r3,-184(fp)
 2003c8c:	180690fa 	slli	r3,r3,3
 2003c90:	10c9883a 	add	r4,r2,r3
 2003c94:	20800017 	ldw	r2,0(r4)
 2003c98:	20c00117 	ldw	r3,4(r4)
 2003c9c:	100d883a 	mov	r6,r2
 2003ca0:	180f883a 	mov	r7,r3
 2003ca4:	e13fe517 	ldw	r4,-108(fp)
 2003ca8:	e17fe617 	ldw	r5,-104(fp)
 2003cac:	200ef340 	call	200ef34 <__muldf3>
 2003cb0:	1009883a 	mov	r4,r2
 2003cb4:	180b883a 	mov	r5,r3
 2003cb8:	e13fe515 	stw	r4,-108(fp)
 2003cbc:	e17fe615 	stw	r5,-104(fp)
	      /* prevent overflows */
	      j &= Bletch - 1;
	      d.d /= bigtens[n_bigtens - 1];
	      ieps++;
	    }
	  for (; j; j >>= 1, i++)
 2003cc0:	e0bfd617 	ldw	r2,-168(fp)
 2003cc4:	1005d07a 	srai	r2,r2,1
 2003cc8:	e0bfd615 	stw	r2,-168(fp)
 2003ccc:	e0bfd217 	ldw	r2,-184(fp)
 2003cd0:	10800044 	addi	r2,r2,1
 2003cd4:	e0bfd215 	stw	r2,-184(fp)
 2003cd8:	e0bfd617 	ldw	r2,-168(fp)
 2003cdc:	103fe21e 	bne	r2,zero,2003c68 <_dtoa_r+0x78c>
	    if (j & 1)
	      {
		ieps++;
		ds *= bigtens[i];
	      }
	  d.d /= ds;
 2003ce0:	e0bff217 	ldw	r2,-56(fp)
 2003ce4:	e0fff317 	ldw	r3,-52(fp)
 2003ce8:	e1bfe517 	ldw	r6,-108(fp)
 2003cec:	e1ffe617 	ldw	r7,-104(fp)
 2003cf0:	1009883a 	mov	r4,r2
 2003cf4:	180b883a 	mov	r5,r3
 2003cf8:	200e4e80 	call	200e4e8 <__divdf3>
 2003cfc:	1009883a 	mov	r4,r2
 2003d00:	180b883a 	mov	r5,r3
 2003d04:	2005883a 	mov	r2,r4
 2003d08:	2807883a 	mov	r3,r5
 2003d0c:	e0bff215 	stw	r2,-56(fp)
 2003d10:	e0fff315 	stw	r3,-52(fp)
 2003d14:	00004006 	br	2003e18 <_dtoa_r+0x93c>
	}
      else if ((j1 = -k) != 0)
 2003d18:	e0bfd717 	ldw	r2,-164(fp)
 2003d1c:	0085c83a 	sub	r2,zero,r2
 2003d20:	e0bfec15 	stw	r2,-80(fp)
 2003d24:	e0bfec17 	ldw	r2,-80(fp)
 2003d28:	10003b26 	beq	r2,zero,2003e18 <_dtoa_r+0x93c>
	{
	  d.d *= tens[j1 & 0xf];
 2003d2c:	e0bff217 	ldw	r2,-56(fp)
 2003d30:	e0fff317 	ldw	r3,-52(fp)
 2003d34:	e13fec17 	ldw	r4,-80(fp)
 2003d38:	214003cc 	andi	r5,r4,15
 2003d3c:	01008074 	movhi	r4,513
 2003d40:	210ba104 	addi	r4,r4,11908
 2003d44:	280a90fa 	slli	r5,r5,3
 2003d48:	214d883a 	add	r6,r4,r5
 2003d4c:	31000017 	ldw	r4,0(r6)
 2003d50:	31400117 	ldw	r5,4(r6)
 2003d54:	200d883a 	mov	r6,r4
 2003d58:	280f883a 	mov	r7,r5
 2003d5c:	1009883a 	mov	r4,r2
 2003d60:	180b883a 	mov	r5,r3
 2003d64:	200ef340 	call	200ef34 <__muldf3>
 2003d68:	1009883a 	mov	r4,r2
 2003d6c:	180b883a 	mov	r5,r3
 2003d70:	2005883a 	mov	r2,r4
 2003d74:	2807883a 	mov	r3,r5
 2003d78:	e0bff215 	stw	r2,-56(fp)
 2003d7c:	e0fff315 	stw	r3,-52(fp)
	  for (j = j1 >> 4; j; j >>= 1, i++)
 2003d80:	e0bfec17 	ldw	r2,-80(fp)
 2003d84:	1005d13a 	srai	r2,r2,4
 2003d88:	e0bfd615 	stw	r2,-168(fp)
 2003d8c:	00002006 	br	2003e10 <_dtoa_r+0x934>
	    if (j & 1)
 2003d90:	e0bfd617 	ldw	r2,-168(fp)
 2003d94:	1080004c 	andi	r2,r2,1
 2003d98:	10001726 	beq	r2,zero,2003df8 <_dtoa_r+0x91c>
	      {
		ieps++;
 2003d9c:	e0bfd317 	ldw	r2,-180(fp)
 2003da0:	10800044 	addi	r2,r2,1
 2003da4:	e0bfd315 	stw	r2,-180(fp)
		d.d *= bigtens[i];
 2003da8:	e0bff217 	ldw	r2,-56(fp)
 2003dac:	e0fff317 	ldw	r3,-52(fp)
 2003db0:	01008074 	movhi	r4,513
 2003db4:	210bd304 	addi	r4,r4,12108
 2003db8:	e17fd217 	ldw	r5,-184(fp)
 2003dbc:	280a90fa 	slli	r5,r5,3
 2003dc0:	214d883a 	add	r6,r4,r5
 2003dc4:	31000017 	ldw	r4,0(r6)
 2003dc8:	31400117 	ldw	r5,4(r6)
 2003dcc:	200d883a 	mov	r6,r4
 2003dd0:	280f883a 	mov	r7,r5
 2003dd4:	1009883a 	mov	r4,r2
 2003dd8:	180b883a 	mov	r5,r3
 2003ddc:	200ef340 	call	200ef34 <__muldf3>
 2003de0:	1009883a 	mov	r4,r2
 2003de4:	180b883a 	mov	r5,r3
 2003de8:	2005883a 	mov	r2,r4
 2003dec:	2807883a 	mov	r3,r5
 2003df0:	e0bff215 	stw	r2,-56(fp)
 2003df4:	e0fff315 	stw	r3,-52(fp)
	  d.d /= ds;
	}
      else if ((j1 = -k) != 0)
	{
	  d.d *= tens[j1 & 0xf];
	  for (j = j1 >> 4; j; j >>= 1, i++)
 2003df8:	e0bfd617 	ldw	r2,-168(fp)
 2003dfc:	1005d07a 	srai	r2,r2,1
 2003e00:	e0bfd615 	stw	r2,-168(fp)
 2003e04:	e0bfd217 	ldw	r2,-184(fp)
 2003e08:	10800044 	addi	r2,r2,1
 2003e0c:	e0bfd215 	stw	r2,-184(fp)
 2003e10:	e0bfd617 	ldw	r2,-168(fp)
 2003e14:	103fde1e 	bne	r2,zero,2003d90 <_dtoa_r+0x8b4>
	      {
		ieps++;
		d.d *= bigtens[i];
	      }
	}
      if (k_check && d.d < 1. && ilim > 0)
 2003e18:	e0bfd817 	ldw	r2,-160(fp)
 2003e1c:	10002126 	beq	r2,zero,2003ea4 <_dtoa_r+0x9c8>
 2003e20:	e0bff217 	ldw	r2,-56(fp)
 2003e24:	e0fff317 	ldw	r3,-52(fp)
 2003e28:	000d883a 	mov	r6,zero
 2003e2c:	01cffc34 	movhi	r7,16368
 2003e30:	1009883a 	mov	r4,r2
 2003e34:	180b883a 	mov	r5,r3
 2003e38:	20004e80 	call	20004e8 <__ledf2>
 2003e3c:	1000190e 	bge	r2,zero,2003ea4 <_dtoa_r+0x9c8>
 2003e40:	e0bfd417 	ldw	r2,-176(fp)
 2003e44:	0080170e 	bge	zero,r2,2003ea4 <_dtoa_r+0x9c8>
	{
	  if (ilim1 <= 0)
 2003e48:	e0bfd517 	ldw	r2,-172(fp)
 2003e4c:	0081550e 	bge	zero,r2,20043a4 <_dtoa_r+0xec8>
	    goto fast_failed;
	  ilim = ilim1;
 2003e50:	e0bfd517 	ldw	r2,-172(fp)
 2003e54:	e0bfd415 	stw	r2,-176(fp)
	  k--;
 2003e58:	e0bfd717 	ldw	r2,-164(fp)
 2003e5c:	10bfffc4 	addi	r2,r2,-1
 2003e60:	e0bfd715 	stw	r2,-164(fp)
	  d.d *= 10.;
 2003e64:	e0bff217 	ldw	r2,-56(fp)
 2003e68:	e0fff317 	ldw	r3,-52(fp)
 2003e6c:	000d883a 	mov	r6,zero
 2003e70:	01d00934 	movhi	r7,16420
 2003e74:	1009883a 	mov	r4,r2
 2003e78:	180b883a 	mov	r5,r3
 2003e7c:	200ef340 	call	200ef34 <__muldf3>
 2003e80:	1009883a 	mov	r4,r2
 2003e84:	180b883a 	mov	r5,r3
 2003e88:	2005883a 	mov	r2,r4
 2003e8c:	2807883a 	mov	r3,r5
 2003e90:	e0bff215 	stw	r2,-56(fp)
 2003e94:	e0fff315 	stw	r3,-52(fp)
	  ieps++;
 2003e98:	e0bfd317 	ldw	r2,-180(fp)
 2003e9c:	10800044 	addi	r2,r2,1
 2003ea0:	e0bfd315 	stw	r2,-180(fp)
	}
      eps.d = ieps * d.d + 7.;
 2003ea4:	e13fd317 	ldw	r4,-180(fp)
 2003ea8:	20005dc0 	call	20005dc <__floatsidf>
 2003eac:	1011883a 	mov	r8,r2
 2003eb0:	1813883a 	mov	r9,r3
 2003eb4:	e0bff217 	ldw	r2,-56(fp)
 2003eb8:	e0fff317 	ldw	r3,-52(fp)
 2003ebc:	100d883a 	mov	r6,r2
 2003ec0:	180f883a 	mov	r7,r3
 2003ec4:	4009883a 	mov	r4,r8
 2003ec8:	480b883a 	mov	r5,r9
 2003ecc:	200ef340 	call	200ef34 <__muldf3>
 2003ed0:	1009883a 	mov	r4,r2
 2003ed4:	180b883a 	mov	r5,r3
 2003ed8:	2005883a 	mov	r2,r4
 2003edc:	2807883a 	mov	r3,r5
 2003ee0:	000d883a 	mov	r6,zero
 2003ee4:	01d00734 	movhi	r7,16412
 2003ee8:	1009883a 	mov	r4,r2
 2003eec:	180b883a 	mov	r5,r3
 2003ef0:	200dc3c0 	call	200dc3c <__adddf3>
 2003ef4:	1009883a 	mov	r4,r2
 2003ef8:	180b883a 	mov	r5,r3
 2003efc:	2005883a 	mov	r2,r4
 2003f00:	2807883a 	mov	r3,r5
 2003f04:	e0bff615 	stw	r2,-40(fp)
 2003f08:	e0fff715 	stw	r3,-36(fp)
      word0 (eps) -= (P - 1) * Exp_msk1;
 2003f0c:	e0fff717 	ldw	r3,-36(fp)
 2003f10:	00bf3034 	movhi	r2,64704
 2003f14:	1885883a 	add	r2,r3,r2
 2003f18:	e0bff715 	stw	r2,-36(fp)
      if (ilim == 0)
 2003f1c:	e0bfd417 	ldw	r2,-176(fp)
 2003f20:	1000271e 	bne	r2,zero,2003fc0 <_dtoa_r+0xae4>
	{
	  S = mhi = 0;
 2003f24:	e03fe315 	stw	zero,-116(fp)
 2003f28:	e0bfe317 	ldw	r2,-116(fp)
 2003f2c:	e0bfe415 	stw	r2,-112(fp)
	  d.d -= 5.;
 2003f30:	e0bff217 	ldw	r2,-56(fp)
 2003f34:	e0fff317 	ldw	r3,-52(fp)
 2003f38:	000d883a 	mov	r6,zero
 2003f3c:	01d00534 	movhi	r7,16404
 2003f40:	1009883a 	mov	r4,r2
 2003f44:	180b883a 	mov	r5,r3
 2003f48:	200f64c0 	call	200f64c <__subdf3>
 2003f4c:	1009883a 	mov	r4,r2
 2003f50:	180b883a 	mov	r5,r3
 2003f54:	2005883a 	mov	r2,r4
 2003f58:	2807883a 	mov	r3,r5
 2003f5c:	e0bff215 	stw	r2,-56(fp)
 2003f60:	e0fff315 	stw	r3,-52(fp)
	  if (d.d > eps.d)
 2003f64:	e0bff217 	ldw	r2,-56(fp)
 2003f68:	e0fff317 	ldw	r3,-52(fp)
 2003f6c:	e13ff617 	ldw	r4,-40(fp)
 2003f70:	e17ff717 	ldw	r5,-36(fp)
 2003f74:	200d883a 	mov	r6,r4
 2003f78:	280f883a 	mov	r7,r5
 2003f7c:	1009883a 	mov	r4,r2
 2003f80:	180b883a 	mov	r5,r3
 2003f84:	200ee580 	call	200ee58 <__gedf2>
 2003f88:	0082eb16 	blt	zero,r2,2004b38 <_dtoa_r+0x165c>
	    goto one_digit;
	  if (d.d < -eps.d)
 2003f8c:	e23ff217 	ldw	r8,-56(fp)
 2003f90:	e27ff317 	ldw	r9,-52(fp)
 2003f94:	e0bff617 	ldw	r2,-40(fp)
 2003f98:	e0fff717 	ldw	r3,-36(fp)
 2003f9c:	1021883a 	mov	r16,r2
 2003fa0:	1c60003c 	xorhi	r17,r3,32768
 2003fa4:	800d883a 	mov	r6,r16
 2003fa8:	880f883a 	mov	r7,r17
 2003fac:	4009883a 	mov	r4,r8
 2003fb0:	480b883a 	mov	r5,r9
 2003fb4:	20004e80 	call	20004e8 <__ledf2>
 2003fb8:	1002da16 	blt	r2,zero,2004b24 <_dtoa_r+0x1648>
	    goto no_digits;
	  goto fast_failed;
 2003fbc:	0000fc06 	br	20043b0 <_dtoa_r+0xed4>
	}
#ifndef No_leftright
      if (leftright)
 2003fc0:	e0bfd917 	ldw	r2,-156(fp)
 2003fc4:	10007a26 	beq	r2,zero,20041b0 <_dtoa_r+0xcd4>
	{
	  /* Use Steele & White method of only
	   * generating digits needed.
	   */
	  eps.d = 0.5 / tens[ilim - 1] - eps.d;
 2003fc8:	e0bfd417 	ldw	r2,-176(fp)
 2003fcc:	10ffffc4 	addi	r3,r2,-1
 2003fd0:	00808074 	movhi	r2,513
 2003fd4:	108ba104 	addi	r2,r2,11908
 2003fd8:	180690fa 	slli	r3,r3,3
 2003fdc:	10c9883a 	add	r4,r2,r3
 2003fe0:	20800017 	ldw	r2,0(r4)
 2003fe4:	20c00117 	ldw	r3,4(r4)
 2003fe8:	100d883a 	mov	r6,r2
 2003fec:	180f883a 	mov	r7,r3
 2003ff0:	0009883a 	mov	r4,zero
 2003ff4:	014ff834 	movhi	r5,16352
 2003ff8:	200e4e80 	call	200e4e8 <__divdf3>
 2003ffc:	1009883a 	mov	r4,r2
 2004000:	180b883a 	mov	r5,r3
 2004004:	2011883a 	mov	r8,r4
 2004008:	2813883a 	mov	r9,r5
 200400c:	e0bff617 	ldw	r2,-40(fp)
 2004010:	e0fff717 	ldw	r3,-36(fp)
 2004014:	100d883a 	mov	r6,r2
 2004018:	180f883a 	mov	r7,r3
 200401c:	4009883a 	mov	r4,r8
 2004020:	480b883a 	mov	r5,r9
 2004024:	200f64c0 	call	200f64c <__subdf3>
 2004028:	1009883a 	mov	r4,r2
 200402c:	180b883a 	mov	r5,r3
 2004030:	2005883a 	mov	r2,r4
 2004034:	2807883a 	mov	r3,r5
 2004038:	e0bff615 	stw	r2,-40(fp)
 200403c:	e0fff715 	stw	r3,-36(fp)
	  for (i = 0;;)
 2004040:	e03fd215 	stw	zero,-184(fp)
	    {
	      L = d.d;
 2004044:	e0bff217 	ldw	r2,-56(fp)
 2004048:	e0fff317 	ldw	r3,-52(fp)
 200404c:	1009883a 	mov	r4,r2
 2004050:	180b883a 	mov	r5,r3
 2004054:	200ff480 	call	200ff48 <__fixdfsi>
 2004058:	e0bfed15 	stw	r2,-76(fp)
	      d.d -= L;
 200405c:	e43ff217 	ldw	r16,-56(fp)
 2004060:	e47ff317 	ldw	r17,-52(fp)
 2004064:	e13fed17 	ldw	r4,-76(fp)
 2004068:	20005dc0 	call	20005dc <__floatsidf>
 200406c:	1009883a 	mov	r4,r2
 2004070:	180b883a 	mov	r5,r3
 2004074:	200d883a 	mov	r6,r4
 2004078:	280f883a 	mov	r7,r5
 200407c:	8009883a 	mov	r4,r16
 2004080:	880b883a 	mov	r5,r17
 2004084:	200f64c0 	call	200f64c <__subdf3>
 2004088:	1009883a 	mov	r4,r2
 200408c:	180b883a 	mov	r5,r3
 2004090:	2005883a 	mov	r2,r4
 2004094:	2807883a 	mov	r3,r5
 2004098:	e0bff215 	stw	r2,-56(fp)
 200409c:	e0fff315 	stw	r3,-52(fp)
	      *s++ = '0' + (int) L;
 20040a0:	e0bfe717 	ldw	r2,-100(fp)
 20040a4:	10c00044 	addi	r3,r2,1
 20040a8:	e0ffe715 	stw	r3,-100(fp)
 20040ac:	e0ffed17 	ldw	r3,-76(fp)
 20040b0:	18c00c04 	addi	r3,r3,48
 20040b4:	10c00005 	stb	r3,0(r2)
	      if (d.d < eps.d)
 20040b8:	e0bff217 	ldw	r2,-56(fp)
 20040bc:	e0fff317 	ldw	r3,-52(fp)
 20040c0:	e13ff617 	ldw	r4,-40(fp)
 20040c4:	e17ff717 	ldw	r5,-36(fp)
 20040c8:	200d883a 	mov	r6,r4
 20040cc:	280f883a 	mov	r7,r5
 20040d0:	1009883a 	mov	r4,r2
 20040d4:	180b883a 	mov	r5,r3
 20040d8:	20004e80 	call	20004e8 <__ledf2>
 20040dc:	1003c416 	blt	r2,zero,2004ff0 <_dtoa_r+0x1b14>
		goto ret1;
	      if (1. - d.d < eps.d)
 20040e0:	e0bff217 	ldw	r2,-56(fp)
 20040e4:	e0fff317 	ldw	r3,-52(fp)
 20040e8:	100d883a 	mov	r6,r2
 20040ec:	180f883a 	mov	r7,r3
 20040f0:	0009883a 	mov	r4,zero
 20040f4:	014ffc34 	movhi	r5,16368
 20040f8:	200f64c0 	call	200f64c <__subdf3>
 20040fc:	1009883a 	mov	r4,r2
 2004100:	180b883a 	mov	r5,r3
 2004104:	2011883a 	mov	r8,r4
 2004108:	2813883a 	mov	r9,r5
 200410c:	e0bff617 	ldw	r2,-40(fp)
 2004110:	e0fff717 	ldw	r3,-36(fp)
 2004114:	100d883a 	mov	r6,r2
 2004118:	180f883a 	mov	r7,r3
 200411c:	4009883a 	mov	r4,r8
 2004120:	480b883a 	mov	r5,r9
 2004124:	20004e80 	call	20004e8 <__ledf2>
 2004128:	10012916 	blt	r2,zero,20045d0 <_dtoa_r+0x10f4>
		goto bump_up;
	      if (++i >= ilim)
 200412c:	e0bfd217 	ldw	r2,-184(fp)
 2004130:	10800044 	addi	r2,r2,1
 2004134:	e0bfd215 	stw	r2,-184(fp)
 2004138:	e0ffd217 	ldw	r3,-184(fp)
 200413c:	e0bfd417 	ldw	r2,-176(fp)
 2004140:	18809a0e 	bge	r3,r2,20043ac <_dtoa_r+0xed0>
		break;
	      eps.d *= 10.;
 2004144:	e0bff617 	ldw	r2,-40(fp)
 2004148:	e0fff717 	ldw	r3,-36(fp)
 200414c:	000d883a 	mov	r6,zero
 2004150:	01d00934 	movhi	r7,16420
 2004154:	1009883a 	mov	r4,r2
 2004158:	180b883a 	mov	r5,r3
 200415c:	200ef340 	call	200ef34 <__muldf3>
 2004160:	1009883a 	mov	r4,r2
 2004164:	180b883a 	mov	r5,r3
 2004168:	2005883a 	mov	r2,r4
 200416c:	2807883a 	mov	r3,r5
 2004170:	e0bff615 	stw	r2,-40(fp)
 2004174:	e0fff715 	stw	r3,-36(fp)
	      d.d *= 10.;
 2004178:	e0bff217 	ldw	r2,-56(fp)
 200417c:	e0fff317 	ldw	r3,-52(fp)
 2004180:	000d883a 	mov	r6,zero
 2004184:	01d00934 	movhi	r7,16420
 2004188:	1009883a 	mov	r4,r2
 200418c:	180b883a 	mov	r5,r3
 2004190:	200ef340 	call	200ef34 <__muldf3>
 2004194:	1009883a 	mov	r4,r2
 2004198:	180b883a 	mov	r5,r3
 200419c:	2005883a 	mov	r2,r4
 20041a0:	2807883a 	mov	r3,r5
 20041a4:	e0bff215 	stw	r2,-56(fp)
 20041a8:	e0fff315 	stw	r3,-52(fp)
	    }
 20041ac:	003fa506 	br	2004044 <_dtoa_r+0xb68>
	}
      else
	{
#endif
	  /* Generate ilim digits, then fix them up. */
	  eps.d *= tens[ilim - 1];
 20041b0:	e0bff617 	ldw	r2,-40(fp)
 20041b4:	e0fff717 	ldw	r3,-36(fp)
 20041b8:	e13fd417 	ldw	r4,-176(fp)
 20041bc:	217fffc4 	addi	r5,r4,-1
 20041c0:	01008074 	movhi	r4,513
 20041c4:	210ba104 	addi	r4,r4,11908
 20041c8:	280a90fa 	slli	r5,r5,3
 20041cc:	214d883a 	add	r6,r4,r5
 20041d0:	31000017 	ldw	r4,0(r6)
 20041d4:	31400117 	ldw	r5,4(r6)
 20041d8:	200d883a 	mov	r6,r4
 20041dc:	280f883a 	mov	r7,r5
 20041e0:	1009883a 	mov	r4,r2
 20041e4:	180b883a 	mov	r5,r3
 20041e8:	200ef340 	call	200ef34 <__muldf3>
 20041ec:	1009883a 	mov	r4,r2
 20041f0:	180b883a 	mov	r5,r3
 20041f4:	2005883a 	mov	r2,r4
 20041f8:	2807883a 	mov	r3,r5
 20041fc:	e0bff615 	stw	r2,-40(fp)
 2004200:	e0fff715 	stw	r3,-36(fp)
	  for (i = 1;; i++, d.d *= 10.)
 2004204:	00800044 	movi	r2,1
 2004208:	e0bfd215 	stw	r2,-184(fp)
	    {
	      L = d.d;
 200420c:	e0bff217 	ldw	r2,-56(fp)
 2004210:	e0fff317 	ldw	r3,-52(fp)
 2004214:	1009883a 	mov	r4,r2
 2004218:	180b883a 	mov	r5,r3
 200421c:	200ff480 	call	200ff48 <__fixdfsi>
 2004220:	e0bfed15 	stw	r2,-76(fp)
	      d.d -= L;
 2004224:	e43ff217 	ldw	r16,-56(fp)
 2004228:	e47ff317 	ldw	r17,-52(fp)
 200422c:	e13fed17 	ldw	r4,-76(fp)
 2004230:	20005dc0 	call	20005dc <__floatsidf>
 2004234:	1009883a 	mov	r4,r2
 2004238:	180b883a 	mov	r5,r3
 200423c:	200d883a 	mov	r6,r4
 2004240:	280f883a 	mov	r7,r5
 2004244:	8009883a 	mov	r4,r16
 2004248:	880b883a 	mov	r5,r17
 200424c:	200f64c0 	call	200f64c <__subdf3>
 2004250:	1009883a 	mov	r4,r2
 2004254:	180b883a 	mov	r5,r3
 2004258:	2005883a 	mov	r2,r4
 200425c:	2807883a 	mov	r3,r5
 2004260:	e0bff215 	stw	r2,-56(fp)
 2004264:	e0fff315 	stw	r3,-52(fp)
	      *s++ = '0' + (int) L;
 2004268:	e0bfe717 	ldw	r2,-100(fp)
 200426c:	10c00044 	addi	r3,r2,1
 2004270:	e0ffe715 	stw	r3,-100(fp)
 2004274:	e0ffed17 	ldw	r3,-76(fp)
 2004278:	18c00c04 	addi	r3,r3,48
 200427c:	10c00005 	stb	r3,0(r2)
	      if (i == ilim)
 2004280:	e0ffd217 	ldw	r3,-184(fp)
 2004284:	e0bfd417 	ldw	r2,-176(fp)
 2004288:	1880351e 	bne	r3,r2,2004360 <_dtoa_r+0xe84>
		{
		  if (d.d > 0.5 + eps.d)
 200428c:	e43ff217 	ldw	r16,-56(fp)
 2004290:	e47ff317 	ldw	r17,-52(fp)
 2004294:	e0bff617 	ldw	r2,-40(fp)
 2004298:	e0fff717 	ldw	r3,-36(fp)
 200429c:	000d883a 	mov	r6,zero
 20042a0:	01cff834 	movhi	r7,16352
 20042a4:	1009883a 	mov	r4,r2
 20042a8:	180b883a 	mov	r5,r3
 20042ac:	200dc3c0 	call	200dc3c <__adddf3>
 20042b0:	1009883a 	mov	r4,r2
 20042b4:	180b883a 	mov	r5,r3
 20042b8:	2005883a 	mov	r2,r4
 20042bc:	2807883a 	mov	r3,r5
 20042c0:	100d883a 	mov	r6,r2
 20042c4:	180f883a 	mov	r7,r3
 20042c8:	8009883a 	mov	r4,r16
 20042cc:	880b883a 	mov	r5,r17
 20042d0:	200ee580 	call	200ee58 <__gedf2>
 20042d4:	0080c016 	blt	zero,r2,20045d8 <_dtoa_r+0x10fc>
		    goto bump_up;
		  else if (d.d < 0.5 - eps.d)
 20042d8:	e43ff217 	ldw	r16,-56(fp)
 20042dc:	e47ff317 	ldw	r17,-52(fp)
 20042e0:	e0bff617 	ldw	r2,-40(fp)
 20042e4:	e0fff717 	ldw	r3,-36(fp)
 20042e8:	100d883a 	mov	r6,r2
 20042ec:	180f883a 	mov	r7,r3
 20042f0:	0009883a 	mov	r4,zero
 20042f4:	014ff834 	movhi	r5,16352
 20042f8:	200f64c0 	call	200f64c <__subdf3>
 20042fc:	1009883a 	mov	r4,r2
 2004300:	180b883a 	mov	r5,r3
 2004304:	2005883a 	mov	r2,r4
 2004308:	2807883a 	mov	r3,r5
 200430c:	100d883a 	mov	r6,r2
 2004310:	180f883a 	mov	r7,r3
 2004314:	8009883a 	mov	r4,r16
 2004318:	880b883a 	mov	r5,r17
 200431c:	20004e80 	call	20004e8 <__ledf2>
 2004320:	10000116 	blt	r2,zero,2004328 <_dtoa_r+0xe4c>
		    {
		      while (*--s == '0');
		      s++;
		      goto ret1;
		    }
		  break;
 2004324:	00002206 	br	20043b0 <_dtoa_r+0xed4>
		{
		  if (d.d > 0.5 + eps.d)
		    goto bump_up;
		  else if (d.d < 0.5 - eps.d)
		    {
		      while (*--s == '0');
 2004328:	e0bfe717 	ldw	r2,-100(fp)
 200432c:	10bfffc4 	addi	r2,r2,-1
 2004330:	e0bfe715 	stw	r2,-100(fp)
 2004334:	e0bfe717 	ldw	r2,-100(fp)
 2004338:	10800003 	ldbu	r2,0(r2)
 200433c:	10803fcc 	andi	r2,r2,255
 2004340:	1080201c 	xori	r2,r2,128
 2004344:	10bfe004 	addi	r2,r2,-128
 2004348:	10800c20 	cmpeqi	r2,r2,48
 200434c:	103ff61e 	bne	r2,zero,2004328 <_dtoa_r+0xe4c>
		      s++;
 2004350:	e0bfe717 	ldw	r2,-100(fp)
 2004354:	10800044 	addi	r2,r2,1
 2004358:	e0bfe715 	stw	r2,-100(fp)
		      goto ret1;
 200435c:	00032506 	br	2004ff4 <_dtoa_r+0x1b18>
      else
	{
#endif
	  /* Generate ilim digits, then fix them up. */
	  eps.d *= tens[ilim - 1];
	  for (i = 1;; i++, d.d *= 10.)
 2004360:	e0bfd217 	ldw	r2,-184(fp)
 2004364:	10800044 	addi	r2,r2,1
 2004368:	e0bfd215 	stw	r2,-184(fp)
 200436c:	e0bff217 	ldw	r2,-56(fp)
 2004370:	e0fff317 	ldw	r3,-52(fp)
 2004374:	000d883a 	mov	r6,zero
 2004378:	01d00934 	movhi	r7,16420
 200437c:	1009883a 	mov	r4,r2
 2004380:	180b883a 	mov	r5,r3
 2004384:	200ef340 	call	200ef34 <__muldf3>
 2004388:	1009883a 	mov	r4,r2
 200438c:	180b883a 	mov	r5,r3
 2004390:	2005883a 	mov	r2,r4
 2004394:	2807883a 	mov	r3,r5
 2004398:	e0bff215 	stw	r2,-56(fp)
 200439c:	e0fff315 	stw	r3,-52(fp)
		      s++;
		      goto ret1;
		    }
		  break;
		}
	    }
 20043a0:	003f9a06 	br	200420c <_dtoa_r+0xd30>
	      }
	}
      if (k_check && d.d < 1. && ilim > 0)
	{
	  if (ilim1 <= 0)
	    goto fast_failed;
 20043a4:	0001883a 	nop
 20043a8:	00000106 	br	20043b0 <_dtoa_r+0xed4>
	      if (d.d < eps.d)
		goto ret1;
	      if (1. - d.d < eps.d)
		goto bump_up;
	      if (++i >= ilim)
		break;
 20043ac:	0001883a 	nop
	    }
#ifndef No_leftright
	}
#endif
    fast_failed:
      s = s0;
 20043b0:	e0bfe917 	ldw	r2,-92(fp)
 20043b4:	e0bfe715 	stw	r2,-100(fp)
      d.d = d2.d;
 20043b8:	e0bff417 	ldw	r2,-48(fp)
 20043bc:	e0fff517 	ldw	r3,-44(fp)
 20043c0:	e0bff215 	stw	r2,-56(fp)
 20043c4:	e0fff315 	stw	r3,-52(fp)
      k = k0;
 20043c8:	e0bfea17 	ldw	r2,-88(fp)
 20043cc:	e0bfd715 	stw	r2,-164(fp)
      ilim = ilim0;
 20043d0:	e0bfeb17 	ldw	r2,-84(fp)
 20043d4:	e0bfd415 	stw	r2,-176(fp)
    }

  /* Do we have a "small" integer? */

  if (be >= 0 && k <= Int_max)
 20043d8:	e0bff117 	ldw	r2,-60(fp)
 20043dc:	1000b816 	blt	r2,zero,20046c0 <_dtoa_r+0x11e4>
 20043e0:	e0bfd717 	ldw	r2,-164(fp)
 20043e4:	108003c8 	cmpgei	r2,r2,15
 20043e8:	1000b51e 	bne	r2,zero,20046c0 <_dtoa_r+0x11e4>
    {
      /* Yes. */
      ds = tens[k];
 20043ec:	00808074 	movhi	r2,513
 20043f0:	108ba104 	addi	r2,r2,11908
 20043f4:	e0ffd717 	ldw	r3,-164(fp)
 20043f8:	180690fa 	slli	r3,r3,3
 20043fc:	10c5883a 	add	r2,r2,r3
 2004400:	10c00017 	ldw	r3,0(r2)
 2004404:	e0ffe515 	stw	r3,-108(fp)
 2004408:	10800117 	ldw	r2,4(r2)
 200440c:	e0bfe615 	stw	r2,-104(fp)
      if (ndigits < 0 && ilim <= 0)
 2004410:	e0800217 	ldw	r2,8(fp)
 2004414:	1000190e 	bge	r2,zero,200447c <_dtoa_r+0xfa0>
 2004418:	e0bfd417 	ldw	r2,-176(fp)
 200441c:	00801716 	blt	zero,r2,200447c <_dtoa_r+0xfa0>
	{
	  S = mhi = 0;
 2004420:	e03fe315 	stw	zero,-116(fp)
 2004424:	e0bfe317 	ldw	r2,-116(fp)
 2004428:	e0bfe415 	stw	r2,-112(fp)
	  if (ilim < 0 || d.d <= 5 * ds)
 200442c:	e0bfd417 	ldw	r2,-176(fp)
 2004430:	1001bd16 	blt	r2,zero,2004b28 <_dtoa_r+0x164c>
 2004434:	e43ff217 	ldw	r16,-56(fp)
 2004438:	e47ff317 	ldw	r17,-52(fp)
 200443c:	000d883a 	mov	r6,zero
 2004440:	01d00534 	movhi	r7,16404
 2004444:	e13fe517 	ldw	r4,-108(fp)
 2004448:	e17fe617 	ldw	r5,-104(fp)
 200444c:	200ef340 	call	200ef34 <__muldf3>
 2004450:	1009883a 	mov	r4,r2
 2004454:	180b883a 	mov	r5,r3
 2004458:	2005883a 	mov	r2,r4
 200445c:	2807883a 	mov	r3,r5
 2004460:	100d883a 	mov	r6,r2
 2004464:	180f883a 	mov	r7,r3
 2004468:	8009883a 	mov	r4,r16
 200446c:	880b883a 	mov	r5,r17
 2004470:	20004e80 	call	20004e8 <__ledf2>
 2004474:	0081ac0e 	bge	zero,r2,2004b28 <_dtoa_r+0x164c>
	    goto no_digits;
	  goto one_digit;
 2004478:	0001b006 	br	2004b3c <_dtoa_r+0x1660>
	}
      for (i = 1;; i++)
 200447c:	00800044 	movi	r2,1
 2004480:	e0bfd215 	stw	r2,-184(fp)
	{
	  L = d.d / ds;
 2004484:	e0bff217 	ldw	r2,-56(fp)
 2004488:	e0fff317 	ldw	r3,-52(fp)
 200448c:	e1bfe517 	ldw	r6,-108(fp)
 2004490:	e1ffe617 	ldw	r7,-104(fp)
 2004494:	1009883a 	mov	r4,r2
 2004498:	180b883a 	mov	r5,r3
 200449c:	200e4e80 	call	200e4e8 <__divdf3>
 20044a0:	1009883a 	mov	r4,r2
 20044a4:	180b883a 	mov	r5,r3
 20044a8:	2005883a 	mov	r2,r4
 20044ac:	2807883a 	mov	r3,r5
 20044b0:	1009883a 	mov	r4,r2
 20044b4:	180b883a 	mov	r5,r3
 20044b8:	200ff480 	call	200ff48 <__fixdfsi>
 20044bc:	e0bfed15 	stw	r2,-76(fp)
	  d.d -= L * ds;
 20044c0:	e43ff217 	ldw	r16,-56(fp)
 20044c4:	e47ff317 	ldw	r17,-52(fp)
 20044c8:	e13fed17 	ldw	r4,-76(fp)
 20044cc:	20005dc0 	call	20005dc <__floatsidf>
 20044d0:	1011883a 	mov	r8,r2
 20044d4:	1813883a 	mov	r9,r3
 20044d8:	e1bfe517 	ldw	r6,-108(fp)
 20044dc:	e1ffe617 	ldw	r7,-104(fp)
 20044e0:	4009883a 	mov	r4,r8
 20044e4:	480b883a 	mov	r5,r9
 20044e8:	200ef340 	call	200ef34 <__muldf3>
 20044ec:	1009883a 	mov	r4,r2
 20044f0:	180b883a 	mov	r5,r3
 20044f4:	2005883a 	mov	r2,r4
 20044f8:	2807883a 	mov	r3,r5
 20044fc:	100d883a 	mov	r6,r2
 2004500:	180f883a 	mov	r7,r3
 2004504:	8009883a 	mov	r4,r16
 2004508:	880b883a 	mov	r5,r17
 200450c:	200f64c0 	call	200f64c <__subdf3>
 2004510:	1009883a 	mov	r4,r2
 2004514:	180b883a 	mov	r5,r3
 2004518:	2005883a 	mov	r2,r4
 200451c:	2807883a 	mov	r3,r5
 2004520:	e0bff215 	stw	r2,-56(fp)
 2004524:	e0fff315 	stw	r3,-52(fp)
	    {
	      L--;
	      d.d += ds;
	    }
#endif
	  *s++ = '0' + (int) L;
 2004528:	e0bfe717 	ldw	r2,-100(fp)
 200452c:	10c00044 	addi	r3,r2,1
 2004530:	e0ffe715 	stw	r3,-100(fp)
 2004534:	e0ffed17 	ldw	r3,-76(fp)
 2004538:	18c00c04 	addi	r3,r3,48
 200453c:	10c00005 	stb	r3,0(r2)
	  if (i == ilim)
 2004540:	e0ffd217 	ldw	r3,-184(fp)
 2004544:	e0bfd417 	ldw	r2,-176(fp)
 2004548:	1880401e 	bne	r3,r2,200464c <_dtoa_r+0x1170>
	    {
	      d.d += d.d;
 200454c:	e0bff217 	ldw	r2,-56(fp)
 2004550:	e0fff317 	ldw	r3,-52(fp)
 2004554:	100d883a 	mov	r6,r2
 2004558:	180f883a 	mov	r7,r3
 200455c:	1009883a 	mov	r4,r2
 2004560:	180b883a 	mov	r5,r3
 2004564:	200dc3c0 	call	200dc3c <__adddf3>
 2004568:	1009883a 	mov	r4,r2
 200456c:	180b883a 	mov	r5,r3
 2004570:	2005883a 	mov	r2,r4
 2004574:	2807883a 	mov	r3,r5
 2004578:	e0bff215 	stw	r2,-56(fp)
 200457c:	e0fff315 	stw	r3,-52(fp)
             if ((d.d > ds) || ((d.d == ds) && (L & 1)))
 2004580:	e0bff217 	ldw	r2,-56(fp)
 2004584:	e0fff317 	ldw	r3,-52(fp)
 2004588:	e1bfe517 	ldw	r6,-108(fp)
 200458c:	e1ffe617 	ldw	r7,-104(fp)
 2004590:	1009883a 	mov	r4,r2
 2004594:	180b883a 	mov	r5,r3
 2004598:	200ee580 	call	200ee58 <__gedf2>
 200459c:	00801a16 	blt	zero,r2,2004608 <_dtoa_r+0x112c>
 20045a0:	e0bff217 	ldw	r2,-56(fp)
 20045a4:	e0fff317 	ldw	r3,-52(fp)
 20045a8:	e1bfe517 	ldw	r6,-108(fp)
 20045ac:	e1ffe617 	ldw	r7,-104(fp)
 20045b0:	1009883a 	mov	r4,r2
 20045b4:	180b883a 	mov	r5,r3
 20045b8:	200edd00 	call	200edd0 <__eqdf2>
 20045bc:	10003c1e 	bne	r2,zero,20046b0 <_dtoa_r+0x11d4>
 20045c0:	e0bfed17 	ldw	r2,-76(fp)
 20045c4:	1080004c 	andi	r2,r2,1
 20045c8:	10003926 	beq	r2,zero,20046b0 <_dtoa_r+0x11d4>
 20045cc:	00000e06 	br	2004608 <_dtoa_r+0x112c>
	      d.d -= L;
	      *s++ = '0' + (int) L;
	      if (d.d < eps.d)
		goto ret1;
	      if (1. - d.d < eps.d)
		goto bump_up;
 20045d0:	0001883a 	nop
 20045d4:	00000c06 	br	2004608 <_dtoa_r+0x112c>
	      d.d -= L;
	      *s++ = '0' + (int) L;
	      if (i == ilim)
		{
		  if (d.d > 0.5 + eps.d)
		    goto bump_up;
 20045d8:	0001883a 	nop
	    {
	      d.d += d.d;
             if ((d.d > ds) || ((d.d == ds) && (L & 1)))
		{
		bump_up:
		  while (*--s == '9')
 20045dc:	00000a06 	br	2004608 <_dtoa_r+0x112c>
		    if (s == s0)
 20045e0:	e0ffe717 	ldw	r3,-100(fp)
 20045e4:	e0bfe917 	ldw	r2,-92(fp)
 20045e8:	1880071e 	bne	r3,r2,2004608 <_dtoa_r+0x112c>
		      {
			k++;
 20045ec:	e0bfd717 	ldw	r2,-164(fp)
 20045f0:	10800044 	addi	r2,r2,1
 20045f4:	e0bfd715 	stw	r2,-164(fp)
			*s = '0';
 20045f8:	e0bfe717 	ldw	r2,-100(fp)
 20045fc:	00c00c04 	movi	r3,48
 2004600:	10c00005 	stb	r3,0(r2)
			break;
 2004604:	00000a06 	br	2004630 <_dtoa_r+0x1154>
	    {
	      d.d += d.d;
             if ((d.d > ds) || ((d.d == ds) && (L & 1)))
		{
		bump_up:
		  while (*--s == '9')
 2004608:	e0bfe717 	ldw	r2,-100(fp)
 200460c:	10bfffc4 	addi	r2,r2,-1
 2004610:	e0bfe715 	stw	r2,-100(fp)
 2004614:	e0bfe717 	ldw	r2,-100(fp)
 2004618:	10800003 	ldbu	r2,0(r2)
 200461c:	10803fcc 	andi	r2,r2,255
 2004620:	1080201c 	xori	r2,r2,128
 2004624:	10bfe004 	addi	r2,r2,-128
 2004628:	10800e60 	cmpeqi	r2,r2,57
 200462c:	103fec1e 	bne	r2,zero,20045e0 <_dtoa_r+0x1104>
		      {
			k++;
			*s = '0';
			break;
		      }
		  ++*s++;
 2004630:	e0bfe717 	ldw	r2,-100(fp)
 2004634:	10c00044 	addi	r3,r2,1
 2004638:	e0ffe715 	stw	r3,-100(fp)
 200463c:	10c00003 	ldbu	r3,0(r2)
 2004640:	18c00044 	addi	r3,r3,1
 2004644:	10c00005 	stb	r3,0(r2)
		}
	      break;
 2004648:	00001906 	br	20046b0 <_dtoa_r+0x11d4>
	    }
	  if (!(d.d *= 10.))
 200464c:	e0bff217 	ldw	r2,-56(fp)
 2004650:	e0fff317 	ldw	r3,-52(fp)
 2004654:	000d883a 	mov	r6,zero
 2004658:	01d00934 	movhi	r7,16420
 200465c:	1009883a 	mov	r4,r2
 2004660:	180b883a 	mov	r5,r3
 2004664:	200ef340 	call	200ef34 <__muldf3>
 2004668:	1009883a 	mov	r4,r2
 200466c:	180b883a 	mov	r5,r3
 2004670:	2005883a 	mov	r2,r4
 2004674:	2807883a 	mov	r3,r5
 2004678:	e0bff215 	stw	r2,-56(fp)
 200467c:	e0fff315 	stw	r3,-52(fp)
 2004680:	e0bff217 	ldw	r2,-56(fp)
 2004684:	e0fff317 	ldw	r3,-52(fp)
 2004688:	000d883a 	mov	r6,zero
 200468c:	000f883a 	mov	r7,zero
 2004690:	1009883a 	mov	r4,r2
 2004694:	180b883a 	mov	r5,r3
 2004698:	200edd00 	call	200edd0 <__eqdf2>
 200469c:	10000626 	beq	r2,zero,20046b8 <_dtoa_r+0x11dc>
	  S = mhi = 0;
	  if (ilim < 0 || d.d <= 5 * ds)
	    goto no_digits;
	  goto one_digit;
	}
      for (i = 1;; i++)
 20046a0:	e0bfd217 	ldw	r2,-184(fp)
 20046a4:	10800044 	addi	r2,r2,1
 20046a8:	e0bfd215 	stw	r2,-184(fp)
		}
	      break;
	    }
	  if (!(d.d *= 10.))
	    break;
	}
 20046ac:	003f7506 	br	2004484 <_dtoa_r+0xfa8>
			*s = '0';
			break;
		      }
		  ++*s++;
		}
	      break;
 20046b0:	0001883a 	nop
 20046b4:	00024f06 	br	2004ff4 <_dtoa_r+0x1b18>
	    }
	  if (!(d.d *= 10.))
	    break;
 20046b8:	0001883a 	nop
	}
      goto ret1;
 20046bc:	00024d06 	br	2004ff4 <_dtoa_r+0x1b18>
    }

  m2 = b2;
 20046c0:	e0bfcf17 	ldw	r2,-196(fp)
 20046c4:	e0bfda15 	stw	r2,-152(fp)
  m5 = b5;
 20046c8:	e0bfd017 	ldw	r2,-192(fp)
 20046cc:	e0bfdb15 	stw	r2,-148(fp)
  mhi = mlo = 0;
 20046d0:	e03fe215 	stw	zero,-120(fp)
 20046d4:	e0bfe217 	ldw	r2,-120(fp)
 20046d8:	e0bfe315 	stw	r2,-116(fp)
  if (leftright)
 20046dc:	e0bfd917 	ldw	r2,-156(fp)
 20046e0:	10003a26 	beq	r2,zero,20047cc <_dtoa_r+0x12f0>
    {
      if (mode < 2)
 20046e4:	e0bffb17 	ldw	r2,-20(fp)
 20046e8:	10800088 	cmpgei	r2,r2,2
 20046ec:	10000a1e 	bne	r2,zero,2004718 <_dtoa_r+0x123c>
	{
	  i =
#ifndef Sudden_Underflow
	    denorm ? be + (Bias + (P - 1) - 1 + 1) :
 20046f0:	e0bfe017 	ldw	r2,-128(fp)
 20046f4:	10000326 	beq	r2,zero,2004704 <_dtoa_r+0x1228>
 20046f8:	e0bff117 	ldw	r2,-60(fp)
 20046fc:	10810cc4 	addi	r2,r2,1075
 2004700:	00000306 	br	2004710 <_dtoa_r+0x1234>
#endif
#ifdef IBM
	    1 + 4 * P - 3 - bbits + ((bbits + be - 1) & 3);
#else
	    1 + P - bbits;
 2004704:	e0bff017 	ldw	r2,-64(fp)
    {
      if (mode < 2)
	{
	  i =
#ifndef Sudden_Underflow
	    denorm ? be + (Bias + (P - 1) - 1 + 1) :
 2004708:	00c00d84 	movi	r3,54
 200470c:	1885c83a 	sub	r2,r3,r2
  mhi = mlo = 0;
  if (leftright)
    {
      if (mode < 2)
	{
	  i =
 2004710:	e0bfd215 	stw	r2,-184(fp)
 2004714:	00002106 	br	200479c <_dtoa_r+0x12c0>
	    1 + P - bbits;
#endif
	}
      else
	{
	  j = ilim - 1;
 2004718:	e0bfd417 	ldw	r2,-176(fp)
 200471c:	10bfffc4 	addi	r2,r2,-1
 2004720:	e0bfd615 	stw	r2,-168(fp)
	  if (m5 >= j)
 2004724:	e0ffdb17 	ldw	r3,-148(fp)
 2004728:	e0bfd617 	ldw	r2,-168(fp)
 200472c:	18800516 	blt	r3,r2,2004744 <_dtoa_r+0x1268>
	    m5 -= j;
 2004730:	e0ffdb17 	ldw	r3,-148(fp)
 2004734:	e0bfd617 	ldw	r2,-168(fp)
 2004738:	1885c83a 	sub	r2,r3,r2
 200473c:	e0bfdb15 	stw	r2,-148(fp)
 2004740:	00000d06 	br	2004778 <_dtoa_r+0x129c>
	  else
	    {
	      s5 += j -= m5;
 2004744:	e0ffd617 	ldw	r3,-168(fp)
 2004748:	e0bfdb17 	ldw	r2,-148(fp)
 200474c:	1885c83a 	sub	r2,r3,r2
 2004750:	e0bfd615 	stw	r2,-168(fp)
 2004754:	e0bfd617 	ldw	r2,-168(fp)
 2004758:	e0ffdd17 	ldw	r3,-140(fp)
 200475c:	1885883a 	add	r2,r3,r2
 2004760:	e0bfdd15 	stw	r2,-140(fp)
	      b5 += j;
 2004764:	e0ffd017 	ldw	r3,-192(fp)
 2004768:	e0bfd617 	ldw	r2,-168(fp)
 200476c:	1885883a 	add	r2,r3,r2
 2004770:	e0bfd015 	stw	r2,-192(fp)
	      m5 = 0;
 2004774:	e03fdb15 	stw	zero,-148(fp)
	    }
	  if ((i = ilim) < 0)
 2004778:	e0bfd417 	ldw	r2,-176(fp)
 200477c:	e0bfd215 	stw	r2,-184(fp)
 2004780:	e0bfd217 	ldw	r2,-184(fp)
 2004784:	1000050e 	bge	r2,zero,200479c <_dtoa_r+0x12c0>
	    {
	      m2 -= i;
 2004788:	e0ffda17 	ldw	r3,-152(fp)
 200478c:	e0bfd217 	ldw	r2,-184(fp)
 2004790:	1885c83a 	sub	r2,r3,r2
 2004794:	e0bfda15 	stw	r2,-152(fp)
	      i = 0;
 2004798:	e03fd215 	stw	zero,-184(fp)
	    }
	}
      b2 += i;
 200479c:	e0ffcf17 	ldw	r3,-196(fp)
 20047a0:	e0bfd217 	ldw	r2,-184(fp)
 20047a4:	1885883a 	add	r2,r3,r2
 20047a8:	e0bfcf15 	stw	r2,-196(fp)
      s2 += i;
 20047ac:	e0ffdc17 	ldw	r3,-144(fp)
 20047b0:	e0bfd217 	ldw	r2,-184(fp)
 20047b4:	1885883a 	add	r2,r3,r2
 20047b8:	e0bfdc15 	stw	r2,-144(fp)
      mhi = i2b (ptr, 1);
 20047bc:	01400044 	movi	r5,1
 20047c0:	e13ff817 	ldw	r4,-32(fp)
 20047c4:	200890c0 	call	200890c <__i2b>
 20047c8:	e0bfe315 	stw	r2,-116(fp)
    }
  if (m2 > 0 && s2 > 0)
 20047cc:	e0bfda17 	ldw	r2,-152(fp)
 20047d0:	0080130e 	bge	zero,r2,2004820 <_dtoa_r+0x1344>
 20047d4:	e0bfdc17 	ldw	r2,-144(fp)
 20047d8:	0080110e 	bge	zero,r2,2004820 <_dtoa_r+0x1344>
    {
      i = m2 < s2 ? m2 : s2;
 20047dc:	e0ffda17 	ldw	r3,-152(fp)
 20047e0:	e0bfdc17 	ldw	r2,-144(fp)
 20047e4:	1880010e 	bge	r3,r2,20047ec <_dtoa_r+0x1310>
 20047e8:	1805883a 	mov	r2,r3
 20047ec:	e0bfd215 	stw	r2,-184(fp)
      b2 -= i;
 20047f0:	e0ffcf17 	ldw	r3,-196(fp)
 20047f4:	e0bfd217 	ldw	r2,-184(fp)
 20047f8:	1885c83a 	sub	r2,r3,r2
 20047fc:	e0bfcf15 	stw	r2,-196(fp)
      m2 -= i;
 2004800:	e0ffda17 	ldw	r3,-152(fp)
 2004804:	e0bfd217 	ldw	r2,-184(fp)
 2004808:	1885c83a 	sub	r2,r3,r2
 200480c:	e0bfda15 	stw	r2,-152(fp)
      s2 -= i;
 2004810:	e0ffdc17 	ldw	r3,-144(fp)
 2004814:	e0bfd217 	ldw	r2,-184(fp)
 2004818:	1885c83a 	sub	r2,r3,r2
 200481c:	e0bfdc15 	stw	r2,-144(fp)
    }
  if (b5 > 0)
 2004820:	e0bfd017 	ldw	r2,-192(fp)
 2004824:	0080240e 	bge	zero,r2,20048b8 <_dtoa_r+0x13dc>
    {
      if (leftright)
 2004828:	e0bfd917 	ldw	r2,-156(fp)
 200482c:	10001d26 	beq	r2,zero,20048a4 <_dtoa_r+0x13c8>
	{
	  if (m5 > 0)
 2004830:	e0bfdb17 	ldw	r2,-148(fp)
 2004834:	00800f0e 	bge	zero,r2,2004874 <_dtoa_r+0x1398>
	    {
	      mhi = pow5mult (ptr, mhi, m5);
 2004838:	e1bfdb17 	ldw	r6,-148(fp)
 200483c:	e17fe317 	ldw	r5,-116(fp)
 2004840:	e13ff817 	ldw	r4,-32(fp)
 2004844:	2008d340 	call	2008d34 <__pow5mult>
 2004848:	e0bfe315 	stw	r2,-116(fp)
	      b1 = mult (ptr, mhi, b);
 200484c:	e1bfe117 	ldw	r6,-124(fp)
 2004850:	e17fe317 	ldw	r5,-116(fp)
 2004854:	e13ff817 	ldw	r4,-32(fp)
 2004858:	20089640 	call	2008964 <__multiply>
 200485c:	e0bfee15 	stw	r2,-72(fp)
	      Bfree (ptr, b);
